
SDP_2016.elf:     file format elf32-littlearm
SDP_2016.elf
architecture: arm, flags 0x00000112:
EXEC_P, HAS_SYMS, D_PAGED
start address 0x00004285

Program Header:
    LOAD off    0x00008000 vaddr 0x00000000 paddr 0x00000000 align 2**15
         filesz 0x000000c0 memsz 0x000000c0 flags r--
    LOAD off    0x00008400 vaddr 0x00000400 paddr 0x00000400 align 2**15
         filesz 0x00000010 memsz 0x00000010 flags r--
    LOAD off    0x00008410 vaddr 0x00000410 paddr 0x00000410 align 2**15
         filesz 0x00005f1c memsz 0x00005f1c flags rwx
    LOAD off    0x0000f000 vaddr 0x1ffff000 paddr 0x0000632c align 2**15
         filesz 0x00000060 memsz 0x00000368 flags rw-
    LOAD off    0x0000f368 vaddr 0x1ffff368 paddr 0x0000638c align 2**15
         filesz 0x00000018 memsz 0x00000418 flags rw-
private flags = 5000002: [Version5 EABI] [has entry point]

Sections:
Idx Name          Size      VMA       LMA       File off  Algn  Flags
  0 .interrupts   000000c0  00000000  00000000  00008000  2**2  CONTENTS, ALLOC, LOAD, READONLY, DATA
  1 .cfmprotect   00000010  00000400  00000400  00008400  2**2  CONTENTS, ALLOC, LOAD, READONLY, DATA
  2 .text         00005f0c  00000410  00000410  00008410  2**3  CONTENTS, ALLOC, LOAD, READONLY, CODE
  3 .ARM          00000008  0000631c  0000631c  0000e31c  2**2  CONTENTS, ALLOC, LOAD, READONLY, DATA
  4 .init_array   00000004  00006324  00006324  0000e324  2**2  CONTENTS, ALLOC, LOAD, DATA
  5 .fini_array   00000004  00006328  00006328  0000e328  2**2  CONTENTS, ALLOC, LOAD, DATA
  6 .data         00000060  1ffff000  0000632c  0000f000  2**2  CONTENTS, ALLOC, LOAD, DATA
  7 .bss          00000308  1ffff060  0000638c  0000f060  2**2  ALLOC
  8 .romp         00000018  1ffff368  0000638c  0000f368  2**0  CONTENTS, ALLOC, LOAD, DATA
  9 ._user_heap_stack 00000400  1ffff380  000063a4  0000f380  2**0  ALLOC
 10 .ARM.attributes 00000028  00000000  00000000  0000f380  2**0  CONTENTS, READONLY
 11 .debug_info   00008c4b  00000000  00000000  0000f3a8  2**0  CONTENTS, READONLY, DEBUGGING
 12 .debug_abbrev 00002e63  00000000  00000000  00017ff3  2**0  CONTENTS, READONLY, DEBUGGING
 13 .debug_aranges 00000938  00000000  00000000  0001ae56  2**0  CONTENTS, READONLY, DEBUGGING
 14 .debug_ranges 00000690  00000000  00000000  0001b78e  2**0  CONTENTS, READONLY, DEBUGGING
 15 .debug_macro  00016133  00000000  00000000  0001be1e  2**0  CONTENTS, READONLY, DEBUGGING
 16 .debug_line   0000a08d  00000000  00000000  00031f51  2**0  CONTENTS, READONLY, DEBUGGING
 17 .debug_str    00045f94  00000000  00000000  0003bfde  2**0  CONTENTS, READONLY, DEBUGGING
 18 .comment      00000070  00000000  00000000  00081f72  2**0  CONTENTS, READONLY
 19 .debug_frame  00001c90  00000000  00000000  00081fe4  2**2  CONTENTS, READONLY, DEBUGGING
SYMBOL TABLE:
00000000 l    d  .interrupts	00000000 .interrupts
00000400 l    d  .cfmprotect	00000000 .cfmprotect
00000410 l    d  .text	00000000 .text
0000631c l    d  .ARM	00000000 .ARM
00006324 l    d  .init_array	00000000 .init_array
00006328 l    d  .fini_array	00000000 .fini_array
1ffff000 l    d  .data	00000000 .data
1ffff060 l    d  .bss	00000000 .bss
1ffff368 l    d  .romp	00000000 .romp
1ffff380 l    d  ._user_heap_stack	00000000 ._user_heap_stack
00000000 l    d  .ARM.attributes	00000000 .ARM.attributes
00000000 l    d  .debug_info	00000000 .debug_info
00000000 l    d  .debug_abbrev	00000000 .debug_abbrev
00000000 l    d  .debug_aranges	00000000 .debug_aranges
00000000 l    d  .debug_ranges	00000000 .debug_ranges
00000000 l    d  .debug_macro	00000000 .debug_macro
00000000 l    d  .debug_line	00000000 .debug_line
00000000 l    d  .debug_str	00000000 .debug_str
00000000 l    d  .comment	00000000 .comment
00000000 l    d  .debug_frame	00000000 .debug_frame
00000000 l    df *ABS*	00000000 Vectors.c
00000000 l    df *ABS*	00000000 Cpu.c
00000000 l    df *ABS*	00000000 crtstuff.c
00006304 l     O .text	00000000 __EH_FRAME_BEGIN__
00000410 l     F .text	00000000 __do_global_dtors_aux
1ffff060 l       .bss	00000000 completed.7863
00006328 l     O .fini_array	00000000 __do_global_dtors_aux_fini_array_entry
00000438 l     F .text	00000000 frame_dummy
1ffff064 l       .bss	00000000 object.7868
00006324 l     O .init_array	00000000 __frame_dummy_init_array_entry
00000000 l    df *ABS*	00000000 /opt/Freescale/KDS_v3/toolchain/bin/../lib/gcc/arm-none-eabi/4.8.4/../../../../arm-none-eabi/lib/armv6-m/crt0.o
00000000 l    df *ABS*	00000000 _udivsi3.o
000004ec l       .text	00000000 .udivsi3_skip_div0_test
00000000 l    df *ABS*	00000000 _divsi3.o
00000588 l       .text	00000000 .divsi3_skip_div0_test
00000000 l    df *ABS*	00000000 _dvmd_tls.o
00000000 l    df *ABS*	00000000 _arm_cmpdf2.o
00000000 l    df *ABS*	00000000 _arm_cmpsf2.o
00000000 l    df *ABS*	00000000 libgcc2.c
00000000 l    df *ABS*	00000000 addsf3.c
00000000 l    df *ABS*	00000000 divsf3.c
00000000 l    df *ABS*	00000000 eqsf2.c
00000000 l    df *ABS*	00000000 gesf2.c
00000000 l    df *ABS*	00000000 lesf2.c
00000000 l    df *ABS*	00000000 mulsf3.c
00000000 l    df *ABS*	00000000 subsf3.c
00000000 l    df *ABS*	00000000 fixsfsi.c
00000000 l    df *ABS*	00000000 floatsisf.c
00000000 l    df *ABS*	00000000 floatunsisf.c
00000000 l    df *ABS*	00000000 adddf3.c
00000000 l    df *ABS*	00000000 divdf3.c
00000000 l    df *ABS*	00000000 eqdf2.c
00000000 l    df *ABS*	00000000 gedf2.c
00000000 l    df *ABS*	00000000 ledf2.c
00000000 l    df *ABS*	00000000 muldf3.c
00000000 l    df *ABS*	00000000 subdf3.c
00000000 l    df *ABS*	00000000 fixdfsi.c
00000000 l    df *ABS*	00000000 floatsidf.c
00000000 l    df *ABS*	00000000 extendsfdf2.c
00000000 l    df *ABS*	00000000 truncdfsf2.c
00000000 l    df *ABS*	00000000 _clzsi2.o
00000000 l    df *ABS*	00000000 BatteryController.c
00000000 l    df *ABS*	00000000 CameraController.c
00000000 l    df *ABS*	00000000 Error_management.c
00000000 l    df *ABS*	00000000 Events.c
00000000 l    df *ABS*	00000000 ImageProcessing.c
00000000 l    df *ABS*	00000000 MotorController.c
00000000 l    df *ABS*	00000000 PID.c
00000000 l    df *ABS*	00000000 SerialCommunication.c
1ffff07c l     O .bss	00000008 deviceData
00003d20 l     F .text	00000020 init_Serial
00003d40 l     F .text	00000044 sendAChar
00000000 l    df *ABS*	00000000 ServoController.c
00000000 l    df *ABS*	00000000 SystemController.c
00000000 l    df *ABS*	00000000 main.c
00000000 l    df *ABS*	00000000 startup.c
00004298 l       .text	00000000 skip_sp
00000000 l    df *ABS*	00000000 AD_Converter.c
1ffff084 l     O .bss	00000001 SumChan
1ffff085 l     O .bss	00000001 ModeFlg
1ffff088 l     O .bss	00000002 SampleGroup
000062ec l     O .text	00000002 Table
1ffff08c l     O .bss	00000001 OutFlg
000042b4 l     F .text	00000018 ClrSumV
00000000 l    df *ABS*	00000000 AdcLdd1.c
000062f0 l     O .text	00000002 ChannelToPin
1ffff090 l     O .bss	00000008 DeviceDataPrv__DEFAULT_RTOS_ALLOC
1ffff098 l     O .bss	00000004 INT_ADC0__DEFAULT_RTOS_ISRPARAM
00000000 l    df *ABS*	00000000 BitIoLdd1.c
1ffff09c l     O .bss	00000004 DeviceDataPrv__DEFAULT_RTOS_ALLOC
00000000 l    df *ABS*	00000000 BitIoLdd10.c
1ffff0a0 l     O .bss	00000004 DeviceDataPrv__DEFAULT_RTOS_ALLOC
00000000 l    df *ABS*	00000000 BitIoLdd11.c
1ffff0a4 l     O .bss	00000004 DeviceDataPrv__DEFAULT_RTOS_ALLOC
00000000 l    df *ABS*	00000000 BitIoLdd12.c
1ffff0a8 l     O .bss	00000004 DeviceDataPrv__DEFAULT_RTOS_ALLOC
00000000 l    df *ABS*	00000000 BitIoLdd13.c
1ffff0ac l     O .bss	00000004 DeviceDataPrv__DEFAULT_RTOS_ALLOC
00000000 l    df *ABS*	00000000 BitIoLdd14.c
1ffff0b0 l     O .bss	00000004 DeviceDataPrv__DEFAULT_RTOS_ALLOC
00000000 l    df *ABS*	00000000 BitIoLdd2.c
1ffff0b4 l     O .bss	00000004 DeviceDataPrv__DEFAULT_RTOS_ALLOC
00000000 l    df *ABS*	00000000 BitIoLdd3.c
1ffff0b8 l     O .bss	00000004 DeviceDataPrv__DEFAULT_RTOS_ALLOC
00000000 l    df *ABS*	00000000 BitIoLdd4.c
1ffff0bc l     O .bss	00000004 DeviceDataPrv__DEFAULT_RTOS_ALLOC
00000000 l    df *ABS*	00000000 BitIoLdd5.c
1ffff0c0 l     O .bss	00000004 DeviceDataPrv__DEFAULT_RTOS_ALLOC
00000000 l    df *ABS*	00000000 BitIoLdd6.c
1ffff0c4 l     O .bss	00000004 DeviceDataPrv__DEFAULT_RTOS_ALLOC
00000000 l    df *ABS*	00000000 BitIoLdd7.c
1ffff0c8 l     O .bss	00000004 DeviceDataPrv__DEFAULT_RTOS_ALLOC
00000000 l    df *ABS*	00000000 BitIoLdd8.c
1ffff0cc l     O .bss	00000004 DeviceDataPrv__DEFAULT_RTOS_ALLOC
00000000 l    df *ABS*	00000000 BitIoLdd9.c
1ffff0d0 l     O .bss	00000004 DeviceDataPrv__DEFAULT_RTOS_ALLOC
00000000 l    df *ABS*	00000000 Camera_CLK_Interruption.c
00000000 l    df *ABS*	00000000 PwmLdd1.c
1ffff13c l     O .bss	0000000c DeviceDataPrv__DEFAULT_RTOS_ALLOC
0000530c l     F .text	00000066 SetRatio
00000000 l    df *ABS*	00000000 PwmLdd2.c
1ffff148 l     O .bss	0000000c DeviceDataPrv__DEFAULT_RTOS_ALLOC
00005400 l     F .text	00000066 SetRatio
00000000 l    df *ABS*	00000000 PwmLdd3.c
1ffff154 l     O .bss	0000000c DeviceDataPrv__DEFAULT_RTOS_ALLOC
000054f4 l     F .text	00000066 SetRatio
00000000 l    df *ABS*	00000000 PwmLdd4.c
1ffff160 l     O .bss	0000000c DeviceDataPrv__DEFAULT_RTOS_ALLOC
000055e8 l     F .text	00000066 SetRatio
00000000 l    df *ABS*	00000000 PwmLdd5.c
1ffff16c l     O .bss	0000000c DeviceDataPrv__DEFAULT_RTOS_ALLOC
00005754 l     F .text	00000066 SetRatio
00000000 l    df *ABS*	00000000 SerialCom.c
1ffff178 l     O .bss	00000018 DeviceDataPrv__DEFAULT_RTOS_ALLOC
1ffff190 l     O .bss	00000004 INT_UART0__DEFAULT_RTOS_ISRPARAM
00005a30 l     F .text	00000050 InterruptRx
00005a80 l     F .text	00000080 InterruptTx
00000000 l    df *ABS*	00000000 TU1.c
1ffff194 l     O .bss	00000008 DeviceDataPrv__DEFAULT_RTOS_ALLOC
1ffff19c l     O .bss	00000004 INT_PIT__DEFAULT_RTOS_ISRPARAM
00000000 l    df *ABS*	00000000 TU2.c
000062f4 l     O .text	00000004 ChannelDevice
000062f8 l     O .text	00000004 ChannelMode
1ffff1a0 l     O .bss	00000008 DeviceDataPrv__DEFAULT_RTOS_ALLOC
00000000 l    df *ABS*	00000000 TU3.c
1ffff1a8 l     O .bss	0000000c DeviceDataPrv__DEFAULT_RTOS_ALLOC
00000000 l    df *ABS*	00000000 TimerIntLdd1.c
1ffff1b4 l     O .bss	0000000c DeviceDataPrv__DEFAULT_RTOS_ALLOC
00000000 l    df *ABS*	00000000 exit.c
00000000 l    df *ABS*	00000000 init.c
00000000 l    df *ABS*	00000000 memset.c
00000000 l    df *ABS*	00000000 _exit.c
00000000 l    df *ABS*	00000000 impure.c
1ffff000 l     O .data	00000060 impure_data
00000000 l    df *ABS*	00000000 /opt/Freescale/KDS_v3/toolchain/bin/../lib/gcc/arm-none-eabi/4.8.4/armv6-m/crti.o
00000000 l    df *ABS*	00000000 /opt/Freescale/KDS_v3/toolchain/bin/../lib/gcc/arm-none-eabi/4.8.4/armv6-m/crtn.o
00000000 l    df *ABS*	00000000 PE_LDD.c
00000000 l    df *ABS*	00000000 
00000400 l       *ABS*	00000000 __stack_size
00020000 l       *ABS*	00000000 text_end
1ffff000 l       .data	00000000 _sdata
000063a4 l       .fini_array	00000000 data_init_end
0000632c l       .fini_array	00000000 ___ROM_AT
00000000 l       *ABS*	00000000 __heap_size
00006328 l       .init_array	00000000 __init_array_end
00006324 l       .init_array	00000000 __preinit_array_end
20003000 l       *ABS*	00000000 _estack
1ffff060 l       .data	00000000 _edata
00006324 l       .init_array	00000000 __init_array_start
00006324 l       .init_array	00000000 __preinit_array_start
000047f0 g     F .text	00000030 AdcLdd1_MeasurementCompleteInterrupt
0000325c g     F .text	00000028 updateBatteryLevel
00005e44 g     F .text	0000003c TU2_GetPeriodTicks
1ffff1cc g     O .bss	00000004 clockCounter
1ffff380 g       ._user_heap_stack	00000000 __HeapBase
00004a68 g     F .text	00000028 BitIoLdd13_GetVal
00000688 g     F .text	00000012 .hidden __aeabi_dcmple
00004d4c g     F .text	0000001c BitIoLdd5_NegVal
000057bc g     F .text	000001b0 SerialCom_Init
0000216c g     F .text	00000094 .hidden __eqdf2
00005c38 g     F .text	0000002c TU1_Enable
000043cc g     F .text	00000058 AD_Converter_GetChanValue
00003648 g     F .text	00000120 Camera_CLK_Interruption_OnInterrupt
1ffff380 g       ._user_heap_stack	00000000 __heap_addr
1ffff0d4 g     O .bss	00000001 SR_lock
1ffff1d0 g     O .bss	00000004 samplesNumber
1ffff1c0 g     O .bss	00000001 handlingPowerUpdate
00006010 g     F .text	00000044 TU3_SetOffsetTicks
00003eb8 g     F .text	00000068 advancedControl
00004e8c g     F .text	0000001c BitIoLdd7_ClrVal
0000555c g     F .text	00000058 PwmLdd4_Init
000055b4 g     F .text	00000032 PwmLdd4_SetRatio8
00006324 g       .ARM	00000000 __exidx_end
00005fd4 g     F .text	0000003c TU3_GetPeriodTicks
00004c44 g     F .text	00000068 BitIoLdd4_Init
00002200 g     F .text	000000fc .hidden __gtdf2
1ffff1d4 g     O .bss	00000004 transferTime
000037f0 g     F .text	00000090 binarization
00004ae4 g     F .text	00000028 BitIoLdd14_GetVal
00004bac g     F .text	00000018 BitIoLdd2_SetVal
00004820 g     F .text	00000060 BitIoLdd1_Init
0000631c g       .text	00000000 _etext
00000658 g     F .text	00000010 .hidden __aeabi_cdcmple
1ffff1d8 g     O .bss	00000004 currentSample
00000768 g     F .text	000002d8 .hidden __aeabi_fadd
00000000 g     O .interrupts	000000c0 __vect_table
00003288 g     F .text	0000022c updatePowerState
00004dd0 g     F .text	0000001c BitIoLdd6_ClrVal
00004368 g     F .text	00000064 AD_Converter_MeasureChan
00004628 g     F .text	00000044 AdcLdd1_StartSingleMeasurement
00004f80 g     F .text	0000001c BitIoLdd8_NegVal
00005c64 g     F .text	00000074 TU1_SetEventMask
00000648 g     F .text	00000020 .hidden __aeabi_cdrcmple
00003a40 g     F .text	00000100 update_pid
00000710 g     F .text	00000012 .hidden __aeabi_fcmpgt
000022fc g     F .text	000000fc .hidden __ltdf2
00006324 g       .init_array	00000000 __DTOR_END__
000004e8 g     F .text	00000088 .hidden __udivsi3
1ffff060 g       .bss	00000000 __START_BSS
00001388 g     F .text	000000b8 .hidden __aeabi_i2f
000056a8 g     F .text	0000002e PwmLdd5_Enable
00000d70 g     F .text	00000096 .hidden __lesf2
1ffff380 g       ._user_heap_stack	00000000 __HeapLimit
1ffff060 g       .bss	00000000 __bss_start__
0000379c g     F .text	00000018 SerialCom_OnBlockSent
00004738 g     F .text	000000b8 AdcLdd1_GetCalibrationResultStatus
000035c4 g     F .text	0000007c get_error
000048d8 g     F .text	00000060 BitIoLdd10_Init
000034b8 g     F .text	00000028 initializeCamera
000054c0 g     F .text	00000032 PwmLdd3_SetRatio8
00003554 g     F .text	00000070 verifySample
00000674 g     F .text	00000012 .hidden __aeabi_dcmplt
00001b24 g     F .text	00000648 .hidden __aeabi_ddiv
00004284 g     F .text	00000030 __thumb_startup
00000c8c g     F .text	00000054 .hidden __nesf2
00003d84 g     F .text	0000009a itoa_8_bit
0000451c g     F .text	0000002c AD_Converter_Init
0000631c g       .ARM	00000000 __exidx_start
000023f8 g     F .text	00000520 .hidden __aeabi_dmul
000052d8 g     F .text	00000032 PwmLdd1_SetRatio8
00006300 g     O .text	00000004 _global_impure_ptr
00006164 g     F .text	0000004c __libc_init_array
00004a14 g     F .text	00000054 BitIoLdd13_Init
0000427c  w    F .text	00000008 __init_user
00000470 g     F .text	00000000 _mainCRTStartup
1ffff2e0 g     O .bss	00000080 referenceImage
00003f20 g     F .text	000000a8 dc_motors_normalization
1ffff1c1 g     O .bss	00000001 serialTest
000034e0 g     F .text	00000074 getRawImageMean
00006304 g     F .text	00000000 _init
1ffff1dc g     O .bss	00000004 state
000060a4 g     F .text	0000002e TimerIntLdd1_Enable
00003108 g     F .text	00000118 .hidden __aeabi_d2f
0000105c g     F .text	000002ec .hidden __aeabi_fsub
00000000  w      *UND*	00000000 __libc_fini_array
00005374 g     F .text	00000058 PwmLdd2_Init
0000502c g     F .text	00000110 __init_hardware
00004b0c g     F .text	00000060 BitIoLdd2_Init
00004cac g     F .text	0000001c BitIoLdd4_SetVal
00000724 g     F .text	00000012 .hidden __aeabi_fcmpge
1ffff1e0 g     O .bss	00000080 rawImage
00005b00 g     F .text	00000064 SerialCom_Interrupt
00006114 g     F .text	00000024 TU1_OnCounterRestart
00000ce0 g     F .text	0000008e .hidden __gtsf2
000042cc g     F .text	0000009c AD_Converter_HWEnDi
1ffff360 g     O .bss	00000004 AdcLdd1_DeviceDataPtr
000014e0 g     F .text	00000644 .hidden __aeabi_dadd
000022fc g     F .text	000000fc .hidden __ledf2
000048a8 g     F .text	00000018 BitIoLdd1_ClrVal
000006fc g     F .text	00000012 .hidden __aeabi_fcmple
00000000  w      *UND*	00000000 __sf_fake_stderr
00000000  w      *UND*	00000000 __deregister_frame_info
00000584 g     F .text	00000000 .hidden __aeabi_idiv
00004104 g     F .text	000000d6 __copy_rom_section
00003640 g     F .text	00000008 Cpu_OnNMIINT
00003e70 g     F .text	00000044 setServoDirection
00006324 g       .init_array	00000000 __CTOR_LIST__
00003940 g     F .text	000000c4 setMotorsSpeed
0000069c g     F .text	00000012 .hidden __aeabi_dcmpgt
00003220 g     F .text	0000003c .hidden __clzsi2
00004ec4 g     F .text	0000001c BitIoLdd7_NegVal
00003880 g     F .text	000000c0 set_borders
1ffff368 g       .bss	00000000 __bss_end__
000006b0 g     F .text	00000012 .hidden __aeabi_dcmpge
00004998 g     F .text	00000054 BitIoLdd12_Init
00000000  w      *UND*	00000000 __call_exitprocs
00004b94 g     F .text	00000018 BitIoLdd2_ClrVal
00002918 g     F .text	00000668 .hidden __aeabi_dsub
00000470 g     F .text	00000000 _start
00004548 g     F .text	000000e0 AdcLdd1_Init
000048c0 g     F .text	00000018 BitIoLdd1_SetVal
00000400 g     O .cfmprotect	00000010 _cfm
00000000 g       .interrupts	00000000 __vector_table
000053cc g     F .text	00000032 PwmLdd2_SetRatio8
00001348 g     F .text	00000040 .hidden __aeabi_f2iz
00000c8c g     F .text	00000054 .hidden __eqsf2
20003000 g       *ABS*	00000000 __SP_INIT
00000000  w      *UND*	00000000 software_init_hook
00004e08 g     F .text	0000001c BitIoLdd6_NegVal
00003c78 g     F .text	000000a4 update_gains
000056d8 g     F .text	0000007c PwmLdd5_SetDutyUS
00000a40 g     F .text	0000024c .hidden __aeabi_fdiv
00004a90 g     F .text	00000054 BitIoLdd14_Init
00002fe8 g     F .text	0000007c .hidden __aeabi_i2d
0000466c g     F .text	0000006c AdcLdd1_CreateSampleGroup
00004c1c g     F .text	00000028 BitIoLdd3_GetVal
0000513c g     F .text	00000144 PE_low_level_init
00000644  w    F .text	00000002 .hidden __aeabi_ldiv0
000046d8 g     F .text	00000060 AdcLdd1_GetMeasuredValues
00001440 g     F .text	000000a0 .hidden __aeabi_ui2f
1ffff1c4 g     O .bss	00000004 batteryLevel
000041dc g     F .text	00000098 __copy_rom_sections_to_ram
00004cc8 g     F .text	00000068 BitIoLdd5_Init
000037b4 g     F .text	00000038 calibration
00000000  w      *UND*	00000000 __sf_fake_stdin
1ffff366 g     O .bss	00000001 SR_reg
00004e24 g     F .text	00000068 BitIoLdd7_Init
000061b0 g     F .text	00000010 memset
00003fc8 g     F .text	0000013c main
00000d70 g     F .text	00000096 .hidden __ltsf2
00004424 g     F .text	000000f8 AdcLdd1_OnMeasurementComplete
000004e8 g     F .text	00000000 .hidden __aeabi_uidiv
00005020 g     F .text	0000000a Cpu_Interrupt
00003b40 g     F .text	00000046 get_derivative_state
00004d68 g     F .text	00000068 BitIoLdd6_Init
00004f9c g     F .text	00000064 BitIoLdd9_Init
1ffff0d8 g     O .bss	00000064 PE_LDD_DeviceDataList
00000000  w      *UND*	00000000 hardware_init_hook
00005280 g     F .text	00000058 PwmLdd1_Init
00005000 g     F .text	00000012 TimerIntLdd1_OnInterrupt
00005468 g     F .text	00000058 PwmLdd3_Init
000006cc g     F .text	00000010 .hidden __aeabi_cfcmple
00000584 g     F .text	000000ac .hidden __divsi3
000060d4 g     F .text	00000040 TimerIntLdd1_SetEventMask
00006324 g       .init_array	00000000 __CTOR_END__
00004f48 g     F .text	0000001c BitIoLdd8_ClrVal
00006324 g       .init_array	00000000 __DTOR_LIST__
1ffff368 g       .bss	00000000 __END_BSS
0000216c g     F .text	00000094 .hidden __nedf2
00006310 g     F .text	00000000 _fini
0000638c g       .fini_array	00000000 _romp_at
00005d10 g     F .text	00000134 TU2_Init
00000000  w      *UND*	00000000 atexit
00000ce0 g     F .text	0000008e .hidden __gesf2
1ffff1c8 g     O .bss	00000001 serialFinished
1ffff1c9 g     O .bss	00000001 serialTestStart
000006dc g     F .text	0000000c .hidden __aeabi_fcmpeq
00000e08 g     F .text	00000254 .hidden __aeabi_fmul
00003b88 g     F .text	000000f0 get_integral_term
1ffff000 g       .data	00000000 _mtb_end
00003e20 g     F .text	00000050 sendArrayOfPixels
00005cd8 g     F .text	00000038 TU1_Interrupt
000006c4 g     F .text	00000018 .hidden __aeabi_cfrcmple
00004bc4 g     F .text	00000058 BitIoLdd3_Init
00004ee0 g     F .text	00000068 BitIoLdd8_Init
00004d30 g     F .text	0000001c BitIoLdd5_SetVal
00004ea8 g     F .text	0000001c BitIoLdd7_SetVal
000006e8 g     F .text	00000012 .hidden __aeabi_fcmplt
0000638c g       .fini_array	00000000 __S_romp
20003000 g       *ABS*	00000000 __stack
00000570 g     F .text	00000012 .hidden __aeabi_uidivmod
00000668 g     F .text	0000000c .hidden __aeabi_dcmpeq
00004880 g     F .text	00000028 BitIoLdd1_GetVal
00005e80 g     F .text	00000058 TU2_SetOffsetTicks
00004b6c g     F .text	00000028 BitIoLdd2_GetVal
00004f64 g     F .text	0000001c BitIoLdd8_SetVal
000049ec g     F .text	00000028 BitIoLdd12_GetVal
00000738 g     F .text	0000002e .hidden __aeabi_f2uiz
00004938 g     F .text	00000060 BitIoLdd11_Init
00006138 g     F .text	0000002c exit
1ffff364 g     O .bss	00000002 AD_Converter_OutV
00002f80 g     F .text	00000068 .hidden __aeabi_d2iz
00005ed8 g     F .text	000000cc TU3_Init
00004274  w    F .text	00000008 __init_registers
000006cc g     F .text	00000010 .hidden __aeabi_cfcmpeq
1ffff000 g       .data	00000000 _mtb_start
00000000  w      *UND*	00000000 __sf_fake_stdout
00006054 g     F .text	00000050 TimerIntLdd1_Init
00005b64 g     F .text	000000d4 TU1_Init
00000644  w    F .text	00000002 .hidden __aeabi_idiv0
00000738 g     F .text	0000002e .hidden __fixunssfsi
00005650 g     F .text	00000058 PwmLdd5_Init
000061c0 g     F .text	00000002 _exit
0000596c g     F .text	000000c4 SerialCom_SendBlock
00005fa4 g     F .text	00000030 TU3_Enable
1ffff260 g     O .bss	00000080 rawImageBuffer
00000658 g     F .text	00000010 .hidden __aeabi_cdcmpeq
00002200 g     F .text	000000fc .hidden __gedf2
00003768 g     F .text	00000034 AD_Converter_OnEnd
00003064 g     F .text	000000a4 .hidden __aeabi_f2d
00000000  w      *UND*	00000000 _Jv_RegisterClasses
00000630 g     F .text	00000012 .hidden __aeabi_idivmod
00000060 g       *ABS*	00000000 ___data_size
00005014 g     F .text	0000000c Cpu_INT_NMIInterrupt
00000000  w      *UND*	00000000 __register_frame_info
00003a08 g     F .text	00000038 resetPID
00004dec g     F .text	0000001c BitIoLdd6_SetVal



Disassembly of section .text:

00000410 <__do_global_dtors_aux>:
$t():
     410:	b510      	push	{r4, lr}
     412:	4c06      	ldr	r4, [pc, #24]	; (42c <__do_global_dtors_aux+0x1c>)
     414:	7823      	ldrb	r3, [r4, #0]
     416:	2b00      	cmp	r3, #0
     418:	d107      	bne.n	42a <__do_global_dtors_aux+0x1a>
     41a:	4b05      	ldr	r3, [pc, #20]	; (430 <__do_global_dtors_aux+0x20>)
     41c:	2b00      	cmp	r3, #0
     41e:	d002      	beq.n	426 <__do_global_dtors_aux+0x16>
     420:	4804      	ldr	r0, [pc, #16]	; (434 <__do_global_dtors_aux+0x24>)
     422:	e000      	b.n	426 <__do_global_dtors_aux+0x16>
     424:	bf00      	nop
     426:	2301      	movs	r3, #1
     428:	7023      	strb	r3, [r4, #0]
     42a:	bd10      	pop	{r4, pc}
$d():
     42c:	1ffff060 	.word	0x1ffff060
     430:	00000000 	.word	0x00000000
     434:	00006304 	.word	0x00006304

00000438 <frame_dummy>:
$t():
     438:	b508      	push	{r3, lr}
     43a:	4b08      	ldr	r3, [pc, #32]	; (45c <frame_dummy+0x24>)
     43c:	2b00      	cmp	r3, #0
     43e:	d003      	beq.n	448 <frame_dummy+0x10>
     440:	4807      	ldr	r0, [pc, #28]	; (460 <frame_dummy+0x28>)
     442:	4908      	ldr	r1, [pc, #32]	; (464 <frame_dummy+0x2c>)
     444:	e000      	b.n	448 <frame_dummy+0x10>
     446:	bf00      	nop
     448:	4807      	ldr	r0, [pc, #28]	; (468 <frame_dummy+0x30>)
     44a:	6803      	ldr	r3, [r0, #0]
     44c:	2b00      	cmp	r3, #0
     44e:	d003      	beq.n	458 <frame_dummy+0x20>
     450:	4b06      	ldr	r3, [pc, #24]	; (46c <frame_dummy+0x34>)
     452:	2b00      	cmp	r3, #0
     454:	d000      	beq.n	458 <frame_dummy+0x20>
     456:	4798      	blx	r3
     458:	bd08      	pop	{r3, pc}
     45a:	46c0      	nop			; (mov r8, r8)
$d():
     45c:	00000000 	.word	0x00000000
     460:	00006304 	.word	0x00006304
     464:	1ffff064 	.word	0x1ffff064
     468:	1ffff060 	.word	0x1ffff060
     46c:	00000000 	.word	0x00000000

00000470 <_mainCRTStartup>:
$t():
     470:	4b16      	ldr	r3, [pc, #88]	; (4cc <_mainCRTStartup+0x5c>)
     472:	2b00      	cmp	r3, #0
     474:	d100      	bne.n	478 <_mainCRTStartup+0x8>
     476:	4b14      	ldr	r3, [pc, #80]	; (4c8 <_mainCRTStartup+0x58>)
     478:	469d      	mov	sp, r3
     47a:	2240      	movs	r2, #64	; 0x40
     47c:	0292      	lsls	r2, r2, #10
     47e:	1a9a      	subs	r2, r3, r2
     480:	4692      	mov	sl, r2
     482:	2100      	movs	r1, #0
     484:	468b      	mov	fp, r1
     486:	460f      	mov	r7, r1
     488:	4813      	ldr	r0, [pc, #76]	; (4d8 <_mainCRTStartup+0x68>)
     48a:	4a14      	ldr	r2, [pc, #80]	; (4dc <_mainCRTStartup+0x6c>)
     48c:	1a12      	subs	r2, r2, r0
     48e:	f005 fe8f 	bl	61b0 <memset>
     492:	4b0f      	ldr	r3, [pc, #60]	; (4d0 <_mainCRTStartup+0x60>)
     494:	2b00      	cmp	r3, #0
     496:	d000      	beq.n	49a <_mainCRTStartup+0x2a>
     498:	4798      	blx	r3
     49a:	4b0e      	ldr	r3, [pc, #56]	; (4d4 <_mainCRTStartup+0x64>)
     49c:	2b00      	cmp	r3, #0
     49e:	d000      	beq.n	4a2 <_mainCRTStartup+0x32>
     4a0:	4798      	blx	r3
     4a2:	2000      	movs	r0, #0
     4a4:	2100      	movs	r1, #0
     4a6:	0004      	movs	r4, r0
     4a8:	000d      	movs	r5, r1
     4aa:	480d      	ldr	r0, [pc, #52]	; (4e0 <_mainCRTStartup+0x70>)
     4ac:	2800      	cmp	r0, #0
     4ae:	d002      	beq.n	4b6 <_mainCRTStartup+0x46>
     4b0:	480c      	ldr	r0, [pc, #48]	; (4e4 <_mainCRTStartup+0x74>)
     4b2:	e000      	b.n	4b6 <_mainCRTStartup+0x46>
     4b4:	bf00      	nop
     4b6:	f005 fe55 	bl	6164 <__libc_init_array>
     4ba:	0020      	movs	r0, r4
     4bc:	0029      	movs	r1, r5
     4be:	f003 fd83 	bl	3fc8 <main>
     4c2:	f005 fe39 	bl	6138 <exit>
     4c6:	46c0      	nop			; (mov r8, r8)
$d():
     4c8:	00080000 	.word	0x00080000
     4cc:	20003000 	.word	0x20003000
	...
     4d8:	1ffff060 	.word	0x1ffff060
     4dc:	1ffff368 	.word	0x1ffff368
	...

000004e8 <__aeabi_uidiv>:
__udivsi3():
     4e8:	2900      	cmp	r1, #0
     4ea:	d034      	beq.n	556 <.udivsi3_skip_div0_test+0x6a>

000004ec <.udivsi3_skip_div0_test>:
     4ec:	2301      	movs	r3, #1
     4ee:	2200      	movs	r2, #0
     4f0:	b410      	push	{r4}
     4f2:	4288      	cmp	r0, r1
     4f4:	d32c      	bcc.n	550 <.udivsi3_skip_div0_test+0x64>
     4f6:	2401      	movs	r4, #1
     4f8:	0724      	lsls	r4, r4, #28
     4fa:	42a1      	cmp	r1, r4
     4fc:	d204      	bcs.n	508 <.udivsi3_skip_div0_test+0x1c>
     4fe:	4281      	cmp	r1, r0
     500:	d202      	bcs.n	508 <.udivsi3_skip_div0_test+0x1c>
     502:	0109      	lsls	r1, r1, #4
     504:	011b      	lsls	r3, r3, #4
     506:	e7f8      	b.n	4fa <.udivsi3_skip_div0_test+0xe>
     508:	00e4      	lsls	r4, r4, #3
     50a:	42a1      	cmp	r1, r4
     50c:	d204      	bcs.n	518 <.udivsi3_skip_div0_test+0x2c>
     50e:	4281      	cmp	r1, r0
     510:	d202      	bcs.n	518 <.udivsi3_skip_div0_test+0x2c>
     512:	0049      	lsls	r1, r1, #1
     514:	005b      	lsls	r3, r3, #1
     516:	e7f8      	b.n	50a <.udivsi3_skip_div0_test+0x1e>
     518:	4288      	cmp	r0, r1
     51a:	d301      	bcc.n	520 <.udivsi3_skip_div0_test+0x34>
     51c:	1a40      	subs	r0, r0, r1
     51e:	431a      	orrs	r2, r3
     520:	084c      	lsrs	r4, r1, #1
     522:	42a0      	cmp	r0, r4
     524:	d302      	bcc.n	52c <.udivsi3_skip_div0_test+0x40>
     526:	1b00      	subs	r0, r0, r4
     528:	085c      	lsrs	r4, r3, #1
     52a:	4322      	orrs	r2, r4
     52c:	088c      	lsrs	r4, r1, #2
     52e:	42a0      	cmp	r0, r4
     530:	d302      	bcc.n	538 <.udivsi3_skip_div0_test+0x4c>
     532:	1b00      	subs	r0, r0, r4
     534:	089c      	lsrs	r4, r3, #2
     536:	4322      	orrs	r2, r4
     538:	08cc      	lsrs	r4, r1, #3
     53a:	42a0      	cmp	r0, r4
     53c:	d302      	bcc.n	544 <.udivsi3_skip_div0_test+0x58>
     53e:	1b00      	subs	r0, r0, r4
     540:	08dc      	lsrs	r4, r3, #3
     542:	4322      	orrs	r2, r4
     544:	2800      	cmp	r0, #0
     546:	d003      	beq.n	550 <.udivsi3_skip_div0_test+0x64>
     548:	091b      	lsrs	r3, r3, #4
     54a:	d001      	beq.n	550 <.udivsi3_skip_div0_test+0x64>
     54c:	0909      	lsrs	r1, r1, #4
     54e:	e7e3      	b.n	518 <.udivsi3_skip_div0_test+0x2c>
     550:	1c10      	adds	r0, r2, #0
     552:	bc10      	pop	{r4}
     554:	4770      	bx	lr
     556:	2800      	cmp	r0, #0
     558:	d001      	beq.n	55e <.udivsi3_skip_div0_test+0x72>
     55a:	2000      	movs	r0, #0
     55c:	43c0      	mvns	r0, r0
     55e:	b407      	push	{r0, r1, r2}
     560:	4802      	ldr	r0, [pc, #8]	; (56c <.udivsi3_skip_div0_test+0x80>)
     562:	a102      	add	r1, pc, #8	; (adr r1, 56c <.udivsi3_skip_div0_test+0x80>)
     564:	1840      	adds	r0, r0, r1
     566:	9002      	str	r0, [sp, #8]
     568:	bd03      	pop	{r0, r1, pc}
     56a:	46c0      	nop			; (mov r8, r8)
     56c:	000000d9 	.word	0x000000d9

00000570 <__aeabi_uidivmod>:
__aeabi_uidivmod():
     570:	2900      	cmp	r1, #0
     572:	d0f0      	beq.n	556 <.udivsi3_skip_div0_test+0x6a>
     574:	b503      	push	{r0, r1, lr}
     576:	f7ff ffb9 	bl	4ec <.udivsi3_skip_div0_test>
     57a:	bc0e      	pop	{r1, r2, r3}
     57c:	4342      	muls	r2, r0
     57e:	1a89      	subs	r1, r1, r2
     580:	4718      	bx	r3
     582:	46c0      	nop			; (mov r8, r8)

00000584 <__aeabi_idiv>:
__divsi3():
     584:	2900      	cmp	r1, #0
     586:	d041      	beq.n	60c <.divsi3_skip_div0_test+0x84>

00000588 <.divsi3_skip_div0_test>:
     588:	b410      	push	{r4}
     58a:	1c04      	adds	r4, r0, #0
     58c:	404c      	eors	r4, r1
     58e:	46a4      	mov	ip, r4
     590:	2301      	movs	r3, #1
     592:	2200      	movs	r2, #0
     594:	2900      	cmp	r1, #0
     596:	d500      	bpl.n	59a <.divsi3_skip_div0_test+0x12>
     598:	4249      	negs	r1, r1
     59a:	2800      	cmp	r0, #0
     59c:	d500      	bpl.n	5a0 <.divsi3_skip_div0_test+0x18>
     59e:	4240      	negs	r0, r0
     5a0:	4288      	cmp	r0, r1
     5a2:	d32c      	bcc.n	5fe <.divsi3_skip_div0_test+0x76>
     5a4:	2401      	movs	r4, #1
     5a6:	0724      	lsls	r4, r4, #28
     5a8:	42a1      	cmp	r1, r4
     5aa:	d204      	bcs.n	5b6 <.divsi3_skip_div0_test+0x2e>
     5ac:	4281      	cmp	r1, r0
     5ae:	d202      	bcs.n	5b6 <.divsi3_skip_div0_test+0x2e>
     5b0:	0109      	lsls	r1, r1, #4
     5b2:	011b      	lsls	r3, r3, #4
     5b4:	e7f8      	b.n	5a8 <.divsi3_skip_div0_test+0x20>
     5b6:	00e4      	lsls	r4, r4, #3
     5b8:	42a1      	cmp	r1, r4
     5ba:	d204      	bcs.n	5c6 <.divsi3_skip_div0_test+0x3e>
     5bc:	4281      	cmp	r1, r0
     5be:	d202      	bcs.n	5c6 <.divsi3_skip_div0_test+0x3e>
     5c0:	0049      	lsls	r1, r1, #1
     5c2:	005b      	lsls	r3, r3, #1
     5c4:	e7f8      	b.n	5b8 <.divsi3_skip_div0_test+0x30>
     5c6:	4288      	cmp	r0, r1
     5c8:	d301      	bcc.n	5ce <.divsi3_skip_div0_test+0x46>
     5ca:	1a40      	subs	r0, r0, r1
     5cc:	431a      	orrs	r2, r3
     5ce:	084c      	lsrs	r4, r1, #1
     5d0:	42a0      	cmp	r0, r4
     5d2:	d302      	bcc.n	5da <.divsi3_skip_div0_test+0x52>
     5d4:	1b00      	subs	r0, r0, r4
     5d6:	085c      	lsrs	r4, r3, #1
     5d8:	4322      	orrs	r2, r4
     5da:	088c      	lsrs	r4, r1, #2
     5dc:	42a0      	cmp	r0, r4
     5de:	d302      	bcc.n	5e6 <.divsi3_skip_div0_test+0x5e>
     5e0:	1b00      	subs	r0, r0, r4
     5e2:	089c      	lsrs	r4, r3, #2
     5e4:	4322      	orrs	r2, r4
     5e6:	08cc      	lsrs	r4, r1, #3
     5e8:	42a0      	cmp	r0, r4
     5ea:	d302      	bcc.n	5f2 <.divsi3_skip_div0_test+0x6a>
     5ec:	1b00      	subs	r0, r0, r4
     5ee:	08dc      	lsrs	r4, r3, #3
     5f0:	4322      	orrs	r2, r4
     5f2:	2800      	cmp	r0, #0
     5f4:	d003      	beq.n	5fe <.divsi3_skip_div0_test+0x76>
     5f6:	091b      	lsrs	r3, r3, #4
     5f8:	d001      	beq.n	5fe <.divsi3_skip_div0_test+0x76>
     5fa:	0909      	lsrs	r1, r1, #4
     5fc:	e7e3      	b.n	5c6 <.divsi3_skip_div0_test+0x3e>
     5fe:	1c10      	adds	r0, r2, #0
     600:	4664      	mov	r4, ip
     602:	2c00      	cmp	r4, #0
     604:	d500      	bpl.n	608 <.divsi3_skip_div0_test+0x80>
     606:	4240      	negs	r0, r0
     608:	bc10      	pop	{r4}
     60a:	4770      	bx	lr
     60c:	2800      	cmp	r0, #0
     60e:	d006      	beq.n	61e <.divsi3_skip_div0_test+0x96>
     610:	db03      	blt.n	61a <.divsi3_skip_div0_test+0x92>
     612:	2000      	movs	r0, #0
     614:	43c0      	mvns	r0, r0
     616:	0840      	lsrs	r0, r0, #1
     618:	e001      	b.n	61e <.divsi3_skip_div0_test+0x96>
     61a:	2080      	movs	r0, #128	; 0x80
     61c:	0600      	lsls	r0, r0, #24
     61e:	b407      	push	{r0, r1, r2}
     620:	4802      	ldr	r0, [pc, #8]	; (62c <.divsi3_skip_div0_test+0xa4>)
     622:	a102      	add	r1, pc, #8	; (adr r1, 62c <.divsi3_skip_div0_test+0xa4>)
     624:	1840      	adds	r0, r0, r1
     626:	9002      	str	r0, [sp, #8]
     628:	bd03      	pop	{r0, r1, pc}
     62a:	46c0      	nop			; (mov r8, r8)
     62c:	00000019 	.word	0x00000019

00000630 <__aeabi_idivmod>:
__aeabi_idivmod():
     630:	2900      	cmp	r1, #0
     632:	d0eb      	beq.n	60c <.divsi3_skip_div0_test+0x84>
     634:	b503      	push	{r0, r1, lr}
     636:	f7ff ffa7 	bl	588 <.divsi3_skip_div0_test>
     63a:	bc0e      	pop	{r1, r2, r3}
     63c:	4342      	muls	r2, r0
     63e:	1a89      	subs	r1, r1, r2
     640:	4718      	bx	r3
     642:	46c0      	nop			; (mov r8, r8)

00000644 <__aeabi_idiv0>:
__aeabi_ldiv0():
     644:	4770      	bx	lr
     646:	46c0      	nop			; (mov r8, r8)

00000648 <__aeabi_cdrcmple>:
__aeabi_cdrcmple():
     648:	4684      	mov	ip, r0
     64a:	1c10      	adds	r0, r2, #0
     64c:	4662      	mov	r2, ip
     64e:	468c      	mov	ip, r1
     650:	1c19      	adds	r1, r3, #0
     652:	4663      	mov	r3, ip
     654:	e000      	b.n	658 <__aeabi_cdcmpeq>
     656:	46c0      	nop			; (mov r8, r8)

00000658 <__aeabi_cdcmpeq>:
     658:	b51f      	push	{r0, r1, r2, r3, r4, lr}
     65a:	f001 fe4f 	bl	22fc <__ledf2>
     65e:	2800      	cmp	r0, #0
     660:	d401      	bmi.n	666 <__aeabi_cdcmpeq+0xe>
     662:	2100      	movs	r1, #0
     664:	42c8      	cmn	r0, r1
     666:	bd1f      	pop	{r0, r1, r2, r3, r4, pc}

00000668 <__aeabi_dcmpeq>:
__aeabi_dcmpeq():
     668:	b510      	push	{r4, lr}
     66a:	f001 fd7f 	bl	216c <__eqdf2>
     66e:	4240      	negs	r0, r0
     670:	3001      	adds	r0, #1
     672:	bd10      	pop	{r4, pc}

00000674 <__aeabi_dcmplt>:
__aeabi_dcmplt():
     674:	b510      	push	{r4, lr}
     676:	f001 fe41 	bl	22fc <__ledf2>
     67a:	2800      	cmp	r0, #0
     67c:	db01      	blt.n	682 <__aeabi_dcmplt+0xe>
     67e:	2000      	movs	r0, #0
     680:	bd10      	pop	{r4, pc}
     682:	2001      	movs	r0, #1
     684:	bd10      	pop	{r4, pc}
     686:	46c0      	nop			; (mov r8, r8)

00000688 <__aeabi_dcmple>:
__aeabi_dcmple():
     688:	b510      	push	{r4, lr}
     68a:	f001 fe37 	bl	22fc <__ledf2>
     68e:	2800      	cmp	r0, #0
     690:	dd01      	ble.n	696 <__aeabi_dcmple+0xe>
     692:	2000      	movs	r0, #0
     694:	bd10      	pop	{r4, pc}
     696:	2001      	movs	r0, #1
     698:	bd10      	pop	{r4, pc}
     69a:	46c0      	nop			; (mov r8, r8)

0000069c <__aeabi_dcmpgt>:
__aeabi_dcmpgt():
     69c:	b510      	push	{r4, lr}
     69e:	f001 fdaf 	bl	2200 <__gedf2>
     6a2:	2800      	cmp	r0, #0
     6a4:	dc01      	bgt.n	6aa <__aeabi_dcmpgt+0xe>
     6a6:	2000      	movs	r0, #0
     6a8:	bd10      	pop	{r4, pc}
     6aa:	2001      	movs	r0, #1
     6ac:	bd10      	pop	{r4, pc}
     6ae:	46c0      	nop			; (mov r8, r8)

000006b0 <__aeabi_dcmpge>:
__aeabi_dcmpge():
     6b0:	b510      	push	{r4, lr}
     6b2:	f001 fda5 	bl	2200 <__gedf2>
     6b6:	2800      	cmp	r0, #0
     6b8:	da01      	bge.n	6be <__aeabi_dcmpge+0xe>
     6ba:	2000      	movs	r0, #0
     6bc:	bd10      	pop	{r4, pc}
     6be:	2001      	movs	r0, #1
     6c0:	bd10      	pop	{r4, pc}
     6c2:	46c0      	nop			; (mov r8, r8)

000006c4 <__aeabi_cfrcmple>:
__aeabi_cfrcmple():
     6c4:	4684      	mov	ip, r0
     6c6:	1c08      	adds	r0, r1, #0
     6c8:	4661      	mov	r1, ip
     6ca:	e7ff      	b.n	6cc <__aeabi_cfcmpeq>

000006cc <__aeabi_cfcmpeq>:
     6cc:	b51f      	push	{r0, r1, r2, r3, r4, lr}
     6ce:	f000 fb4f 	bl	d70 <__lesf2>
     6d2:	2800      	cmp	r0, #0
     6d4:	d401      	bmi.n	6da <__aeabi_cfcmpeq+0xe>
     6d6:	2100      	movs	r1, #0
     6d8:	42c8      	cmn	r0, r1
     6da:	bd1f      	pop	{r0, r1, r2, r3, r4, pc}

000006dc <__aeabi_fcmpeq>:
__aeabi_fcmpeq():
     6dc:	b510      	push	{r4, lr}
     6de:	f000 fad5 	bl	c8c <__eqsf2>
     6e2:	4240      	negs	r0, r0
     6e4:	3001      	adds	r0, #1
     6e6:	bd10      	pop	{r4, pc}

000006e8 <__aeabi_fcmplt>:
__aeabi_fcmplt():
     6e8:	b510      	push	{r4, lr}
     6ea:	f000 fb41 	bl	d70 <__lesf2>
     6ee:	2800      	cmp	r0, #0
     6f0:	db01      	blt.n	6f6 <__aeabi_fcmplt+0xe>
     6f2:	2000      	movs	r0, #0
     6f4:	bd10      	pop	{r4, pc}
     6f6:	2001      	movs	r0, #1
     6f8:	bd10      	pop	{r4, pc}
     6fa:	46c0      	nop			; (mov r8, r8)

000006fc <__aeabi_fcmple>:
__aeabi_fcmple():
     6fc:	b510      	push	{r4, lr}
     6fe:	f000 fb37 	bl	d70 <__lesf2>
     702:	2800      	cmp	r0, #0
     704:	dd01      	ble.n	70a <__aeabi_fcmple+0xe>
     706:	2000      	movs	r0, #0
     708:	bd10      	pop	{r4, pc}
     70a:	2001      	movs	r0, #1
     70c:	bd10      	pop	{r4, pc}
     70e:	46c0      	nop			; (mov r8, r8)

00000710 <__aeabi_fcmpgt>:
__aeabi_fcmpgt():
     710:	b510      	push	{r4, lr}
     712:	f000 fae5 	bl	ce0 <__gesf2>
     716:	2800      	cmp	r0, #0
     718:	dc01      	bgt.n	71e <__aeabi_fcmpgt+0xe>
     71a:	2000      	movs	r0, #0
     71c:	bd10      	pop	{r4, pc}
     71e:	2001      	movs	r0, #1
     720:	bd10      	pop	{r4, pc}
     722:	46c0      	nop			; (mov r8, r8)

00000724 <__aeabi_fcmpge>:
__aeabi_fcmpge():
     724:	b510      	push	{r4, lr}
     726:	f000 fadb 	bl	ce0 <__gesf2>
     72a:	2800      	cmp	r0, #0
     72c:	da01      	bge.n	732 <__aeabi_fcmpge+0xe>
     72e:	2000      	movs	r0, #0
     730:	bd10      	pop	{r4, pc}
     732:	2001      	movs	r0, #1
     734:	bd10      	pop	{r4, pc}
     736:	46c0      	nop			; (mov r8, r8)

00000738 <__aeabi_f2uiz>:
__aeabi_f2uiz():
     738:	219e      	movs	r1, #158	; 0x9e
     73a:	b510      	push	{r4, lr}
     73c:	05c9      	lsls	r1, r1, #23
     73e:	1c04      	adds	r4, r0, #0
     740:	f7ff fff0 	bl	724 <__aeabi_fcmpge>
     744:	2800      	cmp	r0, #0
     746:	d103      	bne.n	750 <__aeabi_f2uiz+0x18>
     748:	1c20      	adds	r0, r4, #0
     74a:	f000 fdfd 	bl	1348 <__aeabi_f2iz>
     74e:	bd10      	pop	{r4, pc}
     750:	219e      	movs	r1, #158	; 0x9e
     752:	05c9      	lsls	r1, r1, #23
     754:	1c20      	adds	r0, r4, #0
     756:	f000 fc81 	bl	105c <__aeabi_fsub>
     75a:	f000 fdf5 	bl	1348 <__aeabi_f2iz>
     75e:	2380      	movs	r3, #128	; 0x80
     760:	061b      	lsls	r3, r3, #24
     762:	18c0      	adds	r0, r0, r3
     764:	e7f3      	b.n	74e <__aeabi_f2uiz+0x16>
     766:	46c0      	nop			; (mov r8, r8)

00000768 <__aeabi_fadd>:
__aeabi_fadd():
     768:	b5f8      	push	{r3, r4, r5, r6, r7, lr}
     76a:	0243      	lsls	r3, r0, #9
     76c:	0044      	lsls	r4, r0, #1
     76e:	0fc5      	lsrs	r5, r0, #31
     770:	024e      	lsls	r6, r1, #9
     772:	0048      	lsls	r0, r1, #1
     774:	0e24      	lsrs	r4, r4, #24
     776:	1c2a      	adds	r2, r5, #0
     778:	099b      	lsrs	r3, r3, #6
     77a:	0e00      	lsrs	r0, r0, #24
     77c:	0fc9      	lsrs	r1, r1, #31
     77e:	09b6      	lsrs	r6, r6, #6
     780:	428d      	cmp	r5, r1
     782:	d05b      	beq.n	83c <__aeabi_fadd+0xd4>
     784:	1a22      	subs	r2, r4, r0
     786:	2a00      	cmp	r2, #0
     788:	dc00      	bgt.n	78c <__aeabi_fadd+0x24>
     78a:	e089      	b.n	8a0 <__aeabi_fadd+0x138>
     78c:	2800      	cmp	r0, #0
     78e:	d11d      	bne.n	7cc <__aeabi_fadd+0x64>
     790:	2e00      	cmp	r6, #0
     792:	d000      	beq.n	796 <__aeabi_fadd+0x2e>
     794:	e075      	b.n	882 <__aeabi_fadd+0x11a>
     796:	0758      	lsls	r0, r3, #29
     798:	d004      	beq.n	7a4 <__aeabi_fadd+0x3c>
     79a:	220f      	movs	r2, #15
     79c:	401a      	ands	r2, r3
     79e:	2a04      	cmp	r2, #4
     7a0:	d000      	beq.n	7a4 <__aeabi_fadd+0x3c>
     7a2:	3304      	adds	r3, #4
     7a4:	2180      	movs	r1, #128	; 0x80
     7a6:	04c9      	lsls	r1, r1, #19
     7a8:	4019      	ands	r1, r3
     7aa:	1c2a      	adds	r2, r5, #0
     7ac:	2900      	cmp	r1, #0
     7ae:	d03a      	beq.n	826 <__aeabi_fadd+0xbe>
     7b0:	3401      	adds	r4, #1
     7b2:	2cff      	cmp	r4, #255	; 0xff
     7b4:	d100      	bne.n	7b8 <__aeabi_fadd+0x50>
     7b6:	e07f      	b.n	8b8 <__aeabi_fadd+0x150>
     7b8:	019b      	lsls	r3, r3, #6
     7ba:	0a5b      	lsrs	r3, r3, #9
     7bc:	025b      	lsls	r3, r3, #9
     7be:	b2e4      	uxtb	r4, r4
     7c0:	05e4      	lsls	r4, r4, #23
     7c2:	0a58      	lsrs	r0, r3, #9
     7c4:	07d2      	lsls	r2, r2, #31
     7c6:	4320      	orrs	r0, r4
     7c8:	4310      	orrs	r0, r2
     7ca:	bdf8      	pop	{r3, r4, r5, r6, r7, pc}
     7cc:	2cff      	cmp	r4, #255	; 0xff
     7ce:	d0e2      	beq.n	796 <__aeabi_fadd+0x2e>
     7d0:	2180      	movs	r1, #128	; 0x80
     7d2:	04c9      	lsls	r1, r1, #19
     7d4:	430e      	orrs	r6, r1
     7d6:	2a1b      	cmp	r2, #27
     7d8:	dd00      	ble.n	7dc <__aeabi_fadd+0x74>
     7da:	e12d      	b.n	a38 <__aeabi_fadd+0x2d0>
     7dc:	1c31      	adds	r1, r6, #0
     7de:	2020      	movs	r0, #32
     7e0:	40d1      	lsrs	r1, r2
     7e2:	1a82      	subs	r2, r0, r2
     7e4:	4096      	lsls	r6, r2
     7e6:	1e72      	subs	r2, r6, #1
     7e8:	4196      	sbcs	r6, r2
     7ea:	430e      	orrs	r6, r1
     7ec:	1b9b      	subs	r3, r3, r6
     7ee:	0158      	lsls	r0, r3, #5
     7f0:	d5d1      	bpl.n	796 <__aeabi_fadd+0x2e>
     7f2:	019b      	lsls	r3, r3, #6
     7f4:	099f      	lsrs	r7, r3, #6
     7f6:	1c38      	adds	r0, r7, #0
     7f8:	f002 fd12 	bl	3220 <__clzsi2>
     7fc:	1f42      	subs	r2, r0, #5
     7fe:	4097      	lsls	r7, r2
     800:	4294      	cmp	r4, r2
     802:	dc5b      	bgt.n	8bc <__aeabi_fadd+0x154>
     804:	1b14      	subs	r4, r2, r4
     806:	231f      	movs	r3, #31
     808:	1b1b      	subs	r3, r3, r4
     80a:	1c3a      	adds	r2, r7, #0
     80c:	409f      	lsls	r7, r3
     80e:	1c61      	adds	r1, r4, #1
     810:	1c3b      	adds	r3, r7, #0
     812:	40ca      	lsrs	r2, r1
     814:	1e5f      	subs	r7, r3, #1
     816:	41bb      	sbcs	r3, r7
     818:	4313      	orrs	r3, r2
     81a:	2400      	movs	r4, #0
     81c:	e7bb      	b.n	796 <__aeabi_fadd+0x2e>
     81e:	1e13      	subs	r3, r2, #0
     820:	d1b9      	bne.n	796 <__aeabi_fadd+0x2e>
     822:	2300      	movs	r3, #0
     824:	2200      	movs	r2, #0
     826:	08db      	lsrs	r3, r3, #3
     828:	2cff      	cmp	r4, #255	; 0xff
     82a:	d104      	bne.n	836 <__aeabi_fadd+0xce>
     82c:	2b00      	cmp	r3, #0
     82e:	d043      	beq.n	8b8 <__aeabi_fadd+0x150>
     830:	2080      	movs	r0, #128	; 0x80
     832:	03c0      	lsls	r0, r0, #15
     834:	4303      	orrs	r3, r0
     836:	025b      	lsls	r3, r3, #9
     838:	0a5b      	lsrs	r3, r3, #9
     83a:	e7bf      	b.n	7bc <__aeabi_fadd+0x54>
     83c:	1a21      	subs	r1, r4, r0
     83e:	2900      	cmp	r1, #0
     840:	dd40      	ble.n	8c4 <__aeabi_fadd+0x15c>
     842:	2800      	cmp	r0, #0
     844:	d023      	beq.n	88e <__aeabi_fadd+0x126>
     846:	2cff      	cmp	r4, #255	; 0xff
     848:	d0a5      	beq.n	796 <__aeabi_fadd+0x2e>
     84a:	2080      	movs	r0, #128	; 0x80
     84c:	04c0      	lsls	r0, r0, #19
     84e:	4306      	orrs	r6, r0
     850:	291b      	cmp	r1, #27
     852:	dd00      	ble.n	856 <__aeabi_fadd+0xee>
     854:	e0ee      	b.n	a34 <__aeabi_fadd+0x2cc>
     856:	1c30      	adds	r0, r6, #0
     858:	2720      	movs	r7, #32
     85a:	40c8      	lsrs	r0, r1
     85c:	1a79      	subs	r1, r7, r1
     85e:	408e      	lsls	r6, r1
     860:	1e71      	subs	r1, r6, #1
     862:	418e      	sbcs	r6, r1
     864:	4306      	orrs	r6, r0
     866:	199b      	adds	r3, r3, r6
     868:	0159      	lsls	r1, r3, #5
     86a:	d400      	bmi.n	86e <__aeabi_fadd+0x106>
     86c:	e793      	b.n	796 <__aeabi_fadd+0x2e>
     86e:	3401      	adds	r4, #1
     870:	2cff      	cmp	r4, #255	; 0xff
     872:	d055      	beq.n	920 <__aeabi_fadd+0x1b8>
     874:	4971      	ldr	r1, [pc, #452]	; (a3c <__aeabi_fadd+0x2d4>)
     876:	2201      	movs	r2, #1
     878:	401a      	ands	r2, r3
     87a:	400b      	ands	r3, r1
     87c:	085b      	lsrs	r3, r3, #1
     87e:	4313      	orrs	r3, r2
     880:	e789      	b.n	796 <__aeabi_fadd+0x2e>
     882:	3a01      	subs	r2, #1
     884:	2a00      	cmp	r2, #0
     886:	d0b1      	beq.n	7ec <__aeabi_fadd+0x84>
     888:	2cff      	cmp	r4, #255	; 0xff
     88a:	d1a4      	bne.n	7d6 <__aeabi_fadd+0x6e>
     88c:	e783      	b.n	796 <__aeabi_fadd+0x2e>
     88e:	2e00      	cmp	r6, #0
     890:	d100      	bne.n	894 <__aeabi_fadd+0x12c>
     892:	e780      	b.n	796 <__aeabi_fadd+0x2e>
     894:	3901      	subs	r1, #1
     896:	2900      	cmp	r1, #0
     898:	d0e5      	beq.n	866 <__aeabi_fadd+0xfe>
     89a:	2cff      	cmp	r4, #255	; 0xff
     89c:	d1d8      	bne.n	850 <__aeabi_fadd+0xe8>
     89e:	e77a      	b.n	796 <__aeabi_fadd+0x2e>
     8a0:	2a00      	cmp	r2, #0
     8a2:	d11b      	bne.n	8dc <__aeabi_fadd+0x174>
     8a4:	1c62      	adds	r2, r4, #1
     8a6:	b2d2      	uxtb	r2, r2
     8a8:	2a01      	cmp	r2, #1
     8aa:	dd4b      	ble.n	944 <__aeabi_fadd+0x1dc>
     8ac:	1b9f      	subs	r7, r3, r6
     8ae:	017a      	lsls	r2, r7, #5
     8b0:	d523      	bpl.n	8fa <__aeabi_fadd+0x192>
     8b2:	1af7      	subs	r7, r6, r3
     8b4:	1c0d      	adds	r5, r1, #0
     8b6:	e79e      	b.n	7f6 <__aeabi_fadd+0x8e>
     8b8:	2300      	movs	r3, #0
     8ba:	e77f      	b.n	7bc <__aeabi_fadd+0x54>
     8bc:	4b5f      	ldr	r3, [pc, #380]	; (a3c <__aeabi_fadd+0x2d4>)
     8be:	1aa4      	subs	r4, r4, r2
     8c0:	403b      	ands	r3, r7
     8c2:	e768      	b.n	796 <__aeabi_fadd+0x2e>
     8c4:	2900      	cmp	r1, #0
     8c6:	d146      	bne.n	956 <__aeabi_fadd+0x1ee>
     8c8:	1c61      	adds	r1, r4, #1
     8ca:	b2c8      	uxtb	r0, r1
     8cc:	2801      	cmp	r0, #1
     8ce:	dd29      	ble.n	924 <__aeabi_fadd+0x1bc>
     8d0:	29ff      	cmp	r1, #255	; 0xff
     8d2:	d024      	beq.n	91e <__aeabi_fadd+0x1b6>
     8d4:	18f3      	adds	r3, r6, r3
     8d6:	085b      	lsrs	r3, r3, #1
     8d8:	1c0c      	adds	r4, r1, #0
     8da:	e75c      	b.n	796 <__aeabi_fadd+0x2e>
     8dc:	2c00      	cmp	r4, #0
     8de:	d013      	beq.n	908 <__aeabi_fadd+0x1a0>
     8e0:	28ff      	cmp	r0, #255	; 0xff
     8e2:	d018      	beq.n	916 <__aeabi_fadd+0x1ae>
     8e4:	2480      	movs	r4, #128	; 0x80
     8e6:	04e4      	lsls	r4, r4, #19
     8e8:	4252      	negs	r2, r2
     8ea:	4323      	orrs	r3, r4
     8ec:	2a1b      	cmp	r2, #27
     8ee:	dd4d      	ble.n	98c <__aeabi_fadd+0x224>
     8f0:	2301      	movs	r3, #1
     8f2:	1af3      	subs	r3, r6, r3
     8f4:	1c04      	adds	r4, r0, #0
     8f6:	1c0d      	adds	r5, r1, #0
     8f8:	e779      	b.n	7ee <__aeabi_fadd+0x86>
     8fa:	2f00      	cmp	r7, #0
     8fc:	d000      	beq.n	900 <__aeabi_fadd+0x198>
     8fe:	e77a      	b.n	7f6 <__aeabi_fadd+0x8e>
     900:	2300      	movs	r3, #0
     902:	2200      	movs	r2, #0
     904:	2400      	movs	r4, #0
     906:	e78e      	b.n	826 <__aeabi_fadd+0xbe>
     908:	2b00      	cmp	r3, #0
     90a:	d03b      	beq.n	984 <__aeabi_fadd+0x21c>
     90c:	43d2      	mvns	r2, r2
     90e:	2a00      	cmp	r2, #0
     910:	d0ef      	beq.n	8f2 <__aeabi_fadd+0x18a>
     912:	28ff      	cmp	r0, #255	; 0xff
     914:	d1ea      	bne.n	8ec <__aeabi_fadd+0x184>
     916:	1c33      	adds	r3, r6, #0
     918:	24ff      	movs	r4, #255	; 0xff
     91a:	1c0d      	adds	r5, r1, #0
     91c:	e73b      	b.n	796 <__aeabi_fadd+0x2e>
     91e:	24ff      	movs	r4, #255	; 0xff
     920:	2300      	movs	r3, #0
     922:	e780      	b.n	826 <__aeabi_fadd+0xbe>
     924:	2c00      	cmp	r4, #0
     926:	d15c      	bne.n	9e2 <__aeabi_fadd+0x27a>
     928:	2b00      	cmp	r3, #0
     92a:	d100      	bne.n	92e <__aeabi_fadd+0x1c6>
     92c:	e080      	b.n	a30 <__aeabi_fadd+0x2c8>
     92e:	2e00      	cmp	r6, #0
     930:	d100      	bne.n	934 <__aeabi_fadd+0x1cc>
     932:	e730      	b.n	796 <__aeabi_fadd+0x2e>
     934:	199b      	adds	r3, r3, r6
     936:	0158      	lsls	r0, r3, #5
     938:	d400      	bmi.n	93c <__aeabi_fadd+0x1d4>
     93a:	e72c      	b.n	796 <__aeabi_fadd+0x2e>
     93c:	4a3f      	ldr	r2, [pc, #252]	; (a3c <__aeabi_fadd+0x2d4>)
     93e:	2401      	movs	r4, #1
     940:	4013      	ands	r3, r2
     942:	e728      	b.n	796 <__aeabi_fadd+0x2e>
     944:	2c00      	cmp	r4, #0
     946:	d115      	bne.n	974 <__aeabi_fadd+0x20c>
     948:	2b00      	cmp	r3, #0
     94a:	d140      	bne.n	9ce <__aeabi_fadd+0x266>
     94c:	2e00      	cmp	r6, #0
     94e:	d063      	beq.n	a18 <__aeabi_fadd+0x2b0>
     950:	1c33      	adds	r3, r6, #0
     952:	1c0d      	adds	r5, r1, #0
     954:	e71f      	b.n	796 <__aeabi_fadd+0x2e>
     956:	2c00      	cmp	r4, #0
     958:	d121      	bne.n	99e <__aeabi_fadd+0x236>
     95a:	2b00      	cmp	r3, #0
     95c:	d054      	beq.n	a08 <__aeabi_fadd+0x2a0>
     95e:	43c9      	mvns	r1, r1
     960:	2900      	cmp	r1, #0
     962:	d004      	beq.n	96e <__aeabi_fadd+0x206>
     964:	28ff      	cmp	r0, #255	; 0xff
     966:	d04c      	beq.n	a02 <__aeabi_fadd+0x29a>
     968:	291b      	cmp	r1, #27
     96a:	dd58      	ble.n	a1e <__aeabi_fadd+0x2b6>
     96c:	2301      	movs	r3, #1
     96e:	199b      	adds	r3, r3, r6
     970:	1c04      	adds	r4, r0, #0
     972:	e779      	b.n	868 <__aeabi_fadd+0x100>
     974:	2b00      	cmp	r3, #0
     976:	d119      	bne.n	9ac <__aeabi_fadd+0x244>
     978:	2e00      	cmp	r6, #0
     97a:	d048      	beq.n	a0e <__aeabi_fadd+0x2a6>
     97c:	1c33      	adds	r3, r6, #0
     97e:	1c0d      	adds	r5, r1, #0
     980:	24ff      	movs	r4, #255	; 0xff
     982:	e708      	b.n	796 <__aeabi_fadd+0x2e>
     984:	1c33      	adds	r3, r6, #0
     986:	1c04      	adds	r4, r0, #0
     988:	1c0d      	adds	r5, r1, #0
     98a:	e704      	b.n	796 <__aeabi_fadd+0x2e>
     98c:	1c1c      	adds	r4, r3, #0
     98e:	2520      	movs	r5, #32
     990:	40d4      	lsrs	r4, r2
     992:	1aaa      	subs	r2, r5, r2
     994:	4093      	lsls	r3, r2
     996:	1e5a      	subs	r2, r3, #1
     998:	4193      	sbcs	r3, r2
     99a:	4323      	orrs	r3, r4
     99c:	e7a9      	b.n	8f2 <__aeabi_fadd+0x18a>
     99e:	28ff      	cmp	r0, #255	; 0xff
     9a0:	d02f      	beq.n	a02 <__aeabi_fadd+0x29a>
     9a2:	2480      	movs	r4, #128	; 0x80
     9a4:	04e4      	lsls	r4, r4, #19
     9a6:	4249      	negs	r1, r1
     9a8:	4323      	orrs	r3, r4
     9aa:	e7dd      	b.n	968 <__aeabi_fadd+0x200>
     9ac:	24ff      	movs	r4, #255	; 0xff
     9ae:	2e00      	cmp	r6, #0
     9b0:	d100      	bne.n	9b4 <__aeabi_fadd+0x24c>
     9b2:	e6f0      	b.n	796 <__aeabi_fadd+0x2e>
     9b4:	2280      	movs	r2, #128	; 0x80
     9b6:	08db      	lsrs	r3, r3, #3
     9b8:	03d2      	lsls	r2, r2, #15
     9ba:	4213      	tst	r3, r2
     9bc:	d004      	beq.n	9c8 <__aeabi_fadd+0x260>
     9be:	08f6      	lsrs	r6, r6, #3
     9c0:	4216      	tst	r6, r2
     9c2:	d101      	bne.n	9c8 <__aeabi_fadd+0x260>
     9c4:	1c33      	adds	r3, r6, #0
     9c6:	1c0d      	adds	r5, r1, #0
     9c8:	00db      	lsls	r3, r3, #3
     9ca:	24ff      	movs	r4, #255	; 0xff
     9cc:	e6e3      	b.n	796 <__aeabi_fadd+0x2e>
     9ce:	2e00      	cmp	r6, #0
     9d0:	d100      	bne.n	9d4 <__aeabi_fadd+0x26c>
     9d2:	e6e0      	b.n	796 <__aeabi_fadd+0x2e>
     9d4:	1b9a      	subs	r2, r3, r6
     9d6:	0150      	lsls	r0, r2, #5
     9d8:	d400      	bmi.n	9dc <__aeabi_fadd+0x274>
     9da:	e720      	b.n	81e <__aeabi_fadd+0xb6>
     9dc:	1af3      	subs	r3, r6, r3
     9de:	1c0d      	adds	r5, r1, #0
     9e0:	e6d9      	b.n	796 <__aeabi_fadd+0x2e>
     9e2:	2b00      	cmp	r3, #0
     9e4:	d00d      	beq.n	a02 <__aeabi_fadd+0x29a>
     9e6:	24ff      	movs	r4, #255	; 0xff
     9e8:	2e00      	cmp	r6, #0
     9ea:	d100      	bne.n	9ee <__aeabi_fadd+0x286>
     9ec:	e6d3      	b.n	796 <__aeabi_fadd+0x2e>
     9ee:	2280      	movs	r2, #128	; 0x80
     9f0:	08db      	lsrs	r3, r3, #3
     9f2:	03d2      	lsls	r2, r2, #15
     9f4:	4213      	tst	r3, r2
     9f6:	d0e7      	beq.n	9c8 <__aeabi_fadd+0x260>
     9f8:	08f6      	lsrs	r6, r6, #3
     9fa:	4216      	tst	r6, r2
     9fc:	d1e4      	bne.n	9c8 <__aeabi_fadd+0x260>
     9fe:	1c33      	adds	r3, r6, #0
     a00:	e7e2      	b.n	9c8 <__aeabi_fadd+0x260>
     a02:	1c33      	adds	r3, r6, #0
     a04:	24ff      	movs	r4, #255	; 0xff
     a06:	e6c6      	b.n	796 <__aeabi_fadd+0x2e>
     a08:	1c33      	adds	r3, r6, #0
     a0a:	1c04      	adds	r4, r0, #0
     a0c:	e6c3      	b.n	796 <__aeabi_fadd+0x2e>
     a0e:	2380      	movs	r3, #128	; 0x80
     a10:	2200      	movs	r2, #0
     a12:	049b      	lsls	r3, r3, #18
     a14:	24ff      	movs	r4, #255	; 0xff
     a16:	e706      	b.n	826 <__aeabi_fadd+0xbe>
     a18:	1c23      	adds	r3, r4, #0
     a1a:	2200      	movs	r2, #0
     a1c:	e703      	b.n	826 <__aeabi_fadd+0xbe>
     a1e:	1c1c      	adds	r4, r3, #0
     a20:	2720      	movs	r7, #32
     a22:	40cc      	lsrs	r4, r1
     a24:	1a79      	subs	r1, r7, r1
     a26:	408b      	lsls	r3, r1
     a28:	1e59      	subs	r1, r3, #1
     a2a:	418b      	sbcs	r3, r1
     a2c:	4323      	orrs	r3, r4
     a2e:	e79e      	b.n	96e <__aeabi_fadd+0x206>
     a30:	1c33      	adds	r3, r6, #0
     a32:	e6b0      	b.n	796 <__aeabi_fadd+0x2e>
     a34:	2601      	movs	r6, #1
     a36:	e716      	b.n	866 <__aeabi_fadd+0xfe>
     a38:	2601      	movs	r6, #1
     a3a:	e6d7      	b.n	7ec <__aeabi_fadd+0x84>
     a3c:	fbffffff 	.word	0xfbffffff

00000a40 <__aeabi_fdiv>:
__aeabi_fdiv():
     a40:	b5f0      	push	{r4, r5, r6, r7, lr}
     a42:	465f      	mov	r7, fp
     a44:	4656      	mov	r6, sl
     a46:	464d      	mov	r5, r9
     a48:	4644      	mov	r4, r8
     a4a:	b4f0      	push	{r4, r5, r6, r7}
     a4c:	0246      	lsls	r6, r0, #9
     a4e:	0045      	lsls	r5, r0, #1
     a50:	0fc0      	lsrs	r0, r0, #31
     a52:	b085      	sub	sp, #20
     a54:	1c0f      	adds	r7, r1, #0
     a56:	0a76      	lsrs	r6, r6, #9
     a58:	0e2d      	lsrs	r5, r5, #24
     a5a:	4680      	mov	r8, r0
     a5c:	d041      	beq.n	ae2 <__aeabi_fdiv+0xa2>
     a5e:	2dff      	cmp	r5, #255	; 0xff
     a60:	d026      	beq.n	ab0 <__aeabi_fdiv+0x70>
     a62:	2480      	movs	r4, #128	; 0x80
     a64:	0424      	lsls	r4, r4, #16
     a66:	2100      	movs	r1, #0
     a68:	4326      	orrs	r6, r4
     a6a:	00f6      	lsls	r6, r6, #3
     a6c:	3d7f      	subs	r5, #127	; 0x7f
     a6e:	4689      	mov	r9, r1
     a70:	468b      	mov	fp, r1
     a72:	0ff9      	lsrs	r1, r7, #31
     a74:	027c      	lsls	r4, r7, #9
     a76:	0078      	lsls	r0, r7, #1
     a78:	0a64      	lsrs	r4, r4, #9
     a7a:	0e00      	lsrs	r0, r0, #24
     a7c:	9100      	str	r1, [sp, #0]
     a7e:	468a      	mov	sl, r1
     a80:	d03c      	beq.n	afc <__aeabi_fdiv+0xbc>
     a82:	28ff      	cmp	r0, #255	; 0xff
     a84:	d034      	beq.n	af0 <__aeabi_fdiv+0xb0>
     a86:	2380      	movs	r3, #128	; 0x80
     a88:	041b      	lsls	r3, r3, #16
     a8a:	431c      	orrs	r4, r3
     a8c:	2300      	movs	r3, #0
     a8e:	00e4      	lsls	r4, r4, #3
     a90:	387f      	subs	r0, #127	; 0x7f
     a92:	9301      	str	r3, [sp, #4]
     a94:	9f00      	ldr	r7, [sp, #0]
     a96:	4643      	mov	r3, r8
     a98:	9a01      	ldr	r2, [sp, #4]
     a9a:	407b      	eors	r3, r7
     a9c:	4649      	mov	r1, r9
     a9e:	469c      	mov	ip, r3
     aa0:	4311      	orrs	r1, r2
     aa2:	290f      	cmp	r1, #15
     aa4:	d900      	bls.n	aa8 <__aeabi_fdiv+0x68>
     aa6:	e071      	b.n	b8c <__aeabi_fdiv+0x14c>
     aa8:	4f76      	ldr	r7, [pc, #472]	; (c84 <__aeabi_fdiv+0x244>)
     aaa:	0089      	lsls	r1, r1, #2
     aac:	587f      	ldr	r7, [r7, r1]
     aae:	46bf      	mov	pc, r7
     ab0:	2e00      	cmp	r6, #0
     ab2:	d13e      	bne.n	b32 <__aeabi_fdiv+0xf2>
     ab4:	2208      	movs	r2, #8
     ab6:	2302      	movs	r3, #2
     ab8:	4691      	mov	r9, r2
     aba:	469b      	mov	fp, r3
     abc:	e7d9      	b.n	a72 <__aeabi_fdiv+0x32>
     abe:	465a      	mov	r2, fp
     ac0:	1c34      	adds	r4, r6, #0
     ac2:	46c2      	mov	sl, r8
     ac4:	9201      	str	r2, [sp, #4]
     ac6:	9901      	ldr	r1, [sp, #4]
     ac8:	2902      	cmp	r1, #2
     aca:	d037      	beq.n	b3c <__aeabi_fdiv+0xfc>
     acc:	2903      	cmp	r1, #3
     ace:	d100      	bne.n	ad2 <__aeabi_fdiv+0x92>
     ad0:	e0cf      	b.n	c72 <__aeabi_fdiv+0x232>
     ad2:	2901      	cmp	r1, #1
     ad4:	d000      	beq.n	ad8 <__aeabi_fdiv+0x98>
     ad6:	e0ab      	b.n	c30 <__aeabi_fdiv+0x1f0>
     ad8:	4653      	mov	r3, sl
     ada:	400b      	ands	r3, r1
     adc:	2200      	movs	r2, #0
     ade:	2600      	movs	r6, #0
     ae0:	e032      	b.n	b48 <__aeabi_fdiv+0x108>
     ae2:	2e00      	cmp	r6, #0
     ae4:	d119      	bne.n	b1a <__aeabi_fdiv+0xda>
     ae6:	2104      	movs	r1, #4
     ae8:	2201      	movs	r2, #1
     aea:	4689      	mov	r9, r1
     aec:	4693      	mov	fp, r2
     aee:	e7c0      	b.n	a72 <__aeabi_fdiv+0x32>
     af0:	1c22      	adds	r2, r4, #0
     af2:	1e53      	subs	r3, r2, #1
     af4:	419a      	sbcs	r2, r3
     af6:	3202      	adds	r2, #2
     af8:	9201      	str	r2, [sp, #4]
     afa:	e7cb      	b.n	a94 <__aeabi_fdiv+0x54>
     afc:	2701      	movs	r7, #1
     afe:	9701      	str	r7, [sp, #4]
     b00:	2c00      	cmp	r4, #0
     b02:	d0c7      	beq.n	a94 <__aeabi_fdiv+0x54>
     b04:	1c20      	adds	r0, r4, #0
     b06:	f002 fb8b 	bl	3220 <__clzsi2>
     b0a:	1f43      	subs	r3, r0, #5
     b0c:	409c      	lsls	r4, r3
     b0e:	2376      	movs	r3, #118	; 0x76
     b10:	425b      	negs	r3, r3
     b12:	2100      	movs	r1, #0
     b14:	1a18      	subs	r0, r3, r0
     b16:	9101      	str	r1, [sp, #4]
     b18:	e7bc      	b.n	a94 <__aeabi_fdiv+0x54>
     b1a:	1c30      	adds	r0, r6, #0
     b1c:	f002 fb80 	bl	3220 <__clzsi2>
     b20:	2576      	movs	r5, #118	; 0x76
     b22:	1f43      	subs	r3, r0, #5
     b24:	409e      	lsls	r6, r3
     b26:	426d      	negs	r5, r5
     b28:	2300      	movs	r3, #0
     b2a:	1a2d      	subs	r5, r5, r0
     b2c:	4699      	mov	r9, r3
     b2e:	469b      	mov	fp, r3
     b30:	e79f      	b.n	a72 <__aeabi_fdiv+0x32>
     b32:	230c      	movs	r3, #12
     b34:	2103      	movs	r1, #3
     b36:	4699      	mov	r9, r3
     b38:	468b      	mov	fp, r1
     b3a:	e79a      	b.n	a72 <__aeabi_fdiv+0x32>
     b3c:	46d4      	mov	ip, sl
     b3e:	2301      	movs	r3, #1
     b40:	4667      	mov	r7, ip
     b42:	403b      	ands	r3, r7
     b44:	22ff      	movs	r2, #255	; 0xff
     b46:	2600      	movs	r6, #0
     b48:	0276      	lsls	r6, r6, #9
     b4a:	05d2      	lsls	r2, r2, #23
     b4c:	0a70      	lsrs	r0, r6, #9
     b4e:	07db      	lsls	r3, r3, #31
     b50:	4310      	orrs	r0, r2
     b52:	4318      	orrs	r0, r3
     b54:	b005      	add	sp, #20
     b56:	bc3c      	pop	{r2, r3, r4, r5}
     b58:	4690      	mov	r8, r2
     b5a:	4699      	mov	r9, r3
     b5c:	46a2      	mov	sl, r4
     b5e:	46ab      	mov	fp, r5
     b60:	bdf0      	pop	{r4, r5, r6, r7, pc}
     b62:	2680      	movs	r6, #128	; 0x80
     b64:	2300      	movs	r3, #0
     b66:	03f6      	lsls	r6, r6, #15
     b68:	22ff      	movs	r2, #255	; 0xff
     b6a:	e7ed      	b.n	b48 <__aeabi_fdiv+0x108>
     b6c:	2200      	movs	r2, #0
     b6e:	2600      	movs	r6, #0
     b70:	e7ea      	b.n	b48 <__aeabi_fdiv+0x108>
     b72:	2080      	movs	r0, #128	; 0x80
     b74:	03c0      	lsls	r0, r0, #15
     b76:	4206      	tst	r6, r0
     b78:	d03b      	beq.n	bf2 <__aeabi_fdiv+0x1b2>
     b7a:	4204      	tst	r4, r0
     b7c:	d139      	bne.n	bf2 <__aeabi_fdiv+0x1b2>
     b7e:	1c06      	adds	r6, r0, #0
     b80:	4326      	orrs	r6, r4
     b82:	0276      	lsls	r6, r6, #9
     b84:	0a76      	lsrs	r6, r6, #9
     b86:	9b00      	ldr	r3, [sp, #0]
     b88:	22ff      	movs	r2, #255	; 0xff
     b8a:	e7dd      	b.n	b48 <__aeabi_fdiv+0x108>
     b8c:	1a28      	subs	r0, r5, r0
     b8e:	9003      	str	r0, [sp, #12]
     b90:	0176      	lsls	r6, r6, #5
     b92:	0164      	lsls	r4, r4, #5
     b94:	42a6      	cmp	r6, r4
     b96:	d339      	bcc.n	c0c <__aeabi_fdiv+0x1cc>
     b98:	1b36      	subs	r6, r6, r4
     b9a:	221a      	movs	r2, #26
     b9c:	2301      	movs	r3, #1
     b9e:	2001      	movs	r0, #1
     ba0:	1c31      	adds	r1, r6, #0
     ba2:	005b      	lsls	r3, r3, #1
     ba4:	0076      	lsls	r6, r6, #1
     ba6:	2900      	cmp	r1, #0
     ba8:	db01      	blt.n	bae <__aeabi_fdiv+0x16e>
     baa:	42b4      	cmp	r4, r6
     bac:	d801      	bhi.n	bb2 <__aeabi_fdiv+0x172>
     bae:	1b36      	subs	r6, r6, r4
     bb0:	4303      	orrs	r3, r0
     bb2:	3a01      	subs	r2, #1
     bb4:	2a00      	cmp	r2, #0
     bb6:	dcf3      	bgt.n	ba0 <__aeabi_fdiv+0x160>
     bb8:	1e74      	subs	r4, r6, #1
     bba:	41a6      	sbcs	r6, r4
     bbc:	1c34      	adds	r4, r6, #0
     bbe:	431c      	orrs	r4, r3
     bc0:	9a03      	ldr	r2, [sp, #12]
     bc2:	327f      	adds	r2, #127	; 0x7f
     bc4:	2a00      	cmp	r2, #0
     bc6:	dd27      	ble.n	c18 <__aeabi_fdiv+0x1d8>
     bc8:	0763      	lsls	r3, r4, #29
     bca:	d004      	beq.n	bd6 <__aeabi_fdiv+0x196>
     bcc:	230f      	movs	r3, #15
     bce:	4023      	ands	r3, r4
     bd0:	2b04      	cmp	r3, #4
     bd2:	d000      	beq.n	bd6 <__aeabi_fdiv+0x196>
     bd4:	3404      	adds	r4, #4
     bd6:	0127      	lsls	r7, r4, #4
     bd8:	d503      	bpl.n	be2 <__aeabi_fdiv+0x1a2>
     bda:	4b2b      	ldr	r3, [pc, #172]	; (c88 <__aeabi_fdiv+0x248>)
     bdc:	9a03      	ldr	r2, [sp, #12]
     bde:	401c      	ands	r4, r3
     be0:	3280      	adds	r2, #128	; 0x80
     be2:	2afe      	cmp	r2, #254	; 0xfe
     be4:	dd0b      	ble.n	bfe <__aeabi_fdiv+0x1be>
     be6:	2301      	movs	r3, #1
     be8:	4661      	mov	r1, ip
     bea:	400b      	ands	r3, r1
     bec:	22ff      	movs	r2, #255	; 0xff
     bee:	2600      	movs	r6, #0
     bf0:	e7aa      	b.n	b48 <__aeabi_fdiv+0x108>
     bf2:	4306      	orrs	r6, r0
     bf4:	0276      	lsls	r6, r6, #9
     bf6:	0a76      	lsrs	r6, r6, #9
     bf8:	4643      	mov	r3, r8
     bfa:	22ff      	movs	r2, #255	; 0xff
     bfc:	e7a4      	b.n	b48 <__aeabi_fdiv+0x108>
     bfe:	01a4      	lsls	r4, r4, #6
     c00:	2301      	movs	r3, #1
     c02:	4667      	mov	r7, ip
     c04:	0a66      	lsrs	r6, r4, #9
     c06:	b2d2      	uxtb	r2, r2
     c08:	403b      	ands	r3, r7
     c0a:	e79d      	b.n	b48 <__aeabi_fdiv+0x108>
     c0c:	9f03      	ldr	r7, [sp, #12]
     c0e:	221b      	movs	r2, #27
     c10:	3f01      	subs	r7, #1
     c12:	9703      	str	r7, [sp, #12]
     c14:	2300      	movs	r3, #0
     c16:	e7c2      	b.n	b9e <__aeabi_fdiv+0x15e>
     c18:	237e      	movs	r3, #126	; 0x7e
     c1a:	9f03      	ldr	r7, [sp, #12]
     c1c:	425b      	negs	r3, r3
     c1e:	1bdb      	subs	r3, r3, r7
     c20:	2b1b      	cmp	r3, #27
     c22:	dd07      	ble.n	c34 <__aeabi_fdiv+0x1f4>
     c24:	2301      	movs	r3, #1
     c26:	4661      	mov	r1, ip
     c28:	400b      	ands	r3, r1
     c2a:	2200      	movs	r2, #0
     c2c:	2600      	movs	r6, #0
     c2e:	e78b      	b.n	b48 <__aeabi_fdiv+0x108>
     c30:	46d4      	mov	ip, sl
     c32:	e7c5      	b.n	bc0 <__aeabi_fdiv+0x180>
     c34:	1c22      	adds	r2, r4, #0
     c36:	40da      	lsrs	r2, r3
     c38:	9b03      	ldr	r3, [sp, #12]
     c3a:	339e      	adds	r3, #158	; 0x9e
     c3c:	409c      	lsls	r4, r3
     c3e:	1c23      	adds	r3, r4, #0
     c40:	1e5c      	subs	r4, r3, #1
     c42:	41a3      	sbcs	r3, r4
     c44:	4313      	orrs	r3, r2
     c46:	075a      	lsls	r2, r3, #29
     c48:	d004      	beq.n	c54 <__aeabi_fdiv+0x214>
     c4a:	220f      	movs	r2, #15
     c4c:	401a      	ands	r2, r3
     c4e:	2a04      	cmp	r2, #4
     c50:	d000      	beq.n	c54 <__aeabi_fdiv+0x214>
     c52:	3304      	adds	r3, #4
     c54:	015f      	lsls	r7, r3, #5
     c56:	d505      	bpl.n	c64 <__aeabi_fdiv+0x224>
     c58:	2301      	movs	r3, #1
     c5a:	4661      	mov	r1, ip
     c5c:	400b      	ands	r3, r1
     c5e:	2201      	movs	r2, #1
     c60:	2600      	movs	r6, #0
     c62:	e771      	b.n	b48 <__aeabi_fdiv+0x108>
     c64:	019e      	lsls	r6, r3, #6
     c66:	4662      	mov	r2, ip
     c68:	2301      	movs	r3, #1
     c6a:	4013      	ands	r3, r2
     c6c:	0a76      	lsrs	r6, r6, #9
     c6e:	2200      	movs	r2, #0
     c70:	e76a      	b.n	b48 <__aeabi_fdiv+0x108>
     c72:	2680      	movs	r6, #128	; 0x80
     c74:	03f6      	lsls	r6, r6, #15
     c76:	4326      	orrs	r6, r4
     c78:	0276      	lsls	r6, r6, #9
     c7a:	0a76      	lsrs	r6, r6, #9
     c7c:	4653      	mov	r3, sl
     c7e:	22ff      	movs	r2, #255	; 0xff
     c80:	e762      	b.n	b48 <__aeabi_fdiv+0x108>
     c82:	46c0      	nop			; (mov r8, r8)
     c84:	000061d8 	.word	0x000061d8
     c88:	f7ffffff 	.word	0xf7ffffff

00000c8c <__eqsf2>:
__nesf2():
     c8c:	024a      	lsls	r2, r1, #9
     c8e:	0243      	lsls	r3, r0, #9
     c90:	b570      	push	{r4, r5, r6, lr}
     c92:	0a5c      	lsrs	r4, r3, #9
     c94:	0a55      	lsrs	r5, r2, #9
     c96:	0043      	lsls	r3, r0, #1
     c98:	004a      	lsls	r2, r1, #1
     c9a:	0e1b      	lsrs	r3, r3, #24
     c9c:	0fc6      	lsrs	r6, r0, #31
     c9e:	0e12      	lsrs	r2, r2, #24
     ca0:	0fc9      	lsrs	r1, r1, #31
     ca2:	2bff      	cmp	r3, #255	; 0xff
     ca4:	d005      	beq.n	cb2 <__eqsf2+0x26>
     ca6:	2aff      	cmp	r2, #255	; 0xff
     ca8:	d008      	beq.n	cbc <__eqsf2+0x30>
     caa:	2001      	movs	r0, #1
     cac:	4293      	cmp	r3, r2
     cae:	d00b      	beq.n	cc8 <__eqsf2+0x3c>
     cb0:	bd70      	pop	{r4, r5, r6, pc}
     cb2:	2001      	movs	r0, #1
     cb4:	2c00      	cmp	r4, #0
     cb6:	d1fb      	bne.n	cb0 <__eqsf2+0x24>
     cb8:	2aff      	cmp	r2, #255	; 0xff
     cba:	d1f6      	bne.n	caa <__eqsf2+0x1e>
     cbc:	2001      	movs	r0, #1
     cbe:	2d00      	cmp	r5, #0
     cc0:	d1f6      	bne.n	cb0 <__eqsf2+0x24>
     cc2:	2001      	movs	r0, #1
     cc4:	4293      	cmp	r3, r2
     cc6:	d1f3      	bne.n	cb0 <__eqsf2+0x24>
     cc8:	42ac      	cmp	r4, r5
     cca:	d1f1      	bne.n	cb0 <__eqsf2+0x24>
     ccc:	428e      	cmp	r6, r1
     cce:	d005      	beq.n	cdc <__eqsf2+0x50>
     cd0:	2b00      	cmp	r3, #0
     cd2:	d1ed      	bne.n	cb0 <__eqsf2+0x24>
     cd4:	1c20      	adds	r0, r4, #0
     cd6:	1e44      	subs	r4, r0, #1
     cd8:	41a0      	sbcs	r0, r4
     cda:	e7e9      	b.n	cb0 <__eqsf2+0x24>
     cdc:	2000      	movs	r0, #0
     cde:	e7e7      	b.n	cb0 <__eqsf2+0x24>

00000ce0 <__gesf2>:
__gtsf2():
     ce0:	024a      	lsls	r2, r1, #9
     ce2:	0243      	lsls	r3, r0, #9
     ce4:	b5f0      	push	{r4, r5, r6, r7, lr}
     ce6:	0a5c      	lsrs	r4, r3, #9
     ce8:	0a55      	lsrs	r5, r2, #9
     cea:	0043      	lsls	r3, r0, #1
     cec:	004a      	lsls	r2, r1, #1
     cee:	0e1b      	lsrs	r3, r3, #24
     cf0:	0fc6      	lsrs	r6, r0, #31
     cf2:	0e12      	lsrs	r2, r2, #24
     cf4:	0fc9      	lsrs	r1, r1, #31
     cf6:	2bff      	cmp	r3, #255	; 0xff
     cf8:	d031      	beq.n	d5e <__gesf2+0x7e>
     cfa:	2aff      	cmp	r2, #255	; 0xff
     cfc:	d034      	beq.n	d68 <__gesf2+0x88>
     cfe:	2b00      	cmp	r3, #0
     d00:	d116      	bne.n	d30 <__gesf2+0x50>
     d02:	4260      	negs	r0, r4
     d04:	4160      	adcs	r0, r4
     d06:	4684      	mov	ip, r0
     d08:	2a00      	cmp	r2, #0
     d0a:	d014      	beq.n	d36 <__gesf2+0x56>
     d0c:	2800      	cmp	r0, #0
     d0e:	d120      	bne.n	d52 <__gesf2+0x72>
     d10:	428e      	cmp	r6, r1
     d12:	d117      	bne.n	d44 <__gesf2+0x64>
     d14:	4293      	cmp	r3, r2
     d16:	dc15      	bgt.n	d44 <__gesf2+0x64>
     d18:	db04      	blt.n	d24 <__gesf2+0x44>
     d1a:	42ac      	cmp	r4, r5
     d1c:	d812      	bhi.n	d44 <__gesf2+0x64>
     d1e:	2000      	movs	r0, #0
     d20:	42ac      	cmp	r4, r5
     d22:	d212      	bcs.n	d4a <__gesf2+0x6a>
     d24:	4270      	negs	r0, r6
     d26:	4170      	adcs	r0, r6
     d28:	4240      	negs	r0, r0
     d2a:	2301      	movs	r3, #1
     d2c:	4318      	orrs	r0, r3
     d2e:	e00c      	b.n	d4a <__gesf2+0x6a>
     d30:	2a00      	cmp	r2, #0
     d32:	d1ed      	bne.n	d10 <__gesf2+0x30>
     d34:	4694      	mov	ip, r2
     d36:	426f      	negs	r7, r5
     d38:	416f      	adcs	r7, r5
     d3a:	4660      	mov	r0, ip
     d3c:	2800      	cmp	r0, #0
     d3e:	d105      	bne.n	d4c <__gesf2+0x6c>
     d40:	2f00      	cmp	r7, #0
     d42:	d0e5      	beq.n	d10 <__gesf2+0x30>
     d44:	4270      	negs	r0, r6
     d46:	2301      	movs	r3, #1
     d48:	4318      	orrs	r0, r3
     d4a:	bdf0      	pop	{r4, r5, r6, r7, pc}
     d4c:	2000      	movs	r0, #0
     d4e:	2f00      	cmp	r7, #0
     d50:	d1fb      	bne.n	d4a <__gesf2+0x6a>
     d52:	4248      	negs	r0, r1
     d54:	4148      	adcs	r0, r1
     d56:	4240      	negs	r0, r0
     d58:	2301      	movs	r3, #1
     d5a:	4318      	orrs	r0, r3
     d5c:	e7f5      	b.n	d4a <__gesf2+0x6a>
     d5e:	2c00      	cmp	r4, #0
     d60:	d0cb      	beq.n	cfa <__gesf2+0x1a>
     d62:	2002      	movs	r0, #2
     d64:	4240      	negs	r0, r0
     d66:	e7f0      	b.n	d4a <__gesf2+0x6a>
     d68:	2d00      	cmp	r5, #0
     d6a:	d0c8      	beq.n	cfe <__gesf2+0x1e>
     d6c:	e7f9      	b.n	d62 <__gesf2+0x82>
     d6e:	46c0      	nop			; (mov r8, r8)

00000d70 <__lesf2>:
__lesf2():
     d70:	024a      	lsls	r2, r1, #9
     d72:	0243      	lsls	r3, r0, #9
     d74:	b5f0      	push	{r4, r5, r6, r7, lr}
     d76:	0a5c      	lsrs	r4, r3, #9
     d78:	0a55      	lsrs	r5, r2, #9
     d7a:	0043      	lsls	r3, r0, #1
     d7c:	004a      	lsls	r2, r1, #1
     d7e:	0e1b      	lsrs	r3, r3, #24
     d80:	0fc6      	lsrs	r6, r0, #31
     d82:	0e12      	lsrs	r2, r2, #24
     d84:	0fc9      	lsrs	r1, r1, #31
     d86:	2bff      	cmp	r3, #255	; 0xff
     d88:	d027      	beq.n	dda <__lesf2+0x6a>
     d8a:	2aff      	cmp	r2, #255	; 0xff
     d8c:	d029      	beq.n	de2 <__lesf2+0x72>
     d8e:	2b00      	cmp	r3, #0
     d90:	d010      	beq.n	db4 <__lesf2+0x44>
     d92:	2a00      	cmp	r2, #0
     d94:	d115      	bne.n	dc2 <__lesf2+0x52>
     d96:	4694      	mov	ip, r2
     d98:	426f      	negs	r7, r5
     d9a:	416f      	adcs	r7, r5
     d9c:	4660      	mov	r0, ip
     d9e:	2800      	cmp	r0, #0
     da0:	d015      	beq.n	dce <__lesf2+0x5e>
     da2:	2000      	movs	r0, #0
     da4:	2f00      	cmp	r7, #0
     da6:	d104      	bne.n	db2 <__lesf2+0x42>
     da8:	4248      	negs	r0, r1
     daa:	4148      	adcs	r0, r1
     dac:	4240      	negs	r0, r0
     dae:	2301      	movs	r3, #1
     db0:	4318      	orrs	r0, r3
     db2:	bdf0      	pop	{r4, r5, r6, r7, pc}
     db4:	4260      	negs	r0, r4
     db6:	4160      	adcs	r0, r4
     db8:	4684      	mov	ip, r0
     dba:	2a00      	cmp	r2, #0
     dbc:	d0ec      	beq.n	d98 <__lesf2+0x28>
     dbe:	2800      	cmp	r0, #0
     dc0:	d1f2      	bne.n	da8 <__lesf2+0x38>
     dc2:	428e      	cmp	r6, r1
     dc4:	d011      	beq.n	dea <__lesf2+0x7a>
     dc6:	4270      	negs	r0, r6
     dc8:	2301      	movs	r3, #1
     dca:	4318      	orrs	r0, r3
     dcc:	e7f1      	b.n	db2 <__lesf2+0x42>
     dce:	2f00      	cmp	r7, #0
     dd0:	d0f7      	beq.n	dc2 <__lesf2+0x52>
     dd2:	4270      	negs	r0, r6
     dd4:	2301      	movs	r3, #1
     dd6:	4318      	orrs	r0, r3
     dd8:	e7eb      	b.n	db2 <__lesf2+0x42>
     dda:	2002      	movs	r0, #2
     ddc:	2c00      	cmp	r4, #0
     dde:	d1e8      	bne.n	db2 <__lesf2+0x42>
     de0:	e7d3      	b.n	d8a <__lesf2+0x1a>
     de2:	2002      	movs	r0, #2
     de4:	2d00      	cmp	r5, #0
     de6:	d1e4      	bne.n	db2 <__lesf2+0x42>
     de8:	e7d1      	b.n	d8e <__lesf2+0x1e>
     dea:	4293      	cmp	r3, r2
     dec:	dceb      	bgt.n	dc6 <__lesf2+0x56>
     dee:	db04      	blt.n	dfa <__lesf2+0x8a>
     df0:	42ac      	cmp	r4, r5
     df2:	d8e8      	bhi.n	dc6 <__lesf2+0x56>
     df4:	2000      	movs	r0, #0
     df6:	42ac      	cmp	r4, r5
     df8:	d2db      	bcs.n	db2 <__lesf2+0x42>
     dfa:	4270      	negs	r0, r6
     dfc:	4170      	adcs	r0, r6
     dfe:	4240      	negs	r0, r0
     e00:	2301      	movs	r3, #1
     e02:	4318      	orrs	r0, r3
     e04:	e7d5      	b.n	db2 <__lesf2+0x42>
     e06:	46c0      	nop			; (mov r8, r8)

00000e08 <__aeabi_fmul>:
__aeabi_fmul():
     e08:	b5f0      	push	{r4, r5, r6, r7, lr}
     e0a:	465f      	mov	r7, fp
     e0c:	4656      	mov	r6, sl
     e0e:	464d      	mov	r5, r9
     e10:	4644      	mov	r4, r8
     e12:	b4f0      	push	{r4, r5, r6, r7}
     e14:	0244      	lsls	r4, r0, #9
     e16:	0046      	lsls	r6, r0, #1
     e18:	b083      	sub	sp, #12
     e1a:	1c0f      	adds	r7, r1, #0
     e1c:	0a64      	lsrs	r4, r4, #9
     e1e:	0e36      	lsrs	r6, r6, #24
     e20:	0fc5      	lsrs	r5, r0, #31
     e22:	2e00      	cmp	r6, #0
     e24:	d041      	beq.n	eaa <__aeabi_fmul+0xa2>
     e26:	2eff      	cmp	r6, #255	; 0xff
     e28:	d022      	beq.n	e70 <__aeabi_fmul+0x68>
     e2a:	2380      	movs	r3, #128	; 0x80
     e2c:	041b      	lsls	r3, r3, #16
     e2e:	2000      	movs	r0, #0
     e30:	431c      	orrs	r4, r3
     e32:	00e4      	lsls	r4, r4, #3
     e34:	3e7f      	subs	r6, #127	; 0x7f
     e36:	4682      	mov	sl, r0
     e38:	4680      	mov	r8, r0
     e3a:	1c39      	adds	r1, r7, #0
     e3c:	004b      	lsls	r3, r1, #1
     e3e:	027f      	lsls	r7, r7, #9
     e40:	0fc9      	lsrs	r1, r1, #31
     e42:	0a7f      	lsrs	r7, r7, #9
     e44:	0e1b      	lsrs	r3, r3, #24
     e46:	468b      	mov	fp, r1
     e48:	d03b      	beq.n	ec2 <__aeabi_fmul+0xba>
     e4a:	2bff      	cmp	r3, #255	; 0xff
     e4c:	d034      	beq.n	eb8 <__aeabi_fmul+0xb0>
     e4e:	2280      	movs	r2, #128	; 0x80
     e50:	0412      	lsls	r2, r2, #16
     e52:	4317      	orrs	r7, r2
     e54:	00ff      	lsls	r7, r7, #3
     e56:	3b7f      	subs	r3, #127	; 0x7f
     e58:	2100      	movs	r1, #0
     e5a:	465a      	mov	r2, fp
     e5c:	406a      	eors	r2, r5
     e5e:	9201      	str	r2, [sp, #4]
     e60:	4652      	mov	r2, sl
     e62:	430a      	orrs	r2, r1
     e64:	2a0f      	cmp	r2, #15
     e66:	d863      	bhi.n	f30 <__aeabi_fmul+0x128>
     e68:	487a      	ldr	r0, [pc, #488]	; (1054 <__aeabi_fmul+0x24c>)
     e6a:	0092      	lsls	r2, r2, #2
     e6c:	5882      	ldr	r2, [r0, r2]
     e6e:	4697      	mov	pc, r2
     e70:	2c00      	cmp	r4, #0
     e72:	d13f      	bne.n	ef4 <__aeabi_fmul+0xec>
     e74:	2208      	movs	r2, #8
     e76:	2302      	movs	r3, #2
     e78:	4692      	mov	sl, r2
     e7a:	4698      	mov	r8, r3
     e7c:	e7dd      	b.n	e3a <__aeabi_fmul+0x32>
     e7e:	9501      	str	r5, [sp, #4]
     e80:	4640      	mov	r0, r8
     e82:	2802      	cmp	r0, #2
     e84:	d12a      	bne.n	edc <__aeabi_fmul+0xd4>
     e86:	9a01      	ldr	r2, [sp, #4]
     e88:	2501      	movs	r5, #1
     e8a:	4015      	ands	r5, r2
     e8c:	23ff      	movs	r3, #255	; 0xff
     e8e:	2400      	movs	r4, #0
     e90:	0264      	lsls	r4, r4, #9
     e92:	05db      	lsls	r3, r3, #23
     e94:	0a60      	lsrs	r0, r4, #9
     e96:	07ed      	lsls	r5, r5, #31
     e98:	4318      	orrs	r0, r3
     e9a:	4328      	orrs	r0, r5
     e9c:	b003      	add	sp, #12
     e9e:	bc3c      	pop	{r2, r3, r4, r5}
     ea0:	4690      	mov	r8, r2
     ea2:	4699      	mov	r9, r3
     ea4:	46a2      	mov	sl, r4
     ea6:	46ab      	mov	fp, r5
     ea8:	bdf0      	pop	{r4, r5, r6, r7, pc}
     eaa:	2c00      	cmp	r4, #0
     eac:	d127      	bne.n	efe <__aeabi_fmul+0xf6>
     eae:	2004      	movs	r0, #4
     eb0:	2201      	movs	r2, #1
     eb2:	4682      	mov	sl, r0
     eb4:	4690      	mov	r8, r2
     eb6:	e7c0      	b.n	e3a <__aeabi_fmul+0x32>
     eb8:	1c39      	adds	r1, r7, #0
     eba:	1e4a      	subs	r2, r1, #1
     ebc:	4191      	sbcs	r1, r2
     ebe:	3102      	adds	r1, #2
     ec0:	e7cb      	b.n	e5a <__aeabi_fmul+0x52>
     ec2:	2101      	movs	r1, #1
     ec4:	2f00      	cmp	r7, #0
     ec6:	d0c8      	beq.n	e5a <__aeabi_fmul+0x52>
     ec8:	1c38      	adds	r0, r7, #0
     eca:	f002 f9a9 	bl	3220 <__clzsi2>
     ece:	1f43      	subs	r3, r0, #5
     ed0:	409f      	lsls	r7, r3
     ed2:	2376      	movs	r3, #118	; 0x76
     ed4:	425b      	negs	r3, r3
     ed6:	1a1b      	subs	r3, r3, r0
     ed8:	2100      	movs	r1, #0
     eda:	e7be      	b.n	e5a <__aeabi_fmul+0x52>
     edc:	2803      	cmp	r0, #3
     ede:	d100      	bne.n	ee2 <__aeabi_fmul+0xda>
     ee0:	e0ae      	b.n	1040 <__aeabi_fmul+0x238>
     ee2:	2801      	cmp	r0, #1
     ee4:	d14f      	bne.n	f86 <__aeabi_fmul+0x17e>
     ee6:	9801      	ldr	r0, [sp, #4]
     ee8:	4642      	mov	r2, r8
     eea:	4010      	ands	r0, r2
     eec:	b2c5      	uxtb	r5, r0
     eee:	2300      	movs	r3, #0
     ef0:	2400      	movs	r4, #0
     ef2:	e7cd      	b.n	e90 <__aeabi_fmul+0x88>
     ef4:	230c      	movs	r3, #12
     ef6:	2003      	movs	r0, #3
     ef8:	469a      	mov	sl, r3
     efa:	4680      	mov	r8, r0
     efc:	e79d      	b.n	e3a <__aeabi_fmul+0x32>
     efe:	1c20      	adds	r0, r4, #0
     f00:	f002 f98e 	bl	3220 <__clzsi2>
     f04:	2676      	movs	r6, #118	; 0x76
     f06:	1f43      	subs	r3, r0, #5
     f08:	409c      	lsls	r4, r3
     f0a:	4276      	negs	r6, r6
     f0c:	2300      	movs	r3, #0
     f0e:	1a36      	subs	r6, r6, r0
     f10:	469a      	mov	sl, r3
     f12:	4698      	mov	r8, r3
     f14:	e791      	b.n	e3a <__aeabi_fmul+0x32>
     f16:	2480      	movs	r4, #128	; 0x80
     f18:	2500      	movs	r5, #0
     f1a:	03e4      	lsls	r4, r4, #15
     f1c:	23ff      	movs	r3, #255	; 0xff
     f1e:	e7b7      	b.n	e90 <__aeabi_fmul+0x88>
     f20:	465b      	mov	r3, fp
     f22:	1c3c      	adds	r4, r7, #0
     f24:	9301      	str	r3, [sp, #4]
     f26:	4688      	mov	r8, r1
     f28:	e7aa      	b.n	e80 <__aeabi_fmul+0x78>
     f2a:	1c3c      	adds	r4, r7, #0
     f2c:	4688      	mov	r8, r1
     f2e:	e7a7      	b.n	e80 <__aeabi_fmul+0x78>
     f30:	0c25      	lsrs	r5, r4, #16
     f32:	0424      	lsls	r4, r4, #16
     f34:	0c3a      	lsrs	r2, r7, #16
     f36:	0c24      	lsrs	r4, r4, #16
     f38:	043f      	lsls	r7, r7, #16
     f3a:	18f6      	adds	r6, r6, r3
     f3c:	0c3f      	lsrs	r7, r7, #16
     f3e:	1c21      	adds	r1, r4, #0
     f40:	1c23      	adds	r3, r4, #0
     f42:	4379      	muls	r1, r7
     f44:	4353      	muls	r3, r2
     f46:	436f      	muls	r7, r5
     f48:	4355      	muls	r5, r2
     f4a:	18fb      	adds	r3, r7, r3
     f4c:	0c0a      	lsrs	r2, r1, #16
     f4e:	189b      	adds	r3, r3, r2
     f50:	46b1      	mov	r9, r6
     f52:	429f      	cmp	r7, r3
     f54:	d902      	bls.n	f5c <__aeabi_fmul+0x154>
     f56:	2280      	movs	r2, #128	; 0x80
     f58:	0252      	lsls	r2, r2, #9
     f5a:	18ad      	adds	r5, r5, r2
     f5c:	0409      	lsls	r1, r1, #16
     f5e:	041a      	lsls	r2, r3, #16
     f60:	0c09      	lsrs	r1, r1, #16
     f62:	1852      	adds	r2, r2, r1
     f64:	0194      	lsls	r4, r2, #6
     f66:	0c1b      	lsrs	r3, r3, #16
     f68:	1e61      	subs	r1, r4, #1
     f6a:	418c      	sbcs	r4, r1
     f6c:	0e92      	lsrs	r2, r2, #26
     f6e:	18ed      	adds	r5, r5, r3
     f70:	4314      	orrs	r4, r2
     f72:	01ad      	lsls	r5, r5, #6
     f74:	432c      	orrs	r4, r5
     f76:	0123      	lsls	r3, r4, #4
     f78:	d505      	bpl.n	f86 <__aeabi_fmul+0x17e>
     f7a:	2201      	movs	r2, #1
     f7c:	0863      	lsrs	r3, r4, #1
     f7e:	2001      	movs	r0, #1
     f80:	4014      	ands	r4, r2
     f82:	4481      	add	r9, r0
     f84:	431c      	orrs	r4, r3
     f86:	464b      	mov	r3, r9
     f88:	337f      	adds	r3, #127	; 0x7f
     f8a:	2b00      	cmp	r3, #0
     f8c:	dd2d      	ble.n	fea <__aeabi_fmul+0x1e2>
     f8e:	0760      	lsls	r0, r4, #29
     f90:	d004      	beq.n	f9c <__aeabi_fmul+0x194>
     f92:	220f      	movs	r2, #15
     f94:	4022      	ands	r2, r4
     f96:	2a04      	cmp	r2, #4
     f98:	d000      	beq.n	f9c <__aeabi_fmul+0x194>
     f9a:	3404      	adds	r4, #4
     f9c:	0122      	lsls	r2, r4, #4
     f9e:	d503      	bpl.n	fa8 <__aeabi_fmul+0x1a0>
     fa0:	4b2d      	ldr	r3, [pc, #180]	; (1058 <__aeabi_fmul+0x250>)
     fa2:	401c      	ands	r4, r3
     fa4:	464b      	mov	r3, r9
     fa6:	3380      	adds	r3, #128	; 0x80
     fa8:	2bfe      	cmp	r3, #254	; 0xfe
     faa:	dd17      	ble.n	fdc <__aeabi_fmul+0x1d4>
     fac:	9b01      	ldr	r3, [sp, #4]
     fae:	2501      	movs	r5, #1
     fb0:	401d      	ands	r5, r3
     fb2:	2400      	movs	r4, #0
     fb4:	23ff      	movs	r3, #255	; 0xff
     fb6:	e76b      	b.n	e90 <__aeabi_fmul+0x88>
     fb8:	2080      	movs	r0, #128	; 0x80
     fba:	03c0      	lsls	r0, r0, #15
     fbc:	4204      	tst	r4, r0
     fbe:	d008      	beq.n	fd2 <__aeabi_fmul+0x1ca>
     fc0:	4207      	tst	r7, r0
     fc2:	d106      	bne.n	fd2 <__aeabi_fmul+0x1ca>
     fc4:	1c04      	adds	r4, r0, #0
     fc6:	433c      	orrs	r4, r7
     fc8:	0264      	lsls	r4, r4, #9
     fca:	0a64      	lsrs	r4, r4, #9
     fcc:	465d      	mov	r5, fp
     fce:	23ff      	movs	r3, #255	; 0xff
     fd0:	e75e      	b.n	e90 <__aeabi_fmul+0x88>
     fd2:	4304      	orrs	r4, r0
     fd4:	0264      	lsls	r4, r4, #9
     fd6:	0a64      	lsrs	r4, r4, #9
     fd8:	23ff      	movs	r3, #255	; 0xff
     fda:	e759      	b.n	e90 <__aeabi_fmul+0x88>
     fdc:	9801      	ldr	r0, [sp, #4]
     fde:	01a4      	lsls	r4, r4, #6
     fe0:	2501      	movs	r5, #1
     fe2:	0a64      	lsrs	r4, r4, #9
     fe4:	b2db      	uxtb	r3, r3
     fe6:	4005      	ands	r5, r0
     fe8:	e752      	b.n	e90 <__aeabi_fmul+0x88>
     fea:	237e      	movs	r3, #126	; 0x7e
     fec:	425b      	negs	r3, r3
     fee:	464a      	mov	r2, r9
     ff0:	1a9b      	subs	r3, r3, r2
     ff2:	2b1b      	cmp	r3, #27
     ff4:	dd05      	ble.n	1002 <__aeabi_fmul+0x1fa>
     ff6:	9b01      	ldr	r3, [sp, #4]
     ff8:	2501      	movs	r5, #1
     ffa:	401d      	ands	r5, r3
     ffc:	2400      	movs	r4, #0
     ffe:	2300      	movs	r3, #0
    1000:	e746      	b.n	e90 <__aeabi_fmul+0x88>
    1002:	1c22      	adds	r2, r4, #0
    1004:	40da      	lsrs	r2, r3
    1006:	464b      	mov	r3, r9
    1008:	339e      	adds	r3, #158	; 0x9e
    100a:	409c      	lsls	r4, r3
    100c:	1c23      	adds	r3, r4, #0
    100e:	1e5c      	subs	r4, r3, #1
    1010:	41a3      	sbcs	r3, r4
    1012:	4313      	orrs	r3, r2
    1014:	0758      	lsls	r0, r3, #29
    1016:	d004      	beq.n	1022 <__aeabi_fmul+0x21a>
    1018:	220f      	movs	r2, #15
    101a:	401a      	ands	r2, r3
    101c:	2a04      	cmp	r2, #4
    101e:	d000      	beq.n	1022 <__aeabi_fmul+0x21a>
    1020:	3304      	adds	r3, #4
    1022:	015a      	lsls	r2, r3, #5
    1024:	d505      	bpl.n	1032 <__aeabi_fmul+0x22a>
    1026:	9b01      	ldr	r3, [sp, #4]
    1028:	2501      	movs	r5, #1
    102a:	401d      	ands	r5, r3
    102c:	2400      	movs	r4, #0
    102e:	2301      	movs	r3, #1
    1030:	e72e      	b.n	e90 <__aeabi_fmul+0x88>
    1032:	9801      	ldr	r0, [sp, #4]
    1034:	019c      	lsls	r4, r3, #6
    1036:	2501      	movs	r5, #1
    1038:	0a64      	lsrs	r4, r4, #9
    103a:	4005      	ands	r5, r0
    103c:	2300      	movs	r3, #0
    103e:	e727      	b.n	e90 <__aeabi_fmul+0x88>
    1040:	2780      	movs	r7, #128	; 0x80
    1042:	03ff      	lsls	r7, r7, #15
    1044:	9b01      	ldr	r3, [sp, #4]
    1046:	433c      	orrs	r4, r7
    1048:	0264      	lsls	r4, r4, #9
    104a:	2501      	movs	r5, #1
    104c:	401d      	ands	r5, r3
    104e:	0a64      	lsrs	r4, r4, #9
    1050:	23ff      	movs	r3, #255	; 0xff
    1052:	e71d      	b.n	e90 <__aeabi_fmul+0x88>
    1054:	00006218 	.word	0x00006218
    1058:	f7ffffff 	.word	0xf7ffffff

0000105c <__aeabi_fsub>:
__aeabi_fsub():
    105c:	b5f8      	push	{r3, r4, r5, r6, r7, lr}
    105e:	0fc2      	lsrs	r2, r0, #31
    1060:	0243      	lsls	r3, r0, #9
    1062:	0044      	lsls	r4, r0, #1
    1064:	024d      	lsls	r5, r1, #9
    1066:	0048      	lsls	r0, r1, #1
    1068:	0e24      	lsrs	r4, r4, #24
    106a:	1c16      	adds	r6, r2, #0
    106c:	099b      	lsrs	r3, r3, #6
    106e:	0e00      	lsrs	r0, r0, #24
    1070:	0fc9      	lsrs	r1, r1, #31
    1072:	09ad      	lsrs	r5, r5, #6
    1074:	28ff      	cmp	r0, #255	; 0xff
    1076:	d100      	bne.n	107a <__aeabi_fsub+0x1e>
    1078:	e083      	b.n	1182 <__aeabi_fsub+0x126>
    107a:	2701      	movs	r7, #1
    107c:	4079      	eors	r1, r7
    107e:	428a      	cmp	r2, r1
    1080:	d05c      	beq.n	113c <__aeabi_fsub+0xe0>
    1082:	1a22      	subs	r2, r4, r0
    1084:	2a00      	cmp	r2, #0
    1086:	dc00      	bgt.n	108a <__aeabi_fsub+0x2e>
    1088:	e08e      	b.n	11a8 <__aeabi_fsub+0x14c>
    108a:	2800      	cmp	r0, #0
    108c:	d11e      	bne.n	10cc <__aeabi_fsub+0x70>
    108e:	2d00      	cmp	r5, #0
    1090:	d000      	beq.n	1094 <__aeabi_fsub+0x38>
    1092:	e07a      	b.n	118a <__aeabi_fsub+0x12e>
    1094:	0758      	lsls	r0, r3, #29
    1096:	d004      	beq.n	10a2 <__aeabi_fsub+0x46>
    1098:	220f      	movs	r2, #15
    109a:	401a      	ands	r2, r3
    109c:	2a04      	cmp	r2, #4
    109e:	d000      	beq.n	10a2 <__aeabi_fsub+0x46>
    10a0:	3304      	adds	r3, #4
    10a2:	2180      	movs	r1, #128	; 0x80
    10a4:	04c9      	lsls	r1, r1, #19
    10a6:	2201      	movs	r2, #1
    10a8:	4019      	ands	r1, r3
    10aa:	4032      	ands	r2, r6
    10ac:	2900      	cmp	r1, #0
    10ae:	d03a      	beq.n	1126 <__aeabi_fsub+0xca>
    10b0:	3401      	adds	r4, #1
    10b2:	2cff      	cmp	r4, #255	; 0xff
    10b4:	d100      	bne.n	10b8 <__aeabi_fsub+0x5c>
    10b6:	e083      	b.n	11c0 <__aeabi_fsub+0x164>
    10b8:	019b      	lsls	r3, r3, #6
    10ba:	0a5b      	lsrs	r3, r3, #9
    10bc:	025b      	lsls	r3, r3, #9
    10be:	b2e4      	uxtb	r4, r4
    10c0:	05e4      	lsls	r4, r4, #23
    10c2:	0a58      	lsrs	r0, r3, #9
    10c4:	07d2      	lsls	r2, r2, #31
    10c6:	4320      	orrs	r0, r4
    10c8:	4310      	orrs	r0, r2
    10ca:	bdf8      	pop	{r3, r4, r5, r6, r7, pc}
    10cc:	2cff      	cmp	r4, #255	; 0xff
    10ce:	d0e1      	beq.n	1094 <__aeabi_fsub+0x38>
    10d0:	2180      	movs	r1, #128	; 0x80
    10d2:	04c9      	lsls	r1, r1, #19
    10d4:	430d      	orrs	r5, r1
    10d6:	2a1b      	cmp	r2, #27
    10d8:	dd00      	ble.n	10dc <__aeabi_fsub+0x80>
    10da:	e131      	b.n	1340 <__aeabi_fsub+0x2e4>
    10dc:	1c29      	adds	r1, r5, #0
    10de:	2020      	movs	r0, #32
    10e0:	40d1      	lsrs	r1, r2
    10e2:	1a82      	subs	r2, r0, r2
    10e4:	4095      	lsls	r5, r2
    10e6:	1e6a      	subs	r2, r5, #1
    10e8:	4195      	sbcs	r5, r2
    10ea:	430d      	orrs	r5, r1
    10ec:	1b5b      	subs	r3, r3, r5
    10ee:	0158      	lsls	r0, r3, #5
    10f0:	d5d0      	bpl.n	1094 <__aeabi_fsub+0x38>
    10f2:	019b      	lsls	r3, r3, #6
    10f4:	099f      	lsrs	r7, r3, #6
    10f6:	1c38      	adds	r0, r7, #0
    10f8:	f002 f892 	bl	3220 <__clzsi2>
    10fc:	1f42      	subs	r2, r0, #5
    10fe:	4097      	lsls	r7, r2
    1100:	4294      	cmp	r4, r2
    1102:	dc5f      	bgt.n	11c4 <__aeabi_fsub+0x168>
    1104:	1b14      	subs	r4, r2, r4
    1106:	231f      	movs	r3, #31
    1108:	1b1b      	subs	r3, r3, r4
    110a:	1c3a      	adds	r2, r7, #0
    110c:	409f      	lsls	r7, r3
    110e:	1c61      	adds	r1, r4, #1
    1110:	1c3b      	adds	r3, r7, #0
    1112:	40ca      	lsrs	r2, r1
    1114:	1e5f      	subs	r7, r3, #1
    1116:	41bb      	sbcs	r3, r7
    1118:	4313      	orrs	r3, r2
    111a:	2400      	movs	r4, #0
    111c:	e7ba      	b.n	1094 <__aeabi_fsub+0x38>
    111e:	1e13      	subs	r3, r2, #0
    1120:	d1b8      	bne.n	1094 <__aeabi_fsub+0x38>
    1122:	2300      	movs	r3, #0
    1124:	2200      	movs	r2, #0
    1126:	08db      	lsrs	r3, r3, #3
    1128:	2cff      	cmp	r4, #255	; 0xff
    112a:	d104      	bne.n	1136 <__aeabi_fsub+0xda>
    112c:	2b00      	cmp	r3, #0
    112e:	d047      	beq.n	11c0 <__aeabi_fsub+0x164>
    1130:	2080      	movs	r0, #128	; 0x80
    1132:	03c0      	lsls	r0, r0, #15
    1134:	4303      	orrs	r3, r0
    1136:	025b      	lsls	r3, r3, #9
    1138:	0a5b      	lsrs	r3, r3, #9
    113a:	e7bf      	b.n	10bc <__aeabi_fsub+0x60>
    113c:	1a21      	subs	r1, r4, r0
    113e:	2900      	cmp	r1, #0
    1140:	dd44      	ble.n	11cc <__aeabi_fsub+0x170>
    1142:	2800      	cmp	r0, #0
    1144:	d027      	beq.n	1196 <__aeabi_fsub+0x13a>
    1146:	2cff      	cmp	r4, #255	; 0xff
    1148:	d0a4      	beq.n	1094 <__aeabi_fsub+0x38>
    114a:	2080      	movs	r0, #128	; 0x80
    114c:	04c0      	lsls	r0, r0, #19
    114e:	4305      	orrs	r5, r0
    1150:	291b      	cmp	r1, #27
    1152:	dd00      	ble.n	1156 <__aeabi_fsub+0xfa>
    1154:	e0f2      	b.n	133c <__aeabi_fsub+0x2e0>
    1156:	1c28      	adds	r0, r5, #0
    1158:	2720      	movs	r7, #32
    115a:	40c8      	lsrs	r0, r1
    115c:	1a79      	subs	r1, r7, r1
    115e:	408d      	lsls	r5, r1
    1160:	1e69      	subs	r1, r5, #1
    1162:	418d      	sbcs	r5, r1
    1164:	4305      	orrs	r5, r0
    1166:	195b      	adds	r3, r3, r5
    1168:	0159      	lsls	r1, r3, #5
    116a:	d400      	bmi.n	116e <__aeabi_fsub+0x112>
    116c:	e792      	b.n	1094 <__aeabi_fsub+0x38>
    116e:	3401      	adds	r4, #1
    1170:	2cff      	cmp	r4, #255	; 0xff
    1172:	d059      	beq.n	1228 <__aeabi_fsub+0x1cc>
    1174:	4973      	ldr	r1, [pc, #460]	; (1344 <__aeabi_fsub+0x2e8>)
    1176:	2201      	movs	r2, #1
    1178:	401a      	ands	r2, r3
    117a:	400b      	ands	r3, r1
    117c:	085b      	lsrs	r3, r3, #1
    117e:	4313      	orrs	r3, r2
    1180:	e788      	b.n	1094 <__aeabi_fsub+0x38>
    1182:	2d00      	cmp	r5, #0
    1184:	d000      	beq.n	1188 <__aeabi_fsub+0x12c>
    1186:	e77a      	b.n	107e <__aeabi_fsub+0x22>
    1188:	e777      	b.n	107a <__aeabi_fsub+0x1e>
    118a:	3a01      	subs	r2, #1
    118c:	2a00      	cmp	r2, #0
    118e:	d0ad      	beq.n	10ec <__aeabi_fsub+0x90>
    1190:	2cff      	cmp	r4, #255	; 0xff
    1192:	d1a0      	bne.n	10d6 <__aeabi_fsub+0x7a>
    1194:	e77e      	b.n	1094 <__aeabi_fsub+0x38>
    1196:	2d00      	cmp	r5, #0
    1198:	d100      	bne.n	119c <__aeabi_fsub+0x140>
    119a:	e77b      	b.n	1094 <__aeabi_fsub+0x38>
    119c:	3901      	subs	r1, #1
    119e:	2900      	cmp	r1, #0
    11a0:	d0e1      	beq.n	1166 <__aeabi_fsub+0x10a>
    11a2:	2cff      	cmp	r4, #255	; 0xff
    11a4:	d1d4      	bne.n	1150 <__aeabi_fsub+0xf4>
    11a6:	e775      	b.n	1094 <__aeabi_fsub+0x38>
    11a8:	2a00      	cmp	r2, #0
    11aa:	d11b      	bne.n	11e4 <__aeabi_fsub+0x188>
    11ac:	1c62      	adds	r2, r4, #1
    11ae:	b2d2      	uxtb	r2, r2
    11b0:	2a01      	cmp	r2, #1
    11b2:	dd4b      	ble.n	124c <__aeabi_fsub+0x1f0>
    11b4:	1b5f      	subs	r7, r3, r5
    11b6:	017a      	lsls	r2, r7, #5
    11b8:	d523      	bpl.n	1202 <__aeabi_fsub+0x1a6>
    11ba:	1aef      	subs	r7, r5, r3
    11bc:	1c0e      	adds	r6, r1, #0
    11be:	e79a      	b.n	10f6 <__aeabi_fsub+0x9a>
    11c0:	2300      	movs	r3, #0
    11c2:	e77b      	b.n	10bc <__aeabi_fsub+0x60>
    11c4:	4b5f      	ldr	r3, [pc, #380]	; (1344 <__aeabi_fsub+0x2e8>)
    11c6:	1aa4      	subs	r4, r4, r2
    11c8:	403b      	ands	r3, r7
    11ca:	e763      	b.n	1094 <__aeabi_fsub+0x38>
    11cc:	2900      	cmp	r1, #0
    11ce:	d146      	bne.n	125e <__aeabi_fsub+0x202>
    11d0:	1c61      	adds	r1, r4, #1
    11d2:	b2c8      	uxtb	r0, r1
    11d4:	2801      	cmp	r0, #1
    11d6:	dd29      	ble.n	122c <__aeabi_fsub+0x1d0>
    11d8:	29ff      	cmp	r1, #255	; 0xff
    11da:	d024      	beq.n	1226 <__aeabi_fsub+0x1ca>
    11dc:	18eb      	adds	r3, r5, r3
    11de:	085b      	lsrs	r3, r3, #1
    11e0:	1c0c      	adds	r4, r1, #0
    11e2:	e757      	b.n	1094 <__aeabi_fsub+0x38>
    11e4:	2c00      	cmp	r4, #0
    11e6:	d013      	beq.n	1210 <__aeabi_fsub+0x1b4>
    11e8:	28ff      	cmp	r0, #255	; 0xff
    11ea:	d018      	beq.n	121e <__aeabi_fsub+0x1c2>
    11ec:	2480      	movs	r4, #128	; 0x80
    11ee:	04e4      	lsls	r4, r4, #19
    11f0:	4252      	negs	r2, r2
    11f2:	4323      	orrs	r3, r4
    11f4:	2a1b      	cmp	r2, #27
    11f6:	dd4d      	ble.n	1294 <__aeabi_fsub+0x238>
    11f8:	2301      	movs	r3, #1
    11fa:	1aeb      	subs	r3, r5, r3
    11fc:	1c04      	adds	r4, r0, #0
    11fe:	1c0e      	adds	r6, r1, #0
    1200:	e775      	b.n	10ee <__aeabi_fsub+0x92>
    1202:	2f00      	cmp	r7, #0
    1204:	d000      	beq.n	1208 <__aeabi_fsub+0x1ac>
    1206:	e776      	b.n	10f6 <__aeabi_fsub+0x9a>
    1208:	2300      	movs	r3, #0
    120a:	2200      	movs	r2, #0
    120c:	2400      	movs	r4, #0
    120e:	e78a      	b.n	1126 <__aeabi_fsub+0xca>
    1210:	2b00      	cmp	r3, #0
    1212:	d03b      	beq.n	128c <__aeabi_fsub+0x230>
    1214:	43d2      	mvns	r2, r2
    1216:	2a00      	cmp	r2, #0
    1218:	d0ef      	beq.n	11fa <__aeabi_fsub+0x19e>
    121a:	28ff      	cmp	r0, #255	; 0xff
    121c:	d1ea      	bne.n	11f4 <__aeabi_fsub+0x198>
    121e:	1c2b      	adds	r3, r5, #0
    1220:	24ff      	movs	r4, #255	; 0xff
    1222:	1c0e      	adds	r6, r1, #0
    1224:	e736      	b.n	1094 <__aeabi_fsub+0x38>
    1226:	24ff      	movs	r4, #255	; 0xff
    1228:	2300      	movs	r3, #0
    122a:	e77c      	b.n	1126 <__aeabi_fsub+0xca>
    122c:	2c00      	cmp	r4, #0
    122e:	d15c      	bne.n	12ea <__aeabi_fsub+0x28e>
    1230:	2b00      	cmp	r3, #0
    1232:	d100      	bne.n	1236 <__aeabi_fsub+0x1da>
    1234:	e080      	b.n	1338 <__aeabi_fsub+0x2dc>
    1236:	2d00      	cmp	r5, #0
    1238:	d100      	bne.n	123c <__aeabi_fsub+0x1e0>
    123a:	e72b      	b.n	1094 <__aeabi_fsub+0x38>
    123c:	195b      	adds	r3, r3, r5
    123e:	0158      	lsls	r0, r3, #5
    1240:	d400      	bmi.n	1244 <__aeabi_fsub+0x1e8>
    1242:	e727      	b.n	1094 <__aeabi_fsub+0x38>
    1244:	4a3f      	ldr	r2, [pc, #252]	; (1344 <__aeabi_fsub+0x2e8>)
    1246:	2401      	movs	r4, #1
    1248:	4013      	ands	r3, r2
    124a:	e723      	b.n	1094 <__aeabi_fsub+0x38>
    124c:	2c00      	cmp	r4, #0
    124e:	d115      	bne.n	127c <__aeabi_fsub+0x220>
    1250:	2b00      	cmp	r3, #0
    1252:	d140      	bne.n	12d6 <__aeabi_fsub+0x27a>
    1254:	2d00      	cmp	r5, #0
    1256:	d063      	beq.n	1320 <__aeabi_fsub+0x2c4>
    1258:	1c2b      	adds	r3, r5, #0
    125a:	1c0e      	adds	r6, r1, #0
    125c:	e71a      	b.n	1094 <__aeabi_fsub+0x38>
    125e:	2c00      	cmp	r4, #0
    1260:	d121      	bne.n	12a6 <__aeabi_fsub+0x24a>
    1262:	2b00      	cmp	r3, #0
    1264:	d054      	beq.n	1310 <__aeabi_fsub+0x2b4>
    1266:	43c9      	mvns	r1, r1
    1268:	2900      	cmp	r1, #0
    126a:	d004      	beq.n	1276 <__aeabi_fsub+0x21a>
    126c:	28ff      	cmp	r0, #255	; 0xff
    126e:	d04c      	beq.n	130a <__aeabi_fsub+0x2ae>
    1270:	291b      	cmp	r1, #27
    1272:	dd58      	ble.n	1326 <__aeabi_fsub+0x2ca>
    1274:	2301      	movs	r3, #1
    1276:	195b      	adds	r3, r3, r5
    1278:	1c04      	adds	r4, r0, #0
    127a:	e775      	b.n	1168 <__aeabi_fsub+0x10c>
    127c:	2b00      	cmp	r3, #0
    127e:	d119      	bne.n	12b4 <__aeabi_fsub+0x258>
    1280:	2d00      	cmp	r5, #0
    1282:	d048      	beq.n	1316 <__aeabi_fsub+0x2ba>
    1284:	1c2b      	adds	r3, r5, #0
    1286:	1c0e      	adds	r6, r1, #0
    1288:	24ff      	movs	r4, #255	; 0xff
    128a:	e703      	b.n	1094 <__aeabi_fsub+0x38>
    128c:	1c2b      	adds	r3, r5, #0
    128e:	1c04      	adds	r4, r0, #0
    1290:	1c0e      	adds	r6, r1, #0
    1292:	e6ff      	b.n	1094 <__aeabi_fsub+0x38>
    1294:	1c1c      	adds	r4, r3, #0
    1296:	2620      	movs	r6, #32
    1298:	40d4      	lsrs	r4, r2
    129a:	1ab2      	subs	r2, r6, r2
    129c:	4093      	lsls	r3, r2
    129e:	1e5a      	subs	r2, r3, #1
    12a0:	4193      	sbcs	r3, r2
    12a2:	4323      	orrs	r3, r4
    12a4:	e7a9      	b.n	11fa <__aeabi_fsub+0x19e>
    12a6:	28ff      	cmp	r0, #255	; 0xff
    12a8:	d02f      	beq.n	130a <__aeabi_fsub+0x2ae>
    12aa:	2480      	movs	r4, #128	; 0x80
    12ac:	04e4      	lsls	r4, r4, #19
    12ae:	4249      	negs	r1, r1
    12b0:	4323      	orrs	r3, r4
    12b2:	e7dd      	b.n	1270 <__aeabi_fsub+0x214>
    12b4:	24ff      	movs	r4, #255	; 0xff
    12b6:	2d00      	cmp	r5, #0
    12b8:	d100      	bne.n	12bc <__aeabi_fsub+0x260>
    12ba:	e6eb      	b.n	1094 <__aeabi_fsub+0x38>
    12bc:	2280      	movs	r2, #128	; 0x80
    12be:	08db      	lsrs	r3, r3, #3
    12c0:	03d2      	lsls	r2, r2, #15
    12c2:	4213      	tst	r3, r2
    12c4:	d004      	beq.n	12d0 <__aeabi_fsub+0x274>
    12c6:	08ed      	lsrs	r5, r5, #3
    12c8:	4215      	tst	r5, r2
    12ca:	d101      	bne.n	12d0 <__aeabi_fsub+0x274>
    12cc:	1c2b      	adds	r3, r5, #0
    12ce:	1c0e      	adds	r6, r1, #0
    12d0:	00db      	lsls	r3, r3, #3
    12d2:	24ff      	movs	r4, #255	; 0xff
    12d4:	e6de      	b.n	1094 <__aeabi_fsub+0x38>
    12d6:	2d00      	cmp	r5, #0
    12d8:	d100      	bne.n	12dc <__aeabi_fsub+0x280>
    12da:	e6db      	b.n	1094 <__aeabi_fsub+0x38>
    12dc:	1b5a      	subs	r2, r3, r5
    12de:	0150      	lsls	r0, r2, #5
    12e0:	d400      	bmi.n	12e4 <__aeabi_fsub+0x288>
    12e2:	e71c      	b.n	111e <__aeabi_fsub+0xc2>
    12e4:	1aeb      	subs	r3, r5, r3
    12e6:	1c0e      	adds	r6, r1, #0
    12e8:	e6d4      	b.n	1094 <__aeabi_fsub+0x38>
    12ea:	2b00      	cmp	r3, #0
    12ec:	d00d      	beq.n	130a <__aeabi_fsub+0x2ae>
    12ee:	24ff      	movs	r4, #255	; 0xff
    12f0:	2d00      	cmp	r5, #0
    12f2:	d100      	bne.n	12f6 <__aeabi_fsub+0x29a>
    12f4:	e6ce      	b.n	1094 <__aeabi_fsub+0x38>
    12f6:	2280      	movs	r2, #128	; 0x80
    12f8:	08db      	lsrs	r3, r3, #3
    12fa:	03d2      	lsls	r2, r2, #15
    12fc:	4213      	tst	r3, r2
    12fe:	d0e7      	beq.n	12d0 <__aeabi_fsub+0x274>
    1300:	08ed      	lsrs	r5, r5, #3
    1302:	4215      	tst	r5, r2
    1304:	d1e4      	bne.n	12d0 <__aeabi_fsub+0x274>
    1306:	1c2b      	adds	r3, r5, #0
    1308:	e7e2      	b.n	12d0 <__aeabi_fsub+0x274>
    130a:	1c2b      	adds	r3, r5, #0
    130c:	24ff      	movs	r4, #255	; 0xff
    130e:	e6c1      	b.n	1094 <__aeabi_fsub+0x38>
    1310:	1c2b      	adds	r3, r5, #0
    1312:	1c04      	adds	r4, r0, #0
    1314:	e6be      	b.n	1094 <__aeabi_fsub+0x38>
    1316:	2380      	movs	r3, #128	; 0x80
    1318:	2200      	movs	r2, #0
    131a:	049b      	lsls	r3, r3, #18
    131c:	24ff      	movs	r4, #255	; 0xff
    131e:	e702      	b.n	1126 <__aeabi_fsub+0xca>
    1320:	1c23      	adds	r3, r4, #0
    1322:	2200      	movs	r2, #0
    1324:	e6ff      	b.n	1126 <__aeabi_fsub+0xca>
    1326:	1c1c      	adds	r4, r3, #0
    1328:	2720      	movs	r7, #32
    132a:	40cc      	lsrs	r4, r1
    132c:	1a79      	subs	r1, r7, r1
    132e:	408b      	lsls	r3, r1
    1330:	1e59      	subs	r1, r3, #1
    1332:	418b      	sbcs	r3, r1
    1334:	4323      	orrs	r3, r4
    1336:	e79e      	b.n	1276 <__aeabi_fsub+0x21a>
    1338:	1c2b      	adds	r3, r5, #0
    133a:	e6ab      	b.n	1094 <__aeabi_fsub+0x38>
    133c:	2501      	movs	r5, #1
    133e:	e712      	b.n	1166 <__aeabi_fsub+0x10a>
    1340:	2501      	movs	r5, #1
    1342:	e6d3      	b.n	10ec <__aeabi_fsub+0x90>
    1344:	fbffffff 	.word	0xfbffffff

00001348 <__aeabi_f2iz>:
__aeabi_f2iz():
    1348:	0243      	lsls	r3, r0, #9
    134a:	0a59      	lsrs	r1, r3, #9
    134c:	0043      	lsls	r3, r0, #1
    134e:	0fc2      	lsrs	r2, r0, #31
    1350:	0e1b      	lsrs	r3, r3, #24
    1352:	2000      	movs	r0, #0
    1354:	2b7e      	cmp	r3, #126	; 0x7e
    1356:	dd0d      	ble.n	1374 <__aeabi_f2iz+0x2c>
    1358:	2b9d      	cmp	r3, #157	; 0x9d
    135a:	dc0c      	bgt.n	1376 <__aeabi_f2iz+0x2e>
    135c:	2080      	movs	r0, #128	; 0x80
    135e:	0400      	lsls	r0, r0, #16
    1360:	4301      	orrs	r1, r0
    1362:	2b95      	cmp	r3, #149	; 0x95
    1364:	dc0a      	bgt.n	137c <__aeabi_f2iz+0x34>
    1366:	2096      	movs	r0, #150	; 0x96
    1368:	1ac3      	subs	r3, r0, r3
    136a:	40d9      	lsrs	r1, r3
    136c:	4248      	negs	r0, r1
    136e:	2a00      	cmp	r2, #0
    1370:	d100      	bne.n	1374 <__aeabi_f2iz+0x2c>
    1372:	1c08      	adds	r0, r1, #0
    1374:	4770      	bx	lr
    1376:	4b03      	ldr	r3, [pc, #12]	; (1384 <__aeabi_f2iz+0x3c>)
    1378:	18d0      	adds	r0, r2, r3
    137a:	e7fb      	b.n	1374 <__aeabi_f2iz+0x2c>
    137c:	3b96      	subs	r3, #150	; 0x96
    137e:	4099      	lsls	r1, r3
    1380:	e7f4      	b.n	136c <__aeabi_f2iz+0x24>
    1382:	46c0      	nop			; (mov r8, r8)
    1384:	7fffffff 	.word	0x7fffffff

00001388 <__aeabi_i2f>:
__aeabi_i2f():
    1388:	b570      	push	{r4, r5, r6, lr}
    138a:	1e04      	subs	r4, r0, #0
    138c:	d03c      	beq.n	1408 <__aeabi_i2f+0x80>
    138e:	0fc6      	lsrs	r6, r0, #31
    1390:	d000      	beq.n	1394 <__aeabi_i2f+0xc>
    1392:	4244      	negs	r4, r0
    1394:	1c20      	adds	r0, r4, #0
    1396:	f001 ff43 	bl	3220 <__clzsi2>
    139a:	239e      	movs	r3, #158	; 0x9e
    139c:	1c25      	adds	r5, r4, #0
    139e:	1a1b      	subs	r3, r3, r0
    13a0:	2b96      	cmp	r3, #150	; 0x96
    13a2:	dc0c      	bgt.n	13be <__aeabi_i2f+0x36>
    13a4:	3808      	subs	r0, #8
    13a6:	4084      	lsls	r4, r0
    13a8:	0264      	lsls	r4, r4, #9
    13aa:	0a64      	lsrs	r4, r4, #9
    13ac:	b2db      	uxtb	r3, r3
    13ae:	1c32      	adds	r2, r6, #0
    13b0:	0264      	lsls	r4, r4, #9
    13b2:	05db      	lsls	r3, r3, #23
    13b4:	0a60      	lsrs	r0, r4, #9
    13b6:	07d2      	lsls	r2, r2, #31
    13b8:	4318      	orrs	r0, r3
    13ba:	4310      	orrs	r0, r2
    13bc:	bd70      	pop	{r4, r5, r6, pc}
    13be:	2b99      	cmp	r3, #153	; 0x99
    13c0:	dd0a      	ble.n	13d8 <__aeabi_i2f+0x50>
    13c2:	2205      	movs	r2, #5
    13c4:	1a12      	subs	r2, r2, r0
    13c6:	1c21      	adds	r1, r4, #0
    13c8:	40d1      	lsrs	r1, r2
    13ca:	1c0a      	adds	r2, r1, #0
    13cc:	1c01      	adds	r1, r0, #0
    13ce:	311b      	adds	r1, #27
    13d0:	408d      	lsls	r5, r1
    13d2:	1e69      	subs	r1, r5, #1
    13d4:	418d      	sbcs	r5, r1
    13d6:	4315      	orrs	r5, r2
    13d8:	2805      	cmp	r0, #5
    13da:	dd01      	ble.n	13e0 <__aeabi_i2f+0x58>
    13dc:	1f42      	subs	r2, r0, #5
    13de:	4095      	lsls	r5, r2
    13e0:	4c16      	ldr	r4, [pc, #88]	; (143c <__aeabi_i2f+0xb4>)
    13e2:	402c      	ands	r4, r5
    13e4:	076a      	lsls	r2, r5, #29
    13e6:	d004      	beq.n	13f2 <__aeabi_i2f+0x6a>
    13e8:	220f      	movs	r2, #15
    13ea:	4015      	ands	r5, r2
    13ec:	2d04      	cmp	r5, #4
    13ee:	d000      	beq.n	13f2 <__aeabi_i2f+0x6a>
    13f0:	3404      	adds	r4, #4
    13f2:	0161      	lsls	r1, r4, #5
    13f4:	d50c      	bpl.n	1410 <__aeabi_i2f+0x88>
    13f6:	239f      	movs	r3, #159	; 0x9f
    13f8:	1a18      	subs	r0, r3, r0
    13fa:	28ff      	cmp	r0, #255	; 0xff
    13fc:	d01a      	beq.n	1434 <__aeabi_i2f+0xac>
    13fe:	01a4      	lsls	r4, r4, #6
    1400:	0a64      	lsrs	r4, r4, #9
    1402:	b2c3      	uxtb	r3, r0
    1404:	1c32      	adds	r2, r6, #0
    1406:	e7d3      	b.n	13b0 <__aeabi_i2f+0x28>
    1408:	2200      	movs	r2, #0
    140a:	2300      	movs	r3, #0
    140c:	2400      	movs	r4, #0
    140e:	e7cf      	b.n	13b0 <__aeabi_i2f+0x28>
    1410:	08e4      	lsrs	r4, r4, #3
    1412:	2bff      	cmp	r3, #255	; 0xff
    1414:	d004      	beq.n	1420 <__aeabi_i2f+0x98>
    1416:	0264      	lsls	r4, r4, #9
    1418:	0a64      	lsrs	r4, r4, #9
    141a:	b2db      	uxtb	r3, r3
    141c:	1c32      	adds	r2, r6, #0
    141e:	e7c7      	b.n	13b0 <__aeabi_i2f+0x28>
    1420:	2c00      	cmp	r4, #0
    1422:	d004      	beq.n	142e <__aeabi_i2f+0xa6>
    1424:	2080      	movs	r0, #128	; 0x80
    1426:	03c0      	lsls	r0, r0, #15
    1428:	4304      	orrs	r4, r0
    142a:	0264      	lsls	r4, r4, #9
    142c:	0a64      	lsrs	r4, r4, #9
    142e:	1c32      	adds	r2, r6, #0
    1430:	23ff      	movs	r3, #255	; 0xff
    1432:	e7bd      	b.n	13b0 <__aeabi_i2f+0x28>
    1434:	1c32      	adds	r2, r6, #0
    1436:	23ff      	movs	r3, #255	; 0xff
    1438:	2400      	movs	r4, #0
    143a:	e7b9      	b.n	13b0 <__aeabi_i2f+0x28>
    143c:	fbffffff 	.word	0xfbffffff

00001440 <__aeabi_ui2f>:
__aeabi_ui2f():
    1440:	b510      	push	{r4, lr}
    1442:	1e04      	subs	r4, r0, #0
    1444:	d033      	beq.n	14ae <__aeabi_ui2f+0x6e>
    1446:	f001 feeb 	bl	3220 <__clzsi2>
    144a:	239e      	movs	r3, #158	; 0x9e
    144c:	1a1b      	subs	r3, r3, r0
    144e:	2b96      	cmp	r3, #150	; 0x96
    1450:	dc09      	bgt.n	1466 <__aeabi_ui2f+0x26>
    1452:	3808      	subs	r0, #8
    1454:	4084      	lsls	r4, r0
    1456:	0264      	lsls	r4, r4, #9
    1458:	0a64      	lsrs	r4, r4, #9
    145a:	b2db      	uxtb	r3, r3
    145c:	0264      	lsls	r4, r4, #9
    145e:	05db      	lsls	r3, r3, #23
    1460:	0a60      	lsrs	r0, r4, #9
    1462:	4318      	orrs	r0, r3
    1464:	bd10      	pop	{r4, pc}
    1466:	2b99      	cmp	r3, #153	; 0x99
    1468:	dd0a      	ble.n	1480 <__aeabi_ui2f+0x40>
    146a:	2205      	movs	r2, #5
    146c:	1a12      	subs	r2, r2, r0
    146e:	1c21      	adds	r1, r4, #0
    1470:	40d1      	lsrs	r1, r2
    1472:	1c0a      	adds	r2, r1, #0
    1474:	1c01      	adds	r1, r0, #0
    1476:	311b      	adds	r1, #27
    1478:	408c      	lsls	r4, r1
    147a:	1e61      	subs	r1, r4, #1
    147c:	418c      	sbcs	r4, r1
    147e:	4314      	orrs	r4, r2
    1480:	2805      	cmp	r0, #5
    1482:	dd01      	ble.n	1488 <__aeabi_ui2f+0x48>
    1484:	1f42      	subs	r2, r0, #5
    1486:	4094      	lsls	r4, r2
    1488:	4a14      	ldr	r2, [pc, #80]	; (14dc <__aeabi_ui2f+0x9c>)
    148a:	4022      	ands	r2, r4
    148c:	0761      	lsls	r1, r4, #29
    148e:	d004      	beq.n	149a <__aeabi_ui2f+0x5a>
    1490:	210f      	movs	r1, #15
    1492:	400c      	ands	r4, r1
    1494:	2c04      	cmp	r4, #4
    1496:	d000      	beq.n	149a <__aeabi_ui2f+0x5a>
    1498:	3204      	adds	r2, #4
    149a:	0151      	lsls	r1, r2, #5
    149c:	d50a      	bpl.n	14b4 <__aeabi_ui2f+0x74>
    149e:	239f      	movs	r3, #159	; 0x9f
    14a0:	1a18      	subs	r0, r3, r0
    14a2:	28ff      	cmp	r0, #255	; 0xff
    14a4:	d016      	beq.n	14d4 <__aeabi_ui2f+0x94>
    14a6:	0194      	lsls	r4, r2, #6
    14a8:	0a64      	lsrs	r4, r4, #9
    14aa:	b2c3      	uxtb	r3, r0
    14ac:	e7d6      	b.n	145c <__aeabi_ui2f+0x1c>
    14ae:	2300      	movs	r3, #0
    14b0:	2400      	movs	r4, #0
    14b2:	e7d3      	b.n	145c <__aeabi_ui2f+0x1c>
    14b4:	08d2      	lsrs	r2, r2, #3
    14b6:	2bff      	cmp	r3, #255	; 0xff
    14b8:	d003      	beq.n	14c2 <__aeabi_ui2f+0x82>
    14ba:	0254      	lsls	r4, r2, #9
    14bc:	0a64      	lsrs	r4, r4, #9
    14be:	b2db      	uxtb	r3, r3
    14c0:	e7cc      	b.n	145c <__aeabi_ui2f+0x1c>
    14c2:	2a00      	cmp	r2, #0
    14c4:	d006      	beq.n	14d4 <__aeabi_ui2f+0x94>
    14c6:	2480      	movs	r4, #128	; 0x80
    14c8:	03e4      	lsls	r4, r4, #15
    14ca:	4314      	orrs	r4, r2
    14cc:	0264      	lsls	r4, r4, #9
    14ce:	0a64      	lsrs	r4, r4, #9
    14d0:	23ff      	movs	r3, #255	; 0xff
    14d2:	e7c3      	b.n	145c <__aeabi_ui2f+0x1c>
    14d4:	23ff      	movs	r3, #255	; 0xff
    14d6:	2400      	movs	r4, #0
    14d8:	e7c0      	b.n	145c <__aeabi_ui2f+0x1c>
    14da:	46c0      	nop			; (mov r8, r8)
    14dc:	fbffffff 	.word	0xfbffffff

000014e0 <__aeabi_dadd>:
__aeabi_dadd():
    14e0:	b5f8      	push	{r3, r4, r5, r6, r7, lr}
    14e2:	465f      	mov	r7, fp
    14e4:	4656      	mov	r6, sl
    14e6:	4644      	mov	r4, r8
    14e8:	464d      	mov	r5, r9
    14ea:	b4f0      	push	{r4, r5, r6, r7}
    14ec:	030c      	lsls	r4, r1, #12
    14ee:	004d      	lsls	r5, r1, #1
    14f0:	0fce      	lsrs	r6, r1, #31
    14f2:	0a61      	lsrs	r1, r4, #9
    14f4:	0f44      	lsrs	r4, r0, #29
    14f6:	4321      	orrs	r1, r4
    14f8:	00c4      	lsls	r4, r0, #3
    14fa:	0318      	lsls	r0, r3, #12
    14fc:	4680      	mov	r8, r0
    14fe:	0058      	lsls	r0, r3, #1
    1500:	0d40      	lsrs	r0, r0, #21
    1502:	4682      	mov	sl, r0
    1504:	0fd8      	lsrs	r0, r3, #31
    1506:	4684      	mov	ip, r0
    1508:	4640      	mov	r0, r8
    150a:	0a40      	lsrs	r0, r0, #9
    150c:	0f53      	lsrs	r3, r2, #29
    150e:	4303      	orrs	r3, r0
    1510:	00d0      	lsls	r0, r2, #3
    1512:	0d6d      	lsrs	r5, r5, #21
    1514:	1c37      	adds	r7, r6, #0
    1516:	4683      	mov	fp, r0
    1518:	4652      	mov	r2, sl
    151a:	4566      	cmp	r6, ip
    151c:	d100      	bne.n	1520 <__aeabi_dadd+0x40>
    151e:	e0a4      	b.n	166a <__aeabi_dadd+0x18a>
    1520:	1aaf      	subs	r7, r5, r2
    1522:	2f00      	cmp	r7, #0
    1524:	dc00      	bgt.n	1528 <__aeabi_dadd+0x48>
    1526:	e109      	b.n	173c <__aeabi_dadd+0x25c>
    1528:	2a00      	cmp	r2, #0
    152a:	d13b      	bne.n	15a4 <__aeabi_dadd+0xc4>
    152c:	4318      	orrs	r0, r3
    152e:	d000      	beq.n	1532 <__aeabi_dadd+0x52>
    1530:	e0ea      	b.n	1708 <__aeabi_dadd+0x228>
    1532:	0763      	lsls	r3, r4, #29
    1534:	d100      	bne.n	1538 <__aeabi_dadd+0x58>
    1536:	e087      	b.n	1648 <__aeabi_dadd+0x168>
    1538:	230f      	movs	r3, #15
    153a:	4023      	ands	r3, r4
    153c:	2b04      	cmp	r3, #4
    153e:	d100      	bne.n	1542 <__aeabi_dadd+0x62>
    1540:	e082      	b.n	1648 <__aeabi_dadd+0x168>
    1542:	1d22      	adds	r2, r4, #4
    1544:	42a2      	cmp	r2, r4
    1546:	41a4      	sbcs	r4, r4
    1548:	4264      	negs	r4, r4
    154a:	2380      	movs	r3, #128	; 0x80
    154c:	1909      	adds	r1, r1, r4
    154e:	041b      	lsls	r3, r3, #16
    1550:	400b      	ands	r3, r1
    1552:	1c37      	adds	r7, r6, #0
    1554:	1c14      	adds	r4, r2, #0
    1556:	2b00      	cmp	r3, #0
    1558:	d100      	bne.n	155c <__aeabi_dadd+0x7c>
    155a:	e07c      	b.n	1656 <__aeabi_dadd+0x176>
    155c:	4bce      	ldr	r3, [pc, #824]	; (1898 <__aeabi_dadd+0x3b8>)
    155e:	3501      	adds	r5, #1
    1560:	429d      	cmp	r5, r3
    1562:	d100      	bne.n	1566 <__aeabi_dadd+0x86>
    1564:	e105      	b.n	1772 <__aeabi_dadd+0x292>
    1566:	4bcd      	ldr	r3, [pc, #820]	; (189c <__aeabi_dadd+0x3bc>)
    1568:	08e4      	lsrs	r4, r4, #3
    156a:	4019      	ands	r1, r3
    156c:	0748      	lsls	r0, r1, #29
    156e:	0249      	lsls	r1, r1, #9
    1570:	4304      	orrs	r4, r0
    1572:	0b0b      	lsrs	r3, r1, #12
    1574:	2000      	movs	r0, #0
    1576:	2100      	movs	r1, #0
    1578:	031b      	lsls	r3, r3, #12
    157a:	0b1a      	lsrs	r2, r3, #12
    157c:	0d0b      	lsrs	r3, r1, #20
    157e:	056d      	lsls	r5, r5, #21
    1580:	051b      	lsls	r3, r3, #20
    1582:	4313      	orrs	r3, r2
    1584:	086a      	lsrs	r2, r5, #1
    1586:	4dc6      	ldr	r5, [pc, #792]	; (18a0 <__aeabi_dadd+0x3c0>)
    1588:	07ff      	lsls	r7, r7, #31
    158a:	401d      	ands	r5, r3
    158c:	4315      	orrs	r5, r2
    158e:	006d      	lsls	r5, r5, #1
    1590:	086d      	lsrs	r5, r5, #1
    1592:	1c29      	adds	r1, r5, #0
    1594:	4339      	orrs	r1, r7
    1596:	1c20      	adds	r0, r4, #0
    1598:	bc3c      	pop	{r2, r3, r4, r5}
    159a:	4690      	mov	r8, r2
    159c:	4699      	mov	r9, r3
    159e:	46a2      	mov	sl, r4
    15a0:	46ab      	mov	fp, r5
    15a2:	bdf8      	pop	{r3, r4, r5, r6, r7, pc}
    15a4:	48bc      	ldr	r0, [pc, #752]	; (1898 <__aeabi_dadd+0x3b8>)
    15a6:	4285      	cmp	r5, r0
    15a8:	d0c3      	beq.n	1532 <__aeabi_dadd+0x52>
    15aa:	2080      	movs	r0, #128	; 0x80
    15ac:	0400      	lsls	r0, r0, #16
    15ae:	4303      	orrs	r3, r0
    15b0:	2f38      	cmp	r7, #56	; 0x38
    15b2:	dd00      	ble.n	15b6 <__aeabi_dadd+0xd6>
    15b4:	e0f0      	b.n	1798 <__aeabi_dadd+0x2b8>
    15b6:	2f1f      	cmp	r7, #31
    15b8:	dd00      	ble.n	15bc <__aeabi_dadd+0xdc>
    15ba:	e124      	b.n	1806 <__aeabi_dadd+0x326>
    15bc:	2020      	movs	r0, #32
    15be:	1bc0      	subs	r0, r0, r7
    15c0:	1c1a      	adds	r2, r3, #0
    15c2:	4681      	mov	r9, r0
    15c4:	4082      	lsls	r2, r0
    15c6:	4658      	mov	r0, fp
    15c8:	40f8      	lsrs	r0, r7
    15ca:	4302      	orrs	r2, r0
    15cc:	4694      	mov	ip, r2
    15ce:	4658      	mov	r0, fp
    15d0:	464a      	mov	r2, r9
    15d2:	4090      	lsls	r0, r2
    15d4:	1e42      	subs	r2, r0, #1
    15d6:	4190      	sbcs	r0, r2
    15d8:	40fb      	lsrs	r3, r7
    15da:	4662      	mov	r2, ip
    15dc:	4302      	orrs	r2, r0
    15de:	1c1f      	adds	r7, r3, #0
    15e0:	1aa2      	subs	r2, r4, r2
    15e2:	4294      	cmp	r4, r2
    15e4:	41a4      	sbcs	r4, r4
    15e6:	4264      	negs	r4, r4
    15e8:	1bc9      	subs	r1, r1, r7
    15ea:	1b09      	subs	r1, r1, r4
    15ec:	1c14      	adds	r4, r2, #0
    15ee:	020b      	lsls	r3, r1, #8
    15f0:	d59f      	bpl.n	1532 <__aeabi_dadd+0x52>
    15f2:	0249      	lsls	r1, r1, #9
    15f4:	0a4f      	lsrs	r7, r1, #9
    15f6:	2f00      	cmp	r7, #0
    15f8:	d100      	bne.n	15fc <__aeabi_dadd+0x11c>
    15fa:	e0c8      	b.n	178e <__aeabi_dadd+0x2ae>
    15fc:	1c38      	adds	r0, r7, #0
    15fe:	f001 fe0f 	bl	3220 <__clzsi2>
    1602:	1c02      	adds	r2, r0, #0
    1604:	3a08      	subs	r2, #8
    1606:	2a1f      	cmp	r2, #31
    1608:	dd00      	ble.n	160c <__aeabi_dadd+0x12c>
    160a:	e0b5      	b.n	1778 <__aeabi_dadd+0x298>
    160c:	2128      	movs	r1, #40	; 0x28
    160e:	1a09      	subs	r1, r1, r0
    1610:	1c20      	adds	r0, r4, #0
    1612:	4097      	lsls	r7, r2
    1614:	40c8      	lsrs	r0, r1
    1616:	4307      	orrs	r7, r0
    1618:	4094      	lsls	r4, r2
    161a:	4295      	cmp	r5, r2
    161c:	dd00      	ble.n	1620 <__aeabi_dadd+0x140>
    161e:	e0b2      	b.n	1786 <__aeabi_dadd+0x2a6>
    1620:	1b55      	subs	r5, r2, r5
    1622:	1c69      	adds	r1, r5, #1
    1624:	291f      	cmp	r1, #31
    1626:	dd00      	ble.n	162a <__aeabi_dadd+0x14a>
    1628:	e0dc      	b.n	17e4 <__aeabi_dadd+0x304>
    162a:	221f      	movs	r2, #31
    162c:	1b55      	subs	r5, r2, r5
    162e:	1c3b      	adds	r3, r7, #0
    1630:	1c22      	adds	r2, r4, #0
    1632:	40ab      	lsls	r3, r5
    1634:	40ca      	lsrs	r2, r1
    1636:	40ac      	lsls	r4, r5
    1638:	1e65      	subs	r5, r4, #1
    163a:	41ac      	sbcs	r4, r5
    163c:	4313      	orrs	r3, r2
    163e:	40cf      	lsrs	r7, r1
    1640:	431c      	orrs	r4, r3
    1642:	1c39      	adds	r1, r7, #0
    1644:	2500      	movs	r5, #0
    1646:	e774      	b.n	1532 <__aeabi_dadd+0x52>
    1648:	2380      	movs	r3, #128	; 0x80
    164a:	041b      	lsls	r3, r3, #16
    164c:	400b      	ands	r3, r1
    164e:	1c37      	adds	r7, r6, #0
    1650:	2b00      	cmp	r3, #0
    1652:	d000      	beq.n	1656 <__aeabi_dadd+0x176>
    1654:	e782      	b.n	155c <__aeabi_dadd+0x7c>
    1656:	4b90      	ldr	r3, [pc, #576]	; (1898 <__aeabi_dadd+0x3b8>)
    1658:	0748      	lsls	r0, r1, #29
    165a:	08e4      	lsrs	r4, r4, #3
    165c:	4304      	orrs	r4, r0
    165e:	08c9      	lsrs	r1, r1, #3
    1660:	429d      	cmp	r5, r3
    1662:	d048      	beq.n	16f6 <__aeabi_dadd+0x216>
    1664:	0309      	lsls	r1, r1, #12
    1666:	0b0b      	lsrs	r3, r1, #12
    1668:	e784      	b.n	1574 <__aeabi_dadd+0x94>
    166a:	1aaa      	subs	r2, r5, r2
    166c:	4694      	mov	ip, r2
    166e:	2a00      	cmp	r2, #0
    1670:	dc00      	bgt.n	1674 <__aeabi_dadd+0x194>
    1672:	e098      	b.n	17a6 <__aeabi_dadd+0x2c6>
    1674:	4650      	mov	r0, sl
    1676:	2800      	cmp	r0, #0
    1678:	d052      	beq.n	1720 <__aeabi_dadd+0x240>
    167a:	4887      	ldr	r0, [pc, #540]	; (1898 <__aeabi_dadd+0x3b8>)
    167c:	4285      	cmp	r5, r0
    167e:	d100      	bne.n	1682 <__aeabi_dadd+0x1a2>
    1680:	e757      	b.n	1532 <__aeabi_dadd+0x52>
    1682:	2080      	movs	r0, #128	; 0x80
    1684:	0400      	lsls	r0, r0, #16
    1686:	4303      	orrs	r3, r0
    1688:	4662      	mov	r2, ip
    168a:	2a38      	cmp	r2, #56	; 0x38
    168c:	dd00      	ble.n	1690 <__aeabi_dadd+0x1b0>
    168e:	e0fc      	b.n	188a <__aeabi_dadd+0x3aa>
    1690:	2a1f      	cmp	r2, #31
    1692:	dd00      	ble.n	1696 <__aeabi_dadd+0x1b6>
    1694:	e14a      	b.n	192c <__aeabi_dadd+0x44c>
    1696:	2220      	movs	r2, #32
    1698:	4660      	mov	r0, ip
    169a:	1a10      	subs	r0, r2, r0
    169c:	1c1a      	adds	r2, r3, #0
    169e:	4082      	lsls	r2, r0
    16a0:	4682      	mov	sl, r0
    16a2:	4691      	mov	r9, r2
    16a4:	4658      	mov	r0, fp
    16a6:	4662      	mov	r2, ip
    16a8:	40d0      	lsrs	r0, r2
    16aa:	464a      	mov	r2, r9
    16ac:	4302      	orrs	r2, r0
    16ae:	4690      	mov	r8, r2
    16b0:	4658      	mov	r0, fp
    16b2:	4652      	mov	r2, sl
    16b4:	4090      	lsls	r0, r2
    16b6:	1e42      	subs	r2, r0, #1
    16b8:	4190      	sbcs	r0, r2
    16ba:	4642      	mov	r2, r8
    16bc:	4302      	orrs	r2, r0
    16be:	4660      	mov	r0, ip
    16c0:	40c3      	lsrs	r3, r0
    16c2:	1912      	adds	r2, r2, r4
    16c4:	42a2      	cmp	r2, r4
    16c6:	41a4      	sbcs	r4, r4
    16c8:	4264      	negs	r4, r4
    16ca:	1859      	adds	r1, r3, r1
    16cc:	1909      	adds	r1, r1, r4
    16ce:	1c14      	adds	r4, r2, #0
    16d0:	0208      	lsls	r0, r1, #8
    16d2:	d400      	bmi.n	16d6 <__aeabi_dadd+0x1f6>
    16d4:	e72d      	b.n	1532 <__aeabi_dadd+0x52>
    16d6:	4b70      	ldr	r3, [pc, #448]	; (1898 <__aeabi_dadd+0x3b8>)
    16d8:	3501      	adds	r5, #1
    16da:	429d      	cmp	r5, r3
    16dc:	d100      	bne.n	16e0 <__aeabi_dadd+0x200>
    16de:	e122      	b.n	1926 <__aeabi_dadd+0x446>
    16e0:	4b6e      	ldr	r3, [pc, #440]	; (189c <__aeabi_dadd+0x3bc>)
    16e2:	0860      	lsrs	r0, r4, #1
    16e4:	4019      	ands	r1, r3
    16e6:	2301      	movs	r3, #1
    16e8:	4023      	ands	r3, r4
    16ea:	1c1c      	adds	r4, r3, #0
    16ec:	4304      	orrs	r4, r0
    16ee:	07cb      	lsls	r3, r1, #31
    16f0:	431c      	orrs	r4, r3
    16f2:	0849      	lsrs	r1, r1, #1
    16f4:	e71d      	b.n	1532 <__aeabi_dadd+0x52>
    16f6:	1c23      	adds	r3, r4, #0
    16f8:	430b      	orrs	r3, r1
    16fa:	d03a      	beq.n	1772 <__aeabi_dadd+0x292>
    16fc:	2380      	movs	r3, #128	; 0x80
    16fe:	031b      	lsls	r3, r3, #12
    1700:	430b      	orrs	r3, r1
    1702:	031b      	lsls	r3, r3, #12
    1704:	0b1b      	lsrs	r3, r3, #12
    1706:	e735      	b.n	1574 <__aeabi_dadd+0x94>
    1708:	3f01      	subs	r7, #1
    170a:	2f00      	cmp	r7, #0
    170c:	d165      	bne.n	17da <__aeabi_dadd+0x2fa>
    170e:	4658      	mov	r0, fp
    1710:	1a22      	subs	r2, r4, r0
    1712:	4294      	cmp	r4, r2
    1714:	41a4      	sbcs	r4, r4
    1716:	4264      	negs	r4, r4
    1718:	1ac9      	subs	r1, r1, r3
    171a:	1b09      	subs	r1, r1, r4
    171c:	1c14      	adds	r4, r2, #0
    171e:	e766      	b.n	15ee <__aeabi_dadd+0x10e>
    1720:	4658      	mov	r0, fp
    1722:	4318      	orrs	r0, r3
    1724:	d100      	bne.n	1728 <__aeabi_dadd+0x248>
    1726:	e704      	b.n	1532 <__aeabi_dadd+0x52>
    1728:	2201      	movs	r2, #1
    172a:	4252      	negs	r2, r2
    172c:	4494      	add	ip, r2
    172e:	4660      	mov	r0, ip
    1730:	2800      	cmp	r0, #0
    1732:	d000      	beq.n	1736 <__aeabi_dadd+0x256>
    1734:	e0c5      	b.n	18c2 <__aeabi_dadd+0x3e2>
    1736:	4658      	mov	r0, fp
    1738:	1902      	adds	r2, r0, r4
    173a:	e7c3      	b.n	16c4 <__aeabi_dadd+0x1e4>
    173c:	2f00      	cmp	r7, #0
    173e:	d173      	bne.n	1828 <__aeabi_dadd+0x348>
    1740:	1c68      	adds	r0, r5, #1
    1742:	0540      	lsls	r0, r0, #21
    1744:	0d40      	lsrs	r0, r0, #21
    1746:	2801      	cmp	r0, #1
    1748:	dc00      	bgt.n	174c <__aeabi_dadd+0x26c>
    174a:	e0de      	b.n	190a <__aeabi_dadd+0x42a>
    174c:	465a      	mov	r2, fp
    174e:	1aa2      	subs	r2, r4, r2
    1750:	4294      	cmp	r4, r2
    1752:	41bf      	sbcs	r7, r7
    1754:	1ac8      	subs	r0, r1, r3
    1756:	427f      	negs	r7, r7
    1758:	1bc7      	subs	r7, r0, r7
    175a:	0238      	lsls	r0, r7, #8
    175c:	d400      	bmi.n	1760 <__aeabi_dadd+0x280>
    175e:	e089      	b.n	1874 <__aeabi_dadd+0x394>
    1760:	465a      	mov	r2, fp
    1762:	1b14      	subs	r4, r2, r4
    1764:	45a3      	cmp	fp, r4
    1766:	4192      	sbcs	r2, r2
    1768:	1a59      	subs	r1, r3, r1
    176a:	4252      	negs	r2, r2
    176c:	1a8f      	subs	r7, r1, r2
    176e:	4666      	mov	r6, ip
    1770:	e741      	b.n	15f6 <__aeabi_dadd+0x116>
    1772:	2300      	movs	r3, #0
    1774:	2400      	movs	r4, #0
    1776:	e6fd      	b.n	1574 <__aeabi_dadd+0x94>
    1778:	1c27      	adds	r7, r4, #0
    177a:	3828      	subs	r0, #40	; 0x28
    177c:	4087      	lsls	r7, r0
    177e:	2400      	movs	r4, #0
    1780:	4295      	cmp	r5, r2
    1782:	dc00      	bgt.n	1786 <__aeabi_dadd+0x2a6>
    1784:	e74c      	b.n	1620 <__aeabi_dadd+0x140>
    1786:	4945      	ldr	r1, [pc, #276]	; (189c <__aeabi_dadd+0x3bc>)
    1788:	1aad      	subs	r5, r5, r2
    178a:	4039      	ands	r1, r7
    178c:	e6d1      	b.n	1532 <__aeabi_dadd+0x52>
    178e:	1c20      	adds	r0, r4, #0
    1790:	f001 fd46 	bl	3220 <__clzsi2>
    1794:	3020      	adds	r0, #32
    1796:	e734      	b.n	1602 <__aeabi_dadd+0x122>
    1798:	465a      	mov	r2, fp
    179a:	431a      	orrs	r2, r3
    179c:	1e53      	subs	r3, r2, #1
    179e:	419a      	sbcs	r2, r3
    17a0:	b2d2      	uxtb	r2, r2
    17a2:	2700      	movs	r7, #0
    17a4:	e71c      	b.n	15e0 <__aeabi_dadd+0x100>
    17a6:	2a00      	cmp	r2, #0
    17a8:	d000      	beq.n	17ac <__aeabi_dadd+0x2cc>
    17aa:	e0dc      	b.n	1966 <__aeabi_dadd+0x486>
    17ac:	1c68      	adds	r0, r5, #1
    17ae:	0542      	lsls	r2, r0, #21
    17b0:	0d52      	lsrs	r2, r2, #21
    17b2:	2a01      	cmp	r2, #1
    17b4:	dc00      	bgt.n	17b8 <__aeabi_dadd+0x2d8>
    17b6:	e08d      	b.n	18d4 <__aeabi_dadd+0x3f4>
    17b8:	4d37      	ldr	r5, [pc, #220]	; (1898 <__aeabi_dadd+0x3b8>)
    17ba:	42a8      	cmp	r0, r5
    17bc:	d100      	bne.n	17c0 <__aeabi_dadd+0x2e0>
    17be:	e0f3      	b.n	19a8 <__aeabi_dadd+0x4c8>
    17c0:	465d      	mov	r5, fp
    17c2:	192a      	adds	r2, r5, r4
    17c4:	42a2      	cmp	r2, r4
    17c6:	41a4      	sbcs	r4, r4
    17c8:	4264      	negs	r4, r4
    17ca:	1859      	adds	r1, r3, r1
    17cc:	1909      	adds	r1, r1, r4
    17ce:	07cc      	lsls	r4, r1, #31
    17d0:	0852      	lsrs	r2, r2, #1
    17d2:	4314      	orrs	r4, r2
    17d4:	0849      	lsrs	r1, r1, #1
    17d6:	1c05      	adds	r5, r0, #0
    17d8:	e6ab      	b.n	1532 <__aeabi_dadd+0x52>
    17da:	482f      	ldr	r0, [pc, #188]	; (1898 <__aeabi_dadd+0x3b8>)
    17dc:	4285      	cmp	r5, r0
    17de:	d000      	beq.n	17e2 <__aeabi_dadd+0x302>
    17e0:	e6e6      	b.n	15b0 <__aeabi_dadd+0xd0>
    17e2:	e6a6      	b.n	1532 <__aeabi_dadd+0x52>
    17e4:	1c2b      	adds	r3, r5, #0
    17e6:	3b1f      	subs	r3, #31
    17e8:	1c3a      	adds	r2, r7, #0
    17ea:	40da      	lsrs	r2, r3
    17ec:	1c13      	adds	r3, r2, #0
    17ee:	2920      	cmp	r1, #32
    17f0:	d06c      	beq.n	18cc <__aeabi_dadd+0x3ec>
    17f2:	223f      	movs	r2, #63	; 0x3f
    17f4:	1b55      	subs	r5, r2, r5
    17f6:	40af      	lsls	r7, r5
    17f8:	433c      	orrs	r4, r7
    17fa:	1e60      	subs	r0, r4, #1
    17fc:	4184      	sbcs	r4, r0
    17fe:	431c      	orrs	r4, r3
    1800:	2100      	movs	r1, #0
    1802:	2500      	movs	r5, #0
    1804:	e695      	b.n	1532 <__aeabi_dadd+0x52>
    1806:	1c38      	adds	r0, r7, #0
    1808:	3820      	subs	r0, #32
    180a:	1c1a      	adds	r2, r3, #0
    180c:	40c2      	lsrs	r2, r0
    180e:	1c10      	adds	r0, r2, #0
    1810:	2f20      	cmp	r7, #32
    1812:	d05d      	beq.n	18d0 <__aeabi_dadd+0x3f0>
    1814:	2240      	movs	r2, #64	; 0x40
    1816:	1bd7      	subs	r7, r2, r7
    1818:	40bb      	lsls	r3, r7
    181a:	465a      	mov	r2, fp
    181c:	431a      	orrs	r2, r3
    181e:	1e53      	subs	r3, r2, #1
    1820:	419a      	sbcs	r2, r3
    1822:	4302      	orrs	r2, r0
    1824:	2700      	movs	r7, #0
    1826:	e6db      	b.n	15e0 <__aeabi_dadd+0x100>
    1828:	2d00      	cmp	r5, #0
    182a:	d03b      	beq.n	18a4 <__aeabi_dadd+0x3c4>
    182c:	4d1a      	ldr	r5, [pc, #104]	; (1898 <__aeabi_dadd+0x3b8>)
    182e:	45aa      	cmp	sl, r5
    1830:	d100      	bne.n	1834 <__aeabi_dadd+0x354>
    1832:	e093      	b.n	195c <__aeabi_dadd+0x47c>
    1834:	2580      	movs	r5, #128	; 0x80
    1836:	042d      	lsls	r5, r5, #16
    1838:	427f      	negs	r7, r7
    183a:	4329      	orrs	r1, r5
    183c:	2f38      	cmp	r7, #56	; 0x38
    183e:	dd00      	ble.n	1842 <__aeabi_dadd+0x362>
    1840:	e0ac      	b.n	199c <__aeabi_dadd+0x4bc>
    1842:	2f1f      	cmp	r7, #31
    1844:	dd00      	ble.n	1848 <__aeabi_dadd+0x368>
    1846:	e129      	b.n	1a9c <__aeabi_dadd+0x5bc>
    1848:	2520      	movs	r5, #32
    184a:	1bed      	subs	r5, r5, r7
    184c:	1c08      	adds	r0, r1, #0
    184e:	1c26      	adds	r6, r4, #0
    1850:	40a8      	lsls	r0, r5
    1852:	40fe      	lsrs	r6, r7
    1854:	40ac      	lsls	r4, r5
    1856:	4306      	orrs	r6, r0
    1858:	1e65      	subs	r5, r4, #1
    185a:	41ac      	sbcs	r4, r5
    185c:	4334      	orrs	r4, r6
    185e:	40f9      	lsrs	r1, r7
    1860:	465d      	mov	r5, fp
    1862:	1b2c      	subs	r4, r5, r4
    1864:	45a3      	cmp	fp, r4
    1866:	4192      	sbcs	r2, r2
    1868:	1a5b      	subs	r3, r3, r1
    186a:	4252      	negs	r2, r2
    186c:	1a99      	subs	r1, r3, r2
    186e:	4655      	mov	r5, sl
    1870:	4666      	mov	r6, ip
    1872:	e6bc      	b.n	15ee <__aeabi_dadd+0x10e>
    1874:	1c13      	adds	r3, r2, #0
    1876:	433b      	orrs	r3, r7
    1878:	1c14      	adds	r4, r2, #0
    187a:	2b00      	cmp	r3, #0
    187c:	d000      	beq.n	1880 <__aeabi_dadd+0x3a0>
    187e:	e6ba      	b.n	15f6 <__aeabi_dadd+0x116>
    1880:	2700      	movs	r7, #0
    1882:	2100      	movs	r1, #0
    1884:	2500      	movs	r5, #0
    1886:	2400      	movs	r4, #0
    1888:	e6e5      	b.n	1656 <__aeabi_dadd+0x176>
    188a:	465a      	mov	r2, fp
    188c:	431a      	orrs	r2, r3
    188e:	1e53      	subs	r3, r2, #1
    1890:	419a      	sbcs	r2, r3
    1892:	b2d2      	uxtb	r2, r2
    1894:	2300      	movs	r3, #0
    1896:	e714      	b.n	16c2 <__aeabi_dadd+0x1e2>
    1898:	000007ff 	.word	0x000007ff
    189c:	ff7fffff 	.word	0xff7fffff
    18a0:	800fffff 	.word	0x800fffff
    18a4:	1c0d      	adds	r5, r1, #0
    18a6:	4325      	orrs	r5, r4
    18a8:	d058      	beq.n	195c <__aeabi_dadd+0x47c>
    18aa:	43ff      	mvns	r7, r7
    18ac:	2f00      	cmp	r7, #0
    18ae:	d151      	bne.n	1954 <__aeabi_dadd+0x474>
    18b0:	1b04      	subs	r4, r0, r4
    18b2:	45a3      	cmp	fp, r4
    18b4:	4192      	sbcs	r2, r2
    18b6:	1a59      	subs	r1, r3, r1
    18b8:	4252      	negs	r2, r2
    18ba:	1a89      	subs	r1, r1, r2
    18bc:	4655      	mov	r5, sl
    18be:	4666      	mov	r6, ip
    18c0:	e695      	b.n	15ee <__aeabi_dadd+0x10e>
    18c2:	4896      	ldr	r0, [pc, #600]	; (1b1c <__aeabi_dadd+0x63c>)
    18c4:	4285      	cmp	r5, r0
    18c6:	d000      	beq.n	18ca <__aeabi_dadd+0x3ea>
    18c8:	e6de      	b.n	1688 <__aeabi_dadd+0x1a8>
    18ca:	e632      	b.n	1532 <__aeabi_dadd+0x52>
    18cc:	2700      	movs	r7, #0
    18ce:	e793      	b.n	17f8 <__aeabi_dadd+0x318>
    18d0:	2300      	movs	r3, #0
    18d2:	e7a2      	b.n	181a <__aeabi_dadd+0x33a>
    18d4:	1c08      	adds	r0, r1, #0
    18d6:	4320      	orrs	r0, r4
    18d8:	2d00      	cmp	r5, #0
    18da:	d000      	beq.n	18de <__aeabi_dadd+0x3fe>
    18dc:	e0c4      	b.n	1a68 <__aeabi_dadd+0x588>
    18de:	2800      	cmp	r0, #0
    18e0:	d100      	bne.n	18e4 <__aeabi_dadd+0x404>
    18e2:	e0f7      	b.n	1ad4 <__aeabi_dadd+0x5f4>
    18e4:	4658      	mov	r0, fp
    18e6:	4318      	orrs	r0, r3
    18e8:	d100      	bne.n	18ec <__aeabi_dadd+0x40c>
    18ea:	e622      	b.n	1532 <__aeabi_dadd+0x52>
    18ec:	4658      	mov	r0, fp
    18ee:	1902      	adds	r2, r0, r4
    18f0:	42a2      	cmp	r2, r4
    18f2:	41a4      	sbcs	r4, r4
    18f4:	4264      	negs	r4, r4
    18f6:	1859      	adds	r1, r3, r1
    18f8:	1909      	adds	r1, r1, r4
    18fa:	1c14      	adds	r4, r2, #0
    18fc:	020a      	lsls	r2, r1, #8
    18fe:	d400      	bmi.n	1902 <__aeabi_dadd+0x422>
    1900:	e617      	b.n	1532 <__aeabi_dadd+0x52>
    1902:	4b87      	ldr	r3, [pc, #540]	; (1b20 <__aeabi_dadd+0x640>)
    1904:	2501      	movs	r5, #1
    1906:	4019      	ands	r1, r3
    1908:	e613      	b.n	1532 <__aeabi_dadd+0x52>
    190a:	1c08      	adds	r0, r1, #0
    190c:	4320      	orrs	r0, r4
    190e:	2d00      	cmp	r5, #0
    1910:	d139      	bne.n	1986 <__aeabi_dadd+0x4a6>
    1912:	2800      	cmp	r0, #0
    1914:	d171      	bne.n	19fa <__aeabi_dadd+0x51a>
    1916:	4659      	mov	r1, fp
    1918:	4319      	orrs	r1, r3
    191a:	d003      	beq.n	1924 <__aeabi_dadd+0x444>
    191c:	1c19      	adds	r1, r3, #0
    191e:	465c      	mov	r4, fp
    1920:	4666      	mov	r6, ip
    1922:	e606      	b.n	1532 <__aeabi_dadd+0x52>
    1924:	2700      	movs	r7, #0
    1926:	2100      	movs	r1, #0
    1928:	2400      	movs	r4, #0
    192a:	e694      	b.n	1656 <__aeabi_dadd+0x176>
    192c:	4660      	mov	r0, ip
    192e:	3820      	subs	r0, #32
    1930:	1c1a      	adds	r2, r3, #0
    1932:	40c2      	lsrs	r2, r0
    1934:	4660      	mov	r0, ip
    1936:	4691      	mov	r9, r2
    1938:	2820      	cmp	r0, #32
    193a:	d100      	bne.n	193e <__aeabi_dadd+0x45e>
    193c:	e0ac      	b.n	1a98 <__aeabi_dadd+0x5b8>
    193e:	2240      	movs	r2, #64	; 0x40
    1940:	1a12      	subs	r2, r2, r0
    1942:	4093      	lsls	r3, r2
    1944:	465a      	mov	r2, fp
    1946:	431a      	orrs	r2, r3
    1948:	1e53      	subs	r3, r2, #1
    194a:	419a      	sbcs	r2, r3
    194c:	464b      	mov	r3, r9
    194e:	431a      	orrs	r2, r3
    1950:	2300      	movs	r3, #0
    1952:	e6b6      	b.n	16c2 <__aeabi_dadd+0x1e2>
    1954:	4d71      	ldr	r5, [pc, #452]	; (1b1c <__aeabi_dadd+0x63c>)
    1956:	45aa      	cmp	sl, r5
    1958:	d000      	beq.n	195c <__aeabi_dadd+0x47c>
    195a:	e76f      	b.n	183c <__aeabi_dadd+0x35c>
    195c:	1c19      	adds	r1, r3, #0
    195e:	465c      	mov	r4, fp
    1960:	4655      	mov	r5, sl
    1962:	4666      	mov	r6, ip
    1964:	e5e5      	b.n	1532 <__aeabi_dadd+0x52>
    1966:	2d00      	cmp	r5, #0
    1968:	d122      	bne.n	19b0 <__aeabi_dadd+0x4d0>
    196a:	1c0d      	adds	r5, r1, #0
    196c:	4325      	orrs	r5, r4
    196e:	d077      	beq.n	1a60 <__aeabi_dadd+0x580>
    1970:	43d5      	mvns	r5, r2
    1972:	2d00      	cmp	r5, #0
    1974:	d171      	bne.n	1a5a <__aeabi_dadd+0x57a>
    1976:	445c      	add	r4, fp
    1978:	455c      	cmp	r4, fp
    197a:	4192      	sbcs	r2, r2
    197c:	1859      	adds	r1, r3, r1
    197e:	4252      	negs	r2, r2
    1980:	1889      	adds	r1, r1, r2
    1982:	4655      	mov	r5, sl
    1984:	e6a4      	b.n	16d0 <__aeabi_dadd+0x1f0>
    1986:	2800      	cmp	r0, #0
    1988:	d14d      	bne.n	1a26 <__aeabi_dadd+0x546>
    198a:	4659      	mov	r1, fp
    198c:	4319      	orrs	r1, r3
    198e:	d100      	bne.n	1992 <__aeabi_dadd+0x4b2>
    1990:	e094      	b.n	1abc <__aeabi_dadd+0x5dc>
    1992:	1c19      	adds	r1, r3, #0
    1994:	465c      	mov	r4, fp
    1996:	4666      	mov	r6, ip
    1998:	4d60      	ldr	r5, [pc, #384]	; (1b1c <__aeabi_dadd+0x63c>)
    199a:	e5ca      	b.n	1532 <__aeabi_dadd+0x52>
    199c:	430c      	orrs	r4, r1
    199e:	1e61      	subs	r1, r4, #1
    19a0:	418c      	sbcs	r4, r1
    19a2:	b2e4      	uxtb	r4, r4
    19a4:	2100      	movs	r1, #0
    19a6:	e75b      	b.n	1860 <__aeabi_dadd+0x380>
    19a8:	1c05      	adds	r5, r0, #0
    19aa:	2100      	movs	r1, #0
    19ac:	2400      	movs	r4, #0
    19ae:	e652      	b.n	1656 <__aeabi_dadd+0x176>
    19b0:	4d5a      	ldr	r5, [pc, #360]	; (1b1c <__aeabi_dadd+0x63c>)
    19b2:	45aa      	cmp	sl, r5
    19b4:	d054      	beq.n	1a60 <__aeabi_dadd+0x580>
    19b6:	4255      	negs	r5, r2
    19b8:	2280      	movs	r2, #128	; 0x80
    19ba:	0410      	lsls	r0, r2, #16
    19bc:	4301      	orrs	r1, r0
    19be:	2d38      	cmp	r5, #56	; 0x38
    19c0:	dd00      	ble.n	19c4 <__aeabi_dadd+0x4e4>
    19c2:	e081      	b.n	1ac8 <__aeabi_dadd+0x5e8>
    19c4:	2d1f      	cmp	r5, #31
    19c6:	dd00      	ble.n	19ca <__aeabi_dadd+0x4ea>
    19c8:	e092      	b.n	1af0 <__aeabi_dadd+0x610>
    19ca:	2220      	movs	r2, #32
    19cc:	1b50      	subs	r0, r2, r5
    19ce:	1c0a      	adds	r2, r1, #0
    19d0:	4684      	mov	ip, r0
    19d2:	4082      	lsls	r2, r0
    19d4:	1c20      	adds	r0, r4, #0
    19d6:	40e8      	lsrs	r0, r5
    19d8:	4302      	orrs	r2, r0
    19da:	4690      	mov	r8, r2
    19dc:	4662      	mov	r2, ip
    19de:	4094      	lsls	r4, r2
    19e0:	1e60      	subs	r0, r4, #1
    19e2:	4184      	sbcs	r4, r0
    19e4:	4642      	mov	r2, r8
    19e6:	4314      	orrs	r4, r2
    19e8:	40e9      	lsrs	r1, r5
    19ea:	445c      	add	r4, fp
    19ec:	455c      	cmp	r4, fp
    19ee:	4192      	sbcs	r2, r2
    19f0:	18cb      	adds	r3, r1, r3
    19f2:	4252      	negs	r2, r2
    19f4:	1899      	adds	r1, r3, r2
    19f6:	4655      	mov	r5, sl
    19f8:	e66a      	b.n	16d0 <__aeabi_dadd+0x1f0>
    19fa:	4658      	mov	r0, fp
    19fc:	4318      	orrs	r0, r3
    19fe:	d100      	bne.n	1a02 <__aeabi_dadd+0x522>
    1a00:	e597      	b.n	1532 <__aeabi_dadd+0x52>
    1a02:	4658      	mov	r0, fp
    1a04:	1a27      	subs	r7, r4, r0
    1a06:	42bc      	cmp	r4, r7
    1a08:	4192      	sbcs	r2, r2
    1a0a:	1ac8      	subs	r0, r1, r3
    1a0c:	4252      	negs	r2, r2
    1a0e:	1a80      	subs	r0, r0, r2
    1a10:	0202      	lsls	r2, r0, #8
    1a12:	d566      	bpl.n	1ae2 <__aeabi_dadd+0x602>
    1a14:	4658      	mov	r0, fp
    1a16:	1b04      	subs	r4, r0, r4
    1a18:	45a3      	cmp	fp, r4
    1a1a:	4192      	sbcs	r2, r2
    1a1c:	1a59      	subs	r1, r3, r1
    1a1e:	4252      	negs	r2, r2
    1a20:	1a89      	subs	r1, r1, r2
    1a22:	4666      	mov	r6, ip
    1a24:	e585      	b.n	1532 <__aeabi_dadd+0x52>
    1a26:	4658      	mov	r0, fp
    1a28:	4318      	orrs	r0, r3
    1a2a:	d033      	beq.n	1a94 <__aeabi_dadd+0x5b4>
    1a2c:	0748      	lsls	r0, r1, #29
    1a2e:	08e4      	lsrs	r4, r4, #3
    1a30:	4304      	orrs	r4, r0
    1a32:	2080      	movs	r0, #128	; 0x80
    1a34:	08c9      	lsrs	r1, r1, #3
    1a36:	0300      	lsls	r0, r0, #12
    1a38:	4201      	tst	r1, r0
    1a3a:	d008      	beq.n	1a4e <__aeabi_dadd+0x56e>
    1a3c:	08dd      	lsrs	r5, r3, #3
    1a3e:	4205      	tst	r5, r0
    1a40:	d105      	bne.n	1a4e <__aeabi_dadd+0x56e>
    1a42:	4659      	mov	r1, fp
    1a44:	08ca      	lsrs	r2, r1, #3
    1a46:	075c      	lsls	r4, r3, #29
    1a48:	4314      	orrs	r4, r2
    1a4a:	1c29      	adds	r1, r5, #0
    1a4c:	4666      	mov	r6, ip
    1a4e:	0f63      	lsrs	r3, r4, #29
    1a50:	00c9      	lsls	r1, r1, #3
    1a52:	4319      	orrs	r1, r3
    1a54:	00e4      	lsls	r4, r4, #3
    1a56:	4d31      	ldr	r5, [pc, #196]	; (1b1c <__aeabi_dadd+0x63c>)
    1a58:	e56b      	b.n	1532 <__aeabi_dadd+0x52>
    1a5a:	4a30      	ldr	r2, [pc, #192]	; (1b1c <__aeabi_dadd+0x63c>)
    1a5c:	4592      	cmp	sl, r2
    1a5e:	d1ae      	bne.n	19be <__aeabi_dadd+0x4de>
    1a60:	1c19      	adds	r1, r3, #0
    1a62:	465c      	mov	r4, fp
    1a64:	4655      	mov	r5, sl
    1a66:	e564      	b.n	1532 <__aeabi_dadd+0x52>
    1a68:	2800      	cmp	r0, #0
    1a6a:	d036      	beq.n	1ada <__aeabi_dadd+0x5fa>
    1a6c:	4658      	mov	r0, fp
    1a6e:	4318      	orrs	r0, r3
    1a70:	d010      	beq.n	1a94 <__aeabi_dadd+0x5b4>
    1a72:	2580      	movs	r5, #128	; 0x80
    1a74:	0748      	lsls	r0, r1, #29
    1a76:	08e4      	lsrs	r4, r4, #3
    1a78:	08c9      	lsrs	r1, r1, #3
    1a7a:	032d      	lsls	r5, r5, #12
    1a7c:	4304      	orrs	r4, r0
    1a7e:	4229      	tst	r1, r5
    1a80:	d0e5      	beq.n	1a4e <__aeabi_dadd+0x56e>
    1a82:	08d8      	lsrs	r0, r3, #3
    1a84:	4228      	tst	r0, r5
    1a86:	d1e2      	bne.n	1a4e <__aeabi_dadd+0x56e>
    1a88:	465d      	mov	r5, fp
    1a8a:	08ea      	lsrs	r2, r5, #3
    1a8c:	075c      	lsls	r4, r3, #29
    1a8e:	4314      	orrs	r4, r2
    1a90:	1c01      	adds	r1, r0, #0
    1a92:	e7dc      	b.n	1a4e <__aeabi_dadd+0x56e>
    1a94:	4d21      	ldr	r5, [pc, #132]	; (1b1c <__aeabi_dadd+0x63c>)
    1a96:	e54c      	b.n	1532 <__aeabi_dadd+0x52>
    1a98:	2300      	movs	r3, #0
    1a9a:	e753      	b.n	1944 <__aeabi_dadd+0x464>
    1a9c:	1c3d      	adds	r5, r7, #0
    1a9e:	3d20      	subs	r5, #32
    1aa0:	1c0a      	adds	r2, r1, #0
    1aa2:	40ea      	lsrs	r2, r5
    1aa4:	1c15      	adds	r5, r2, #0
    1aa6:	2f20      	cmp	r7, #32
    1aa8:	d034      	beq.n	1b14 <__aeabi_dadd+0x634>
    1aaa:	2640      	movs	r6, #64	; 0x40
    1aac:	1bf7      	subs	r7, r6, r7
    1aae:	40b9      	lsls	r1, r7
    1ab0:	430c      	orrs	r4, r1
    1ab2:	1e61      	subs	r1, r4, #1
    1ab4:	418c      	sbcs	r4, r1
    1ab6:	432c      	orrs	r4, r5
    1ab8:	2100      	movs	r1, #0
    1aba:	e6d1      	b.n	1860 <__aeabi_dadd+0x380>
    1abc:	2180      	movs	r1, #128	; 0x80
    1abe:	2700      	movs	r7, #0
    1ac0:	03c9      	lsls	r1, r1, #15
    1ac2:	4d16      	ldr	r5, [pc, #88]	; (1b1c <__aeabi_dadd+0x63c>)
    1ac4:	2400      	movs	r4, #0
    1ac6:	e5c6      	b.n	1656 <__aeabi_dadd+0x176>
    1ac8:	430c      	orrs	r4, r1
    1aca:	1e61      	subs	r1, r4, #1
    1acc:	418c      	sbcs	r4, r1
    1ace:	b2e4      	uxtb	r4, r4
    1ad0:	2100      	movs	r1, #0
    1ad2:	e78a      	b.n	19ea <__aeabi_dadd+0x50a>
    1ad4:	1c19      	adds	r1, r3, #0
    1ad6:	465c      	mov	r4, fp
    1ad8:	e52b      	b.n	1532 <__aeabi_dadd+0x52>
    1ada:	1c19      	adds	r1, r3, #0
    1adc:	465c      	mov	r4, fp
    1ade:	4d0f      	ldr	r5, [pc, #60]	; (1b1c <__aeabi_dadd+0x63c>)
    1ae0:	e527      	b.n	1532 <__aeabi_dadd+0x52>
    1ae2:	1c03      	adds	r3, r0, #0
    1ae4:	433b      	orrs	r3, r7
    1ae6:	d100      	bne.n	1aea <__aeabi_dadd+0x60a>
    1ae8:	e71c      	b.n	1924 <__aeabi_dadd+0x444>
    1aea:	1c01      	adds	r1, r0, #0
    1aec:	1c3c      	adds	r4, r7, #0
    1aee:	e520      	b.n	1532 <__aeabi_dadd+0x52>
    1af0:	2020      	movs	r0, #32
    1af2:	4240      	negs	r0, r0
    1af4:	1940      	adds	r0, r0, r5
    1af6:	1c0a      	adds	r2, r1, #0
    1af8:	40c2      	lsrs	r2, r0
    1afa:	4690      	mov	r8, r2
    1afc:	2d20      	cmp	r5, #32
    1afe:	d00b      	beq.n	1b18 <__aeabi_dadd+0x638>
    1b00:	2040      	movs	r0, #64	; 0x40
    1b02:	1b45      	subs	r5, r0, r5
    1b04:	40a9      	lsls	r1, r5
    1b06:	430c      	orrs	r4, r1
    1b08:	1e61      	subs	r1, r4, #1
    1b0a:	418c      	sbcs	r4, r1
    1b0c:	4645      	mov	r5, r8
    1b0e:	432c      	orrs	r4, r5
    1b10:	2100      	movs	r1, #0
    1b12:	e76a      	b.n	19ea <__aeabi_dadd+0x50a>
    1b14:	2100      	movs	r1, #0
    1b16:	e7cb      	b.n	1ab0 <__aeabi_dadd+0x5d0>
    1b18:	2100      	movs	r1, #0
    1b1a:	e7f4      	b.n	1b06 <__aeabi_dadd+0x626>
    1b1c:	000007ff 	.word	0x000007ff
    1b20:	ff7fffff 	.word	0xff7fffff

00001b24 <__aeabi_ddiv>:
__aeabi_ddiv():
    1b24:	b5f0      	push	{r4, r5, r6, r7, lr}
    1b26:	4656      	mov	r6, sl
    1b28:	4644      	mov	r4, r8
    1b2a:	465f      	mov	r7, fp
    1b2c:	464d      	mov	r5, r9
    1b2e:	b4f0      	push	{r4, r5, r6, r7}
    1b30:	1c1f      	adds	r7, r3, #0
    1b32:	030b      	lsls	r3, r1, #12
    1b34:	0b1b      	lsrs	r3, r3, #12
    1b36:	4698      	mov	r8, r3
    1b38:	004b      	lsls	r3, r1, #1
    1b3a:	b087      	sub	sp, #28
    1b3c:	1c04      	adds	r4, r0, #0
    1b3e:	4681      	mov	r9, r0
    1b40:	0d5b      	lsrs	r3, r3, #21
    1b42:	0fc8      	lsrs	r0, r1, #31
    1b44:	1c16      	adds	r6, r2, #0
    1b46:	469a      	mov	sl, r3
    1b48:	9000      	str	r0, [sp, #0]
    1b4a:	2b00      	cmp	r3, #0
    1b4c:	d051      	beq.n	1bf2 <__aeabi_ddiv+0xce>
    1b4e:	4b6a      	ldr	r3, [pc, #424]	; (1cf8 <__aeabi_ddiv+0x1d4>)
    1b50:	459a      	cmp	sl, r3
    1b52:	d031      	beq.n	1bb8 <__aeabi_ddiv+0x94>
    1b54:	2280      	movs	r2, #128	; 0x80
    1b56:	4641      	mov	r1, r8
    1b58:	0352      	lsls	r2, r2, #13
    1b5a:	430a      	orrs	r2, r1
    1b5c:	0f63      	lsrs	r3, r4, #29
    1b5e:	00d2      	lsls	r2, r2, #3
    1b60:	431a      	orrs	r2, r3
    1b62:	4b66      	ldr	r3, [pc, #408]	; (1cfc <__aeabi_ddiv+0x1d8>)
    1b64:	4690      	mov	r8, r2
    1b66:	2500      	movs	r5, #0
    1b68:	00e2      	lsls	r2, r4, #3
    1b6a:	4691      	mov	r9, r2
    1b6c:	449a      	add	sl, r3
    1b6e:	2400      	movs	r4, #0
    1b70:	9502      	str	r5, [sp, #8]
    1b72:	033b      	lsls	r3, r7, #12
    1b74:	0b1b      	lsrs	r3, r3, #12
    1b76:	469b      	mov	fp, r3
    1b78:	0ffd      	lsrs	r5, r7, #31
    1b7a:	007b      	lsls	r3, r7, #1
    1b7c:	1c31      	adds	r1, r6, #0
    1b7e:	0d5b      	lsrs	r3, r3, #21
    1b80:	9501      	str	r5, [sp, #4]
    1b82:	d060      	beq.n	1c46 <__aeabi_ddiv+0x122>
    1b84:	4a5c      	ldr	r2, [pc, #368]	; (1cf8 <__aeabi_ddiv+0x1d4>)
    1b86:	4293      	cmp	r3, r2
    1b88:	d054      	beq.n	1c34 <__aeabi_ddiv+0x110>
    1b8a:	2180      	movs	r1, #128	; 0x80
    1b8c:	4658      	mov	r0, fp
    1b8e:	0349      	lsls	r1, r1, #13
    1b90:	4301      	orrs	r1, r0
    1b92:	0f72      	lsrs	r2, r6, #29
    1b94:	00c9      	lsls	r1, r1, #3
    1b96:	4311      	orrs	r1, r2
    1b98:	4a58      	ldr	r2, [pc, #352]	; (1cfc <__aeabi_ddiv+0x1d8>)
    1b9a:	468b      	mov	fp, r1
    1b9c:	189b      	adds	r3, r3, r2
    1b9e:	00f1      	lsls	r1, r6, #3
    1ba0:	2000      	movs	r0, #0
    1ba2:	9a00      	ldr	r2, [sp, #0]
    1ba4:	4304      	orrs	r4, r0
    1ba6:	406a      	eors	r2, r5
    1ba8:	9203      	str	r2, [sp, #12]
    1baa:	2c0f      	cmp	r4, #15
    1bac:	d900      	bls.n	1bb0 <__aeabi_ddiv+0x8c>
    1bae:	e0ad      	b.n	1d0c <__aeabi_ddiv+0x1e8>
    1bb0:	4e53      	ldr	r6, [pc, #332]	; (1d00 <__aeabi_ddiv+0x1dc>)
    1bb2:	00a4      	lsls	r4, r4, #2
    1bb4:	5934      	ldr	r4, [r6, r4]
    1bb6:	46a7      	mov	pc, r4
    1bb8:	4640      	mov	r0, r8
    1bba:	4304      	orrs	r4, r0
    1bbc:	d16e      	bne.n	1c9c <__aeabi_ddiv+0x178>
    1bbe:	2100      	movs	r1, #0
    1bc0:	2502      	movs	r5, #2
    1bc2:	2408      	movs	r4, #8
    1bc4:	4688      	mov	r8, r1
    1bc6:	4689      	mov	r9, r1
    1bc8:	9502      	str	r5, [sp, #8]
    1bca:	e7d2      	b.n	1b72 <__aeabi_ddiv+0x4e>
    1bcc:	9c00      	ldr	r4, [sp, #0]
    1bce:	9802      	ldr	r0, [sp, #8]
    1bd0:	46c3      	mov	fp, r8
    1bd2:	4649      	mov	r1, r9
    1bd4:	9401      	str	r4, [sp, #4]
    1bd6:	2802      	cmp	r0, #2
    1bd8:	d064      	beq.n	1ca4 <__aeabi_ddiv+0x180>
    1bda:	2803      	cmp	r0, #3
    1bdc:	d100      	bne.n	1be0 <__aeabi_ddiv+0xbc>
    1bde:	e2ab      	b.n	2138 <__aeabi_ddiv+0x614>
    1be0:	2801      	cmp	r0, #1
    1be2:	d000      	beq.n	1be6 <__aeabi_ddiv+0xc2>
    1be4:	e238      	b.n	2058 <__aeabi_ddiv+0x534>
    1be6:	9a01      	ldr	r2, [sp, #4]
    1be8:	2400      	movs	r4, #0
    1bea:	4002      	ands	r2, r0
    1bec:	2500      	movs	r5, #0
    1bee:	46a1      	mov	r9, r4
    1bf0:	e060      	b.n	1cb4 <__aeabi_ddiv+0x190>
    1bf2:	4643      	mov	r3, r8
    1bf4:	4323      	orrs	r3, r4
    1bf6:	d04a      	beq.n	1c8e <__aeabi_ddiv+0x16a>
    1bf8:	4640      	mov	r0, r8
    1bfa:	2800      	cmp	r0, #0
    1bfc:	d100      	bne.n	1c00 <__aeabi_ddiv+0xdc>
    1bfe:	e1c0      	b.n	1f82 <__aeabi_ddiv+0x45e>
    1c00:	f001 fb0e 	bl	3220 <__clzsi2>
    1c04:	1e03      	subs	r3, r0, #0
    1c06:	2b27      	cmp	r3, #39	; 0x27
    1c08:	dd00      	ble.n	1c0c <__aeabi_ddiv+0xe8>
    1c0a:	e1b3      	b.n	1f74 <__aeabi_ddiv+0x450>
    1c0c:	2128      	movs	r1, #40	; 0x28
    1c0e:	1a0d      	subs	r5, r1, r0
    1c10:	1c21      	adds	r1, r4, #0
    1c12:	3b08      	subs	r3, #8
    1c14:	4642      	mov	r2, r8
    1c16:	40e9      	lsrs	r1, r5
    1c18:	409a      	lsls	r2, r3
    1c1a:	1c0d      	adds	r5, r1, #0
    1c1c:	4315      	orrs	r5, r2
    1c1e:	1c22      	adds	r2, r4, #0
    1c20:	409a      	lsls	r2, r3
    1c22:	46a8      	mov	r8, r5
    1c24:	4691      	mov	r9, r2
    1c26:	4b37      	ldr	r3, [pc, #220]	; (1d04 <__aeabi_ddiv+0x1e0>)
    1c28:	2500      	movs	r5, #0
    1c2a:	1a1b      	subs	r3, r3, r0
    1c2c:	469a      	mov	sl, r3
    1c2e:	2400      	movs	r4, #0
    1c30:	9502      	str	r5, [sp, #8]
    1c32:	e79e      	b.n	1b72 <__aeabi_ddiv+0x4e>
    1c34:	465a      	mov	r2, fp
    1c36:	4316      	orrs	r6, r2
    1c38:	2003      	movs	r0, #3
    1c3a:	2e00      	cmp	r6, #0
    1c3c:	d1b1      	bne.n	1ba2 <__aeabi_ddiv+0x7e>
    1c3e:	46b3      	mov	fp, r6
    1c40:	2100      	movs	r1, #0
    1c42:	2002      	movs	r0, #2
    1c44:	e7ad      	b.n	1ba2 <__aeabi_ddiv+0x7e>
    1c46:	465a      	mov	r2, fp
    1c48:	4332      	orrs	r2, r6
    1c4a:	d01b      	beq.n	1c84 <__aeabi_ddiv+0x160>
    1c4c:	465b      	mov	r3, fp
    1c4e:	2b00      	cmp	r3, #0
    1c50:	d100      	bne.n	1c54 <__aeabi_ddiv+0x130>
    1c52:	e18a      	b.n	1f6a <__aeabi_ddiv+0x446>
    1c54:	4658      	mov	r0, fp
    1c56:	f001 fae3 	bl	3220 <__clzsi2>
    1c5a:	2827      	cmp	r0, #39	; 0x27
    1c5c:	dd00      	ble.n	1c60 <__aeabi_ddiv+0x13c>
    1c5e:	e17d      	b.n	1f5c <__aeabi_ddiv+0x438>
    1c60:	2228      	movs	r2, #40	; 0x28
    1c62:	1a17      	subs	r7, r2, r0
    1c64:	1c01      	adds	r1, r0, #0
    1c66:	1c32      	adds	r2, r6, #0
    1c68:	3908      	subs	r1, #8
    1c6a:	465b      	mov	r3, fp
    1c6c:	40fa      	lsrs	r2, r7
    1c6e:	408b      	lsls	r3, r1
    1c70:	1c17      	adds	r7, r2, #0
    1c72:	431f      	orrs	r7, r3
    1c74:	1c33      	adds	r3, r6, #0
    1c76:	408b      	lsls	r3, r1
    1c78:	46bb      	mov	fp, r7
    1c7a:	1c19      	adds	r1, r3, #0
    1c7c:	4b21      	ldr	r3, [pc, #132]	; (1d04 <__aeabi_ddiv+0x1e0>)
    1c7e:	1a1b      	subs	r3, r3, r0
    1c80:	2000      	movs	r0, #0
    1c82:	e78e      	b.n	1ba2 <__aeabi_ddiv+0x7e>
    1c84:	2700      	movs	r7, #0
    1c86:	46bb      	mov	fp, r7
    1c88:	2100      	movs	r1, #0
    1c8a:	2001      	movs	r0, #1
    1c8c:	e789      	b.n	1ba2 <__aeabi_ddiv+0x7e>
    1c8e:	2000      	movs	r0, #0
    1c90:	2501      	movs	r5, #1
    1c92:	2404      	movs	r4, #4
    1c94:	4680      	mov	r8, r0
    1c96:	4681      	mov	r9, r0
    1c98:	9502      	str	r5, [sp, #8]
    1c9a:	e76a      	b.n	1b72 <__aeabi_ddiv+0x4e>
    1c9c:	2503      	movs	r5, #3
    1c9e:	240c      	movs	r4, #12
    1ca0:	9502      	str	r5, [sp, #8]
    1ca2:	e766      	b.n	1b72 <__aeabi_ddiv+0x4e>
    1ca4:	9c01      	ldr	r4, [sp, #4]
    1ca6:	9403      	str	r4, [sp, #12]
    1ca8:	9d03      	ldr	r5, [sp, #12]
    1caa:	2201      	movs	r2, #1
    1cac:	402a      	ands	r2, r5
    1cae:	2400      	movs	r4, #0
    1cb0:	4d11      	ldr	r5, [pc, #68]	; (1cf8 <__aeabi_ddiv+0x1d4>)
    1cb2:	46a1      	mov	r9, r4
    1cb4:	2000      	movs	r0, #0
    1cb6:	2100      	movs	r1, #0
    1cb8:	0324      	lsls	r4, r4, #12
    1cba:	0b26      	lsrs	r6, r4, #12
    1cbc:	0d0c      	lsrs	r4, r1, #20
    1cbe:	0524      	lsls	r4, r4, #20
    1cc0:	4b11      	ldr	r3, [pc, #68]	; (1d08 <__aeabi_ddiv+0x1e4>)
    1cc2:	4334      	orrs	r4, r6
    1cc4:	052d      	lsls	r5, r5, #20
    1cc6:	4023      	ands	r3, r4
    1cc8:	432b      	orrs	r3, r5
    1cca:	005b      	lsls	r3, r3, #1
    1ccc:	085b      	lsrs	r3, r3, #1
    1cce:	07d2      	lsls	r2, r2, #31
    1cd0:	1c19      	adds	r1, r3, #0
    1cd2:	4648      	mov	r0, r9
    1cd4:	4311      	orrs	r1, r2
    1cd6:	b007      	add	sp, #28
    1cd8:	bc3c      	pop	{r2, r3, r4, r5}
    1cda:	4690      	mov	r8, r2
    1cdc:	4699      	mov	r9, r3
    1cde:	46a2      	mov	sl, r4
    1ce0:	46ab      	mov	fp, r5
    1ce2:	bdf0      	pop	{r4, r5, r6, r7, pc}
    1ce4:	2200      	movs	r2, #0
    1ce6:	2480      	movs	r4, #128	; 0x80
    1ce8:	0324      	lsls	r4, r4, #12
    1cea:	4691      	mov	r9, r2
    1cec:	4d02      	ldr	r5, [pc, #8]	; (1cf8 <__aeabi_ddiv+0x1d4>)
    1cee:	e7e1      	b.n	1cb4 <__aeabi_ddiv+0x190>
    1cf0:	2400      	movs	r4, #0
    1cf2:	2500      	movs	r5, #0
    1cf4:	46a1      	mov	r9, r4
    1cf6:	e7dd      	b.n	1cb4 <__aeabi_ddiv+0x190>
    1cf8:	000007ff 	.word	0x000007ff
    1cfc:	fffffc01 	.word	0xfffffc01
    1d00:	00006258 	.word	0x00006258
    1d04:	fffffc0d 	.word	0xfffffc0d
    1d08:	800fffff 	.word	0x800fffff
    1d0c:	4655      	mov	r5, sl
    1d0e:	1aed      	subs	r5, r5, r3
    1d10:	9504      	str	r5, [sp, #16]
    1d12:	45d8      	cmp	r8, fp
    1d14:	d900      	bls.n	1d18 <__aeabi_ddiv+0x1f4>
    1d16:	e153      	b.n	1fc0 <__aeabi_ddiv+0x49c>
    1d18:	d100      	bne.n	1d1c <__aeabi_ddiv+0x1f8>
    1d1a:	e14e      	b.n	1fba <__aeabi_ddiv+0x496>
    1d1c:	9c04      	ldr	r4, [sp, #16]
    1d1e:	2500      	movs	r5, #0
    1d20:	3c01      	subs	r4, #1
    1d22:	464e      	mov	r6, r9
    1d24:	9404      	str	r4, [sp, #16]
    1d26:	4647      	mov	r7, r8
    1d28:	46a9      	mov	r9, r5
    1d2a:	4658      	mov	r0, fp
    1d2c:	0203      	lsls	r3, r0, #8
    1d2e:	0e0c      	lsrs	r4, r1, #24
    1d30:	431c      	orrs	r4, r3
    1d32:	0209      	lsls	r1, r1, #8
    1d34:	0c25      	lsrs	r5, r4, #16
    1d36:	0423      	lsls	r3, r4, #16
    1d38:	0c1b      	lsrs	r3, r3, #16
    1d3a:	9100      	str	r1, [sp, #0]
    1d3c:	1c38      	adds	r0, r7, #0
    1d3e:	1c29      	adds	r1, r5, #0
    1d40:	9301      	str	r3, [sp, #4]
    1d42:	f7fe fbd1 	bl	4e8 <__aeabi_uidiv>
    1d46:	9901      	ldr	r1, [sp, #4]
    1d48:	4683      	mov	fp, r0
    1d4a:	4341      	muls	r1, r0
    1d4c:	1c38      	adds	r0, r7, #0
    1d4e:	468a      	mov	sl, r1
    1d50:	1c29      	adds	r1, r5, #0
    1d52:	f7fe fc0d 	bl	570 <__aeabi_uidivmod>
    1d56:	0c33      	lsrs	r3, r6, #16
    1d58:	0409      	lsls	r1, r1, #16
    1d5a:	4319      	orrs	r1, r3
    1d5c:	458a      	cmp	sl, r1
    1d5e:	d90c      	bls.n	1d7a <__aeabi_ddiv+0x256>
    1d60:	465b      	mov	r3, fp
    1d62:	1909      	adds	r1, r1, r4
    1d64:	3b01      	subs	r3, #1
    1d66:	428c      	cmp	r4, r1
    1d68:	d900      	bls.n	1d6c <__aeabi_ddiv+0x248>
    1d6a:	e147      	b.n	1ffc <__aeabi_ddiv+0x4d8>
    1d6c:	458a      	cmp	sl, r1
    1d6e:	d800      	bhi.n	1d72 <__aeabi_ddiv+0x24e>
    1d70:	e144      	b.n	1ffc <__aeabi_ddiv+0x4d8>
    1d72:	2202      	movs	r2, #2
    1d74:	4252      	negs	r2, r2
    1d76:	4493      	add	fp, r2
    1d78:	1909      	adds	r1, r1, r4
    1d7a:	4653      	mov	r3, sl
    1d7c:	1acb      	subs	r3, r1, r3
    1d7e:	1c18      	adds	r0, r3, #0
    1d80:	1c29      	adds	r1, r5, #0
    1d82:	4698      	mov	r8, r3
    1d84:	f7fe fbb0 	bl	4e8 <__aeabi_uidiv>
    1d88:	1c07      	adds	r7, r0, #0
    1d8a:	9801      	ldr	r0, [sp, #4]
    1d8c:	1c29      	adds	r1, r5, #0
    1d8e:	4378      	muls	r0, r7
    1d90:	4682      	mov	sl, r0
    1d92:	4640      	mov	r0, r8
    1d94:	f7fe fbec 	bl	570 <__aeabi_uidivmod>
    1d98:	0436      	lsls	r6, r6, #16
    1d9a:	040b      	lsls	r3, r1, #16
    1d9c:	0c36      	lsrs	r6, r6, #16
    1d9e:	4333      	orrs	r3, r6
    1da0:	459a      	cmp	sl, r3
    1da2:	d909      	bls.n	1db8 <__aeabi_ddiv+0x294>
    1da4:	191b      	adds	r3, r3, r4
    1da6:	1e7a      	subs	r2, r7, #1
    1da8:	429c      	cmp	r4, r3
    1daa:	d900      	bls.n	1dae <__aeabi_ddiv+0x28a>
    1dac:	e124      	b.n	1ff8 <__aeabi_ddiv+0x4d4>
    1dae:	459a      	cmp	sl, r3
    1db0:	d800      	bhi.n	1db4 <__aeabi_ddiv+0x290>
    1db2:	e121      	b.n	1ff8 <__aeabi_ddiv+0x4d4>
    1db4:	3f02      	subs	r7, #2
    1db6:	191b      	adds	r3, r3, r4
    1db8:	465e      	mov	r6, fp
    1dba:	0432      	lsls	r2, r6, #16
    1dbc:	4317      	orrs	r7, r2
    1dbe:	0c38      	lsrs	r0, r7, #16
    1dc0:	46bb      	mov	fp, r7
    1dc2:	9e00      	ldr	r6, [sp, #0]
    1dc4:	9f00      	ldr	r7, [sp, #0]
    1dc6:	4651      	mov	r1, sl
    1dc8:	0c3f      	lsrs	r7, r7, #16
    1dca:	0432      	lsls	r2, r6, #16
    1dcc:	1a5b      	subs	r3, r3, r1
    1dce:	4659      	mov	r1, fp
    1dd0:	46ba      	mov	sl, r7
    1dd2:	0c12      	lsrs	r2, r2, #16
    1dd4:	040f      	lsls	r7, r1, #16
    1dd6:	0c3f      	lsrs	r7, r7, #16
    1dd8:	4690      	mov	r8, r2
    1dda:	4651      	mov	r1, sl
    1ddc:	437a      	muls	r2, r7
    1dde:	434f      	muls	r7, r1
    1de0:	4641      	mov	r1, r8
    1de2:	4341      	muls	r1, r0
    1de4:	4656      	mov	r6, sl
    1de6:	4370      	muls	r0, r6
    1de8:	19cf      	adds	r7, r1, r7
    1dea:	0c16      	lsrs	r6, r2, #16
    1dec:	19be      	adds	r6, r7, r6
    1dee:	42b1      	cmp	r1, r6
    1df0:	d902      	bls.n	1df8 <__aeabi_ddiv+0x2d4>
    1df2:	2780      	movs	r7, #128	; 0x80
    1df4:	027f      	lsls	r7, r7, #9
    1df6:	19c0      	adds	r0, r0, r7
    1df8:	0c31      	lsrs	r1, r6, #16
    1dfa:	0412      	lsls	r2, r2, #16
    1dfc:	0436      	lsls	r6, r6, #16
    1dfe:	0c12      	lsrs	r2, r2, #16
    1e00:	1840      	adds	r0, r0, r1
    1e02:	18b6      	adds	r6, r6, r2
    1e04:	4283      	cmp	r3, r0
    1e06:	d200      	bcs.n	1e0a <__aeabi_ddiv+0x2e6>
    1e08:	e0c4      	b.n	1f94 <__aeabi_ddiv+0x470>
    1e0a:	d100      	bne.n	1e0e <__aeabi_ddiv+0x2ea>
    1e0c:	e0be      	b.n	1f8c <__aeabi_ddiv+0x468>
    1e0e:	1a19      	subs	r1, r3, r0
    1e10:	4648      	mov	r0, r9
    1e12:	1b86      	subs	r6, r0, r6
    1e14:	45b1      	cmp	r9, r6
    1e16:	41bf      	sbcs	r7, r7
    1e18:	427f      	negs	r7, r7
    1e1a:	1bcf      	subs	r7, r1, r7
    1e1c:	42a7      	cmp	r7, r4
    1e1e:	d100      	bne.n	1e22 <__aeabi_ddiv+0x2fe>
    1e20:	e113      	b.n	204a <__aeabi_ddiv+0x526>
    1e22:	1c29      	adds	r1, r5, #0
    1e24:	1c38      	adds	r0, r7, #0
    1e26:	f7fe fb5f 	bl	4e8 <__aeabi_uidiv>
    1e2a:	9901      	ldr	r1, [sp, #4]
    1e2c:	9002      	str	r0, [sp, #8]
    1e2e:	4341      	muls	r1, r0
    1e30:	1c38      	adds	r0, r7, #0
    1e32:	4689      	mov	r9, r1
    1e34:	1c29      	adds	r1, r5, #0
    1e36:	f7fe fb9b 	bl	570 <__aeabi_uidivmod>
    1e3a:	0c33      	lsrs	r3, r6, #16
    1e3c:	0409      	lsls	r1, r1, #16
    1e3e:	4319      	orrs	r1, r3
    1e40:	4589      	cmp	r9, r1
    1e42:	d90c      	bls.n	1e5e <__aeabi_ddiv+0x33a>
    1e44:	9b02      	ldr	r3, [sp, #8]
    1e46:	1909      	adds	r1, r1, r4
    1e48:	3b01      	subs	r3, #1
    1e4a:	428c      	cmp	r4, r1
    1e4c:	d900      	bls.n	1e50 <__aeabi_ddiv+0x32c>
    1e4e:	e0ff      	b.n	2050 <__aeabi_ddiv+0x52c>
    1e50:	4589      	cmp	r9, r1
    1e52:	d800      	bhi.n	1e56 <__aeabi_ddiv+0x332>
    1e54:	e0fc      	b.n	2050 <__aeabi_ddiv+0x52c>
    1e56:	9f02      	ldr	r7, [sp, #8]
    1e58:	1909      	adds	r1, r1, r4
    1e5a:	3f02      	subs	r7, #2
    1e5c:	9702      	str	r7, [sp, #8]
    1e5e:	464f      	mov	r7, r9
    1e60:	1bcf      	subs	r7, r1, r7
    1e62:	1c38      	adds	r0, r7, #0
    1e64:	1c29      	adds	r1, r5, #0
    1e66:	9705      	str	r7, [sp, #20]
    1e68:	f7fe fb3e 	bl	4e8 <__aeabi_uidiv>
    1e6c:	1c07      	adds	r7, r0, #0
    1e6e:	9801      	ldr	r0, [sp, #4]
    1e70:	1c29      	adds	r1, r5, #0
    1e72:	4378      	muls	r0, r7
    1e74:	4681      	mov	r9, r0
    1e76:	9805      	ldr	r0, [sp, #20]
    1e78:	f7fe fb7a 	bl	570 <__aeabi_uidivmod>
    1e7c:	0436      	lsls	r6, r6, #16
    1e7e:	0409      	lsls	r1, r1, #16
    1e80:	0c36      	lsrs	r6, r6, #16
    1e82:	430e      	orrs	r6, r1
    1e84:	45b1      	cmp	r9, r6
    1e86:	d909      	bls.n	1e9c <__aeabi_ddiv+0x378>
    1e88:	1936      	adds	r6, r6, r4
    1e8a:	1e7b      	subs	r3, r7, #1
    1e8c:	42b4      	cmp	r4, r6
    1e8e:	d900      	bls.n	1e92 <__aeabi_ddiv+0x36e>
    1e90:	e0e0      	b.n	2054 <__aeabi_ddiv+0x530>
    1e92:	45b1      	cmp	r9, r6
    1e94:	d800      	bhi.n	1e98 <__aeabi_ddiv+0x374>
    1e96:	e0dd      	b.n	2054 <__aeabi_ddiv+0x530>
    1e98:	3f02      	subs	r7, #2
    1e9a:	1936      	adds	r6, r6, r4
    1e9c:	9d02      	ldr	r5, [sp, #8]
    1e9e:	4649      	mov	r1, r9
    1ea0:	1a76      	subs	r6, r6, r1
    1ea2:	0429      	lsls	r1, r5, #16
    1ea4:	4339      	orrs	r1, r7
    1ea6:	040b      	lsls	r3, r1, #16
    1ea8:	4657      	mov	r7, sl
    1eaa:	0c0a      	lsrs	r2, r1, #16
    1eac:	0c1b      	lsrs	r3, r3, #16
    1eae:	4640      	mov	r0, r8
    1eb0:	4645      	mov	r5, r8
    1eb2:	4358      	muls	r0, r3
    1eb4:	4355      	muls	r5, r2
    1eb6:	437b      	muls	r3, r7
    1eb8:	437a      	muls	r2, r7
    1eba:	18eb      	adds	r3, r5, r3
    1ebc:	0c07      	lsrs	r7, r0, #16
    1ebe:	19db      	adds	r3, r3, r7
    1ec0:	429d      	cmp	r5, r3
    1ec2:	d902      	bls.n	1eca <__aeabi_ddiv+0x3a6>
    1ec4:	2580      	movs	r5, #128	; 0x80
    1ec6:	026d      	lsls	r5, r5, #9
    1ec8:	1952      	adds	r2, r2, r5
    1eca:	0c1d      	lsrs	r5, r3, #16
    1ecc:	0400      	lsls	r0, r0, #16
    1ece:	041b      	lsls	r3, r3, #16
    1ed0:	0c00      	lsrs	r0, r0, #16
    1ed2:	1952      	adds	r2, r2, r5
    1ed4:	181b      	adds	r3, r3, r0
    1ed6:	4296      	cmp	r6, r2
    1ed8:	d335      	bcc.n	1f46 <__aeabi_ddiv+0x422>
    1eda:	d100      	bne.n	1ede <__aeabi_ddiv+0x3ba>
    1edc:	e0fc      	b.n	20d8 <__aeabi_ddiv+0x5b4>
    1ede:	2301      	movs	r3, #1
    1ee0:	4319      	orrs	r1, r3
    1ee2:	9e04      	ldr	r6, [sp, #16]
    1ee4:	4f99      	ldr	r7, [pc, #612]	; (214c <__aeabi_ddiv+0x628>)
    1ee6:	19f5      	adds	r5, r6, r7
    1ee8:	2d00      	cmp	r5, #0
    1eea:	dc00      	bgt.n	1eee <__aeabi_ddiv+0x3ca>
    1eec:	e0a1      	b.n	2032 <__aeabi_ddiv+0x50e>
    1eee:	0748      	lsls	r0, r1, #29
    1ef0:	d009      	beq.n	1f06 <__aeabi_ddiv+0x3e2>
    1ef2:	230f      	movs	r3, #15
    1ef4:	400b      	ands	r3, r1
    1ef6:	2b04      	cmp	r3, #4
    1ef8:	d005      	beq.n	1f06 <__aeabi_ddiv+0x3e2>
    1efa:	1d0b      	adds	r3, r1, #4
    1efc:	428b      	cmp	r3, r1
    1efe:	4189      	sbcs	r1, r1
    1f00:	4249      	negs	r1, r1
    1f02:	448b      	add	fp, r1
    1f04:	1c19      	adds	r1, r3, #0
    1f06:	465a      	mov	r2, fp
    1f08:	01d2      	lsls	r2, r2, #7
    1f0a:	d507      	bpl.n	1f1c <__aeabi_ddiv+0x3f8>
    1f0c:	4b90      	ldr	r3, [pc, #576]	; (2150 <__aeabi_ddiv+0x62c>)
    1f0e:	465c      	mov	r4, fp
    1f10:	9e04      	ldr	r6, [sp, #16]
    1f12:	2780      	movs	r7, #128	; 0x80
    1f14:	401c      	ands	r4, r3
    1f16:	00ff      	lsls	r7, r7, #3
    1f18:	46a3      	mov	fp, r4
    1f1a:	19f5      	adds	r5, r6, r7
    1f1c:	4b8d      	ldr	r3, [pc, #564]	; (2154 <__aeabi_ddiv+0x630>)
    1f1e:	429d      	cmp	r5, r3
    1f20:	dd7a      	ble.n	2018 <__aeabi_ddiv+0x4f4>
    1f22:	9c03      	ldr	r4, [sp, #12]
    1f24:	2201      	movs	r2, #1
    1f26:	4022      	ands	r2, r4
    1f28:	2400      	movs	r4, #0
    1f2a:	4d8b      	ldr	r5, [pc, #556]	; (2158 <__aeabi_ddiv+0x634>)
    1f2c:	46a1      	mov	r9, r4
    1f2e:	e6c1      	b.n	1cb4 <__aeabi_ddiv+0x190>
    1f30:	2480      	movs	r4, #128	; 0x80
    1f32:	0324      	lsls	r4, r4, #12
    1f34:	4647      	mov	r7, r8
    1f36:	4227      	tst	r7, r4
    1f38:	d14c      	bne.n	1fd4 <__aeabi_ddiv+0x4b0>
    1f3a:	433c      	orrs	r4, r7
    1f3c:	0324      	lsls	r4, r4, #12
    1f3e:	0b24      	lsrs	r4, r4, #12
    1f40:	9a00      	ldr	r2, [sp, #0]
    1f42:	4d85      	ldr	r5, [pc, #532]	; (2158 <__aeabi_ddiv+0x634>)
    1f44:	e6b6      	b.n	1cb4 <__aeabi_ddiv+0x190>
    1f46:	1936      	adds	r6, r6, r4
    1f48:	1e48      	subs	r0, r1, #1
    1f4a:	42b4      	cmp	r4, r6
    1f4c:	d95e      	bls.n	200c <__aeabi_ddiv+0x4e8>
    1f4e:	1c01      	adds	r1, r0, #0
    1f50:	4296      	cmp	r6, r2
    1f52:	d1c4      	bne.n	1ede <__aeabi_ddiv+0x3ba>
    1f54:	9e00      	ldr	r6, [sp, #0]
    1f56:	429e      	cmp	r6, r3
    1f58:	d1c1      	bne.n	1ede <__aeabi_ddiv+0x3ba>
    1f5a:	e7c2      	b.n	1ee2 <__aeabi_ddiv+0x3be>
    1f5c:	1c03      	adds	r3, r0, #0
    1f5e:	3b28      	subs	r3, #40	; 0x28
    1f60:	1c31      	adds	r1, r6, #0
    1f62:	4099      	lsls	r1, r3
    1f64:	468b      	mov	fp, r1
    1f66:	2100      	movs	r1, #0
    1f68:	e688      	b.n	1c7c <__aeabi_ddiv+0x158>
    1f6a:	1c30      	adds	r0, r6, #0
    1f6c:	f001 f958 	bl	3220 <__clzsi2>
    1f70:	3020      	adds	r0, #32
    1f72:	e672      	b.n	1c5a <__aeabi_ddiv+0x136>
    1f74:	3b28      	subs	r3, #40	; 0x28
    1f76:	1c21      	adds	r1, r4, #0
    1f78:	4099      	lsls	r1, r3
    1f7a:	2200      	movs	r2, #0
    1f7c:	4688      	mov	r8, r1
    1f7e:	4691      	mov	r9, r2
    1f80:	e651      	b.n	1c26 <__aeabi_ddiv+0x102>
    1f82:	1c20      	adds	r0, r4, #0
    1f84:	f001 f94c 	bl	3220 <__clzsi2>
    1f88:	3020      	adds	r0, #32
    1f8a:	e63b      	b.n	1c04 <__aeabi_ddiv+0xe0>
    1f8c:	2100      	movs	r1, #0
    1f8e:	45b1      	cmp	r9, r6
    1f90:	d300      	bcc.n	1f94 <__aeabi_ddiv+0x470>
    1f92:	e73d      	b.n	1e10 <__aeabi_ddiv+0x2ec>
    1f94:	9f00      	ldr	r7, [sp, #0]
    1f96:	465a      	mov	r2, fp
    1f98:	44b9      	add	r9, r7
    1f9a:	45b9      	cmp	r9, r7
    1f9c:	41bf      	sbcs	r7, r7
    1f9e:	427f      	negs	r7, r7
    1fa0:	193f      	adds	r7, r7, r4
    1fa2:	18fb      	adds	r3, r7, r3
    1fa4:	3a01      	subs	r2, #1
    1fa6:	429c      	cmp	r4, r3
    1fa8:	d21e      	bcs.n	1fe8 <__aeabi_ddiv+0x4c4>
    1faa:	4298      	cmp	r0, r3
    1fac:	d900      	bls.n	1fb0 <__aeabi_ddiv+0x48c>
    1fae:	e07e      	b.n	20ae <__aeabi_ddiv+0x58a>
    1fb0:	d100      	bne.n	1fb4 <__aeabi_ddiv+0x490>
    1fb2:	e0b5      	b.n	2120 <__aeabi_ddiv+0x5fc>
    1fb4:	1a19      	subs	r1, r3, r0
    1fb6:	4693      	mov	fp, r2
    1fb8:	e72a      	b.n	1e10 <__aeabi_ddiv+0x2ec>
    1fba:	4589      	cmp	r9, r1
    1fbc:	d800      	bhi.n	1fc0 <__aeabi_ddiv+0x49c>
    1fbe:	e6ad      	b.n	1d1c <__aeabi_ddiv+0x1f8>
    1fc0:	4648      	mov	r0, r9
    1fc2:	4646      	mov	r6, r8
    1fc4:	4642      	mov	r2, r8
    1fc6:	0877      	lsrs	r7, r6, #1
    1fc8:	07d3      	lsls	r3, r2, #31
    1fca:	0846      	lsrs	r6, r0, #1
    1fcc:	07c0      	lsls	r0, r0, #31
    1fce:	431e      	orrs	r6, r3
    1fd0:	4681      	mov	r9, r0
    1fd2:	e6aa      	b.n	1d2a <__aeabi_ddiv+0x206>
    1fd4:	4658      	mov	r0, fp
    1fd6:	4220      	tst	r0, r4
    1fd8:	d112      	bne.n	2000 <__aeabi_ddiv+0x4dc>
    1fda:	4304      	orrs	r4, r0
    1fdc:	0324      	lsls	r4, r4, #12
    1fde:	1c2a      	adds	r2, r5, #0
    1fe0:	0b24      	lsrs	r4, r4, #12
    1fe2:	4689      	mov	r9, r1
    1fe4:	4d5c      	ldr	r5, [pc, #368]	; (2158 <__aeabi_ddiv+0x634>)
    1fe6:	e665      	b.n	1cb4 <__aeabi_ddiv+0x190>
    1fe8:	42a3      	cmp	r3, r4
    1fea:	d1e3      	bne.n	1fb4 <__aeabi_ddiv+0x490>
    1fec:	9f00      	ldr	r7, [sp, #0]
    1fee:	454f      	cmp	r7, r9
    1ff0:	d9db      	bls.n	1faa <__aeabi_ddiv+0x486>
    1ff2:	1a21      	subs	r1, r4, r0
    1ff4:	4693      	mov	fp, r2
    1ff6:	e70b      	b.n	1e10 <__aeabi_ddiv+0x2ec>
    1ff8:	1c17      	adds	r7, r2, #0
    1ffa:	e6dd      	b.n	1db8 <__aeabi_ddiv+0x294>
    1ffc:	469b      	mov	fp, r3
    1ffe:	e6bc      	b.n	1d7a <__aeabi_ddiv+0x256>
    2000:	433c      	orrs	r4, r7
    2002:	0324      	lsls	r4, r4, #12
    2004:	0b24      	lsrs	r4, r4, #12
    2006:	9a00      	ldr	r2, [sp, #0]
    2008:	4d53      	ldr	r5, [pc, #332]	; (2158 <__aeabi_ddiv+0x634>)
    200a:	e653      	b.n	1cb4 <__aeabi_ddiv+0x190>
    200c:	42b2      	cmp	r2, r6
    200e:	d859      	bhi.n	20c4 <__aeabi_ddiv+0x5a0>
    2010:	d100      	bne.n	2014 <__aeabi_ddiv+0x4f0>
    2012:	e08a      	b.n	212a <__aeabi_ddiv+0x606>
    2014:	1c01      	adds	r1, r0, #0
    2016:	e762      	b.n	1ede <__aeabi_ddiv+0x3ba>
    2018:	465f      	mov	r7, fp
    201a:	08c9      	lsrs	r1, r1, #3
    201c:	077b      	lsls	r3, r7, #29
    201e:	9e03      	ldr	r6, [sp, #12]
    2020:	430b      	orrs	r3, r1
    2022:	027c      	lsls	r4, r7, #9
    2024:	056d      	lsls	r5, r5, #21
    2026:	2201      	movs	r2, #1
    2028:	4699      	mov	r9, r3
    202a:	0b24      	lsrs	r4, r4, #12
    202c:	0d6d      	lsrs	r5, r5, #21
    202e:	4032      	ands	r2, r6
    2030:	e640      	b.n	1cb4 <__aeabi_ddiv+0x190>
    2032:	4b4a      	ldr	r3, [pc, #296]	; (215c <__aeabi_ddiv+0x638>)
    2034:	9f04      	ldr	r7, [sp, #16]
    2036:	1bdb      	subs	r3, r3, r7
    2038:	2b38      	cmp	r3, #56	; 0x38
    203a:	dd10      	ble.n	205e <__aeabi_ddiv+0x53a>
    203c:	9c03      	ldr	r4, [sp, #12]
    203e:	2201      	movs	r2, #1
    2040:	4022      	ands	r2, r4
    2042:	2400      	movs	r4, #0
    2044:	2500      	movs	r5, #0
    2046:	46a1      	mov	r9, r4
    2048:	e634      	b.n	1cb4 <__aeabi_ddiv+0x190>
    204a:	2101      	movs	r1, #1
    204c:	4249      	negs	r1, r1
    204e:	e748      	b.n	1ee2 <__aeabi_ddiv+0x3be>
    2050:	9302      	str	r3, [sp, #8]
    2052:	e704      	b.n	1e5e <__aeabi_ddiv+0x33a>
    2054:	1c1f      	adds	r7, r3, #0
    2056:	e721      	b.n	1e9c <__aeabi_ddiv+0x378>
    2058:	9c01      	ldr	r4, [sp, #4]
    205a:	9403      	str	r4, [sp, #12]
    205c:	e741      	b.n	1ee2 <__aeabi_ddiv+0x3be>
    205e:	2b1f      	cmp	r3, #31
    2060:	dc40      	bgt.n	20e4 <__aeabi_ddiv+0x5c0>
    2062:	483f      	ldr	r0, [pc, #252]	; (2160 <__aeabi_ddiv+0x63c>)
    2064:	9f04      	ldr	r7, [sp, #16]
    2066:	1c0c      	adds	r4, r1, #0
    2068:	183a      	adds	r2, r7, r0
    206a:	4658      	mov	r0, fp
    206c:	4091      	lsls	r1, r2
    206e:	40dc      	lsrs	r4, r3
    2070:	4090      	lsls	r0, r2
    2072:	4320      	orrs	r0, r4
    2074:	1c0a      	adds	r2, r1, #0
    2076:	1e51      	subs	r1, r2, #1
    2078:	418a      	sbcs	r2, r1
    207a:	1c01      	adds	r1, r0, #0
    207c:	4311      	orrs	r1, r2
    207e:	465a      	mov	r2, fp
    2080:	40da      	lsrs	r2, r3
    2082:	1c13      	adds	r3, r2, #0
    2084:	0748      	lsls	r0, r1, #29
    2086:	d009      	beq.n	209c <__aeabi_ddiv+0x578>
    2088:	220f      	movs	r2, #15
    208a:	400a      	ands	r2, r1
    208c:	2a04      	cmp	r2, #4
    208e:	d005      	beq.n	209c <__aeabi_ddiv+0x578>
    2090:	1d0a      	adds	r2, r1, #4
    2092:	428a      	cmp	r2, r1
    2094:	4189      	sbcs	r1, r1
    2096:	4249      	negs	r1, r1
    2098:	185b      	adds	r3, r3, r1
    209a:	1c11      	adds	r1, r2, #0
    209c:	021a      	lsls	r2, r3, #8
    209e:	d534      	bpl.n	210a <__aeabi_ddiv+0x5e6>
    20a0:	9c03      	ldr	r4, [sp, #12]
    20a2:	2201      	movs	r2, #1
    20a4:	4022      	ands	r2, r4
    20a6:	2400      	movs	r4, #0
    20a8:	2501      	movs	r5, #1
    20aa:	46a1      	mov	r9, r4
    20ac:	e602      	b.n	1cb4 <__aeabi_ddiv+0x190>
    20ae:	9f00      	ldr	r7, [sp, #0]
    20b0:	2102      	movs	r1, #2
    20b2:	4249      	negs	r1, r1
    20b4:	44b9      	add	r9, r7
    20b6:	448b      	add	fp, r1
    20b8:	45b9      	cmp	r9, r7
    20ba:	4189      	sbcs	r1, r1
    20bc:	4249      	negs	r1, r1
    20be:	1909      	adds	r1, r1, r4
    20c0:	18cb      	adds	r3, r1, r3
    20c2:	e6a4      	b.n	1e0e <__aeabi_ddiv+0x2ea>
    20c4:	9d00      	ldr	r5, [sp, #0]
    20c6:	1e88      	subs	r0, r1, #2
    20c8:	0069      	lsls	r1, r5, #1
    20ca:	42a9      	cmp	r1, r5
    20cc:	41ad      	sbcs	r5, r5
    20ce:	426d      	negs	r5, r5
    20d0:	192c      	adds	r4, r5, r4
    20d2:	1936      	adds	r6, r6, r4
    20d4:	9100      	str	r1, [sp, #0]
    20d6:	e73a      	b.n	1f4e <__aeabi_ddiv+0x42a>
    20d8:	2b00      	cmp	r3, #0
    20da:	d000      	beq.n	20de <__aeabi_ddiv+0x5ba>
    20dc:	e733      	b.n	1f46 <__aeabi_ddiv+0x422>
    20de:	2400      	movs	r4, #0
    20e0:	9400      	str	r4, [sp, #0]
    20e2:	e737      	b.n	1f54 <__aeabi_ddiv+0x430>
    20e4:	4a1f      	ldr	r2, [pc, #124]	; (2164 <__aeabi_ddiv+0x640>)
    20e6:	9c04      	ldr	r4, [sp, #16]
    20e8:	465d      	mov	r5, fp
    20ea:	1b12      	subs	r2, r2, r4
    20ec:	40d5      	lsrs	r5, r2
    20ee:	1c2a      	adds	r2, r5, #0
    20f0:	2b20      	cmp	r3, #32
    20f2:	d01f      	beq.n	2134 <__aeabi_ddiv+0x610>
    20f4:	4e1c      	ldr	r6, [pc, #112]	; (2168 <__aeabi_ddiv+0x644>)
    20f6:	465f      	mov	r7, fp
    20f8:	19a3      	adds	r3, r4, r6
    20fa:	409f      	lsls	r7, r3
    20fc:	1c3b      	adds	r3, r7, #0
    20fe:	4319      	orrs	r1, r3
    2100:	1e4b      	subs	r3, r1, #1
    2102:	4199      	sbcs	r1, r3
    2104:	4311      	orrs	r1, r2
    2106:	2300      	movs	r3, #0
    2108:	e7bc      	b.n	2084 <__aeabi_ddiv+0x560>
    210a:	075a      	lsls	r2, r3, #29
    210c:	08c9      	lsrs	r1, r1, #3
    210e:	430a      	orrs	r2, r1
    2110:	9f03      	ldr	r7, [sp, #12]
    2112:	4691      	mov	r9, r2
    2114:	025b      	lsls	r3, r3, #9
    2116:	2201      	movs	r2, #1
    2118:	0b1c      	lsrs	r4, r3, #12
    211a:	403a      	ands	r2, r7
    211c:	2500      	movs	r5, #0
    211e:	e5c9      	b.n	1cb4 <__aeabi_ddiv+0x190>
    2120:	454e      	cmp	r6, r9
    2122:	d8c4      	bhi.n	20ae <__aeabi_ddiv+0x58a>
    2124:	4693      	mov	fp, r2
    2126:	2100      	movs	r1, #0
    2128:	e672      	b.n	1e10 <__aeabi_ddiv+0x2ec>
    212a:	9f00      	ldr	r7, [sp, #0]
    212c:	429f      	cmp	r7, r3
    212e:	d3c9      	bcc.n	20c4 <__aeabi_ddiv+0x5a0>
    2130:	1c01      	adds	r1, r0, #0
    2132:	e70f      	b.n	1f54 <__aeabi_ddiv+0x430>
    2134:	2300      	movs	r3, #0
    2136:	e7e2      	b.n	20fe <__aeabi_ddiv+0x5da>
    2138:	2480      	movs	r4, #128	; 0x80
    213a:	0324      	lsls	r4, r4, #12
    213c:	465f      	mov	r7, fp
    213e:	433c      	orrs	r4, r7
    2140:	0324      	lsls	r4, r4, #12
    2142:	0b24      	lsrs	r4, r4, #12
    2144:	9a01      	ldr	r2, [sp, #4]
    2146:	4689      	mov	r9, r1
    2148:	4d03      	ldr	r5, [pc, #12]	; (2158 <__aeabi_ddiv+0x634>)
    214a:	e5b3      	b.n	1cb4 <__aeabi_ddiv+0x190>
    214c:	000003ff 	.word	0x000003ff
    2150:	feffffff 	.word	0xfeffffff
    2154:	000007fe 	.word	0x000007fe
    2158:	000007ff 	.word	0x000007ff
    215c:	fffffc02 	.word	0xfffffc02
    2160:	0000041e 	.word	0x0000041e
    2164:	fffffbe2 	.word	0xfffffbe2
    2168:	0000043e 	.word	0x0000043e

0000216c <__eqdf2>:
__eqdf2():
    216c:	b5f0      	push	{r4, r5, r6, r7, lr}
    216e:	465f      	mov	r7, fp
    2170:	4656      	mov	r6, sl
    2172:	464d      	mov	r5, r9
    2174:	4644      	mov	r4, r8
    2176:	b4f0      	push	{r4, r5, r6, r7}
    2178:	1c0d      	adds	r5, r1, #0
    217a:	1c04      	adds	r4, r0, #0
    217c:	4680      	mov	r8, r0
    217e:	0fe8      	lsrs	r0, r5, #31
    2180:	4681      	mov	r9, r0
    2182:	0318      	lsls	r0, r3, #12
    2184:	030f      	lsls	r7, r1, #12
    2186:	0b00      	lsrs	r0, r0, #12
    2188:	0b3f      	lsrs	r7, r7, #12
    218a:	b083      	sub	sp, #12
    218c:	4684      	mov	ip, r0
    218e:	481b      	ldr	r0, [pc, #108]	; (21fc <__eqdf2+0x90>)
    2190:	9700      	str	r7, [sp, #0]
    2192:	0049      	lsls	r1, r1, #1
    2194:	005e      	lsls	r6, r3, #1
    2196:	0fdf      	lsrs	r7, r3, #31
    2198:	0d49      	lsrs	r1, r1, #21
    219a:	4692      	mov	sl, r2
    219c:	0d76      	lsrs	r6, r6, #21
    219e:	46bb      	mov	fp, r7
    21a0:	4281      	cmp	r1, r0
    21a2:	d00c      	beq.n	21be <__eqdf2+0x52>
    21a4:	4815      	ldr	r0, [pc, #84]	; (21fc <__eqdf2+0x90>)
    21a6:	4286      	cmp	r6, r0
    21a8:	d010      	beq.n	21cc <__eqdf2+0x60>
    21aa:	2001      	movs	r0, #1
    21ac:	42b1      	cmp	r1, r6
    21ae:	d015      	beq.n	21dc <__eqdf2+0x70>
    21b0:	b003      	add	sp, #12
    21b2:	bc3c      	pop	{r2, r3, r4, r5}
    21b4:	4690      	mov	r8, r2
    21b6:	4699      	mov	r9, r3
    21b8:	46a2      	mov	sl, r4
    21ba:	46ab      	mov	fp, r5
    21bc:	bdf0      	pop	{r4, r5, r6, r7, pc}
    21be:	9f00      	ldr	r7, [sp, #0]
    21c0:	2001      	movs	r0, #1
    21c2:	4327      	orrs	r7, r4
    21c4:	d1f4      	bne.n	21b0 <__eqdf2+0x44>
    21c6:	480d      	ldr	r0, [pc, #52]	; (21fc <__eqdf2+0x90>)
    21c8:	4286      	cmp	r6, r0
    21ca:	d1ee      	bne.n	21aa <__eqdf2+0x3e>
    21cc:	4660      	mov	r0, ip
    21ce:	4302      	orrs	r2, r0
    21d0:	2001      	movs	r0, #1
    21d2:	2a00      	cmp	r2, #0
    21d4:	d1ec      	bne.n	21b0 <__eqdf2+0x44>
    21d6:	2001      	movs	r0, #1
    21d8:	42b1      	cmp	r1, r6
    21da:	d1e9      	bne.n	21b0 <__eqdf2+0x44>
    21dc:	9b00      	ldr	r3, [sp, #0]
    21de:	4563      	cmp	r3, ip
    21e0:	d1e6      	bne.n	21b0 <__eqdf2+0x44>
    21e2:	45d0      	cmp	r8, sl
    21e4:	d1e4      	bne.n	21b0 <__eqdf2+0x44>
    21e6:	45d9      	cmp	r9, fp
    21e8:	d006      	beq.n	21f8 <__eqdf2+0x8c>
    21ea:	2900      	cmp	r1, #0
    21ec:	d1e0      	bne.n	21b0 <__eqdf2+0x44>
    21ee:	431c      	orrs	r4, r3
    21f0:	1c20      	adds	r0, r4, #0
    21f2:	1e44      	subs	r4, r0, #1
    21f4:	41a0      	sbcs	r0, r4
    21f6:	e7db      	b.n	21b0 <__eqdf2+0x44>
    21f8:	2000      	movs	r0, #0
    21fa:	e7d9      	b.n	21b0 <__eqdf2+0x44>
    21fc:	000007ff 	.word	0x000007ff

00002200 <__gedf2>:
__gtdf2():
    2200:	b5f0      	push	{r4, r5, r6, r7, lr}
    2202:	465f      	mov	r7, fp
    2204:	4656      	mov	r6, sl
    2206:	464d      	mov	r5, r9
    2208:	4644      	mov	r4, r8
    220a:	b4f0      	push	{r4, r5, r6, r7}
    220c:	0fcd      	lsrs	r5, r1, #31
    220e:	0fde      	lsrs	r6, r3, #31
    2210:	46ac      	mov	ip, r5
    2212:	031d      	lsls	r5, r3, #12
    2214:	0b2d      	lsrs	r5, r5, #12
    2216:	46b1      	mov	r9, r6
    2218:	4e37      	ldr	r6, [pc, #220]	; (22f8 <__gedf2+0xf8>)
    221a:	030f      	lsls	r7, r1, #12
    221c:	004c      	lsls	r4, r1, #1
    221e:	46ab      	mov	fp, r5
    2220:	005d      	lsls	r5, r3, #1
    2222:	4680      	mov	r8, r0
    2224:	0b3f      	lsrs	r7, r7, #12
    2226:	0d64      	lsrs	r4, r4, #21
    2228:	4692      	mov	sl, r2
    222a:	0d6d      	lsrs	r5, r5, #21
    222c:	42b4      	cmp	r4, r6
    222e:	d032      	beq.n	2296 <__gedf2+0x96>
    2230:	4e31      	ldr	r6, [pc, #196]	; (22f8 <__gedf2+0xf8>)
    2232:	42b5      	cmp	r5, r6
    2234:	d035      	beq.n	22a2 <__gedf2+0xa2>
    2236:	2c00      	cmp	r4, #0
    2238:	d10e      	bne.n	2258 <__gedf2+0x58>
    223a:	4338      	orrs	r0, r7
    223c:	4241      	negs	r1, r0
    223e:	4141      	adcs	r1, r0
    2240:	1c08      	adds	r0, r1, #0
    2242:	2d00      	cmp	r5, #0
    2244:	d00b      	beq.n	225e <__gedf2+0x5e>
    2246:	2900      	cmp	r1, #0
    2248:	d119      	bne.n	227e <__gedf2+0x7e>
    224a:	45cc      	cmp	ip, r9
    224c:	d02d      	beq.n	22aa <__gedf2+0xaa>
    224e:	4665      	mov	r5, ip
    2250:	4268      	negs	r0, r5
    2252:	2301      	movs	r3, #1
    2254:	4318      	orrs	r0, r3
    2256:	e018      	b.n	228a <__gedf2+0x8a>
    2258:	2d00      	cmp	r5, #0
    225a:	d1f6      	bne.n	224a <__gedf2+0x4a>
    225c:	1c28      	adds	r0, r5, #0
    225e:	4659      	mov	r1, fp
    2260:	430a      	orrs	r2, r1
    2262:	4253      	negs	r3, r2
    2264:	4153      	adcs	r3, r2
    2266:	2800      	cmp	r0, #0
    2268:	d106      	bne.n	2278 <__gedf2+0x78>
    226a:	2b00      	cmp	r3, #0
    226c:	d0ed      	beq.n	224a <__gedf2+0x4a>
    226e:	4663      	mov	r3, ip
    2270:	4258      	negs	r0, r3
    2272:	2301      	movs	r3, #1
    2274:	4318      	orrs	r0, r3
    2276:	e008      	b.n	228a <__gedf2+0x8a>
    2278:	2000      	movs	r0, #0
    227a:	2b00      	cmp	r3, #0
    227c:	d105      	bne.n	228a <__gedf2+0x8a>
    227e:	464a      	mov	r2, r9
    2280:	4250      	negs	r0, r2
    2282:	4150      	adcs	r0, r2
    2284:	4240      	negs	r0, r0
    2286:	2301      	movs	r3, #1
    2288:	4318      	orrs	r0, r3
    228a:	bc3c      	pop	{r2, r3, r4, r5}
    228c:	4690      	mov	r8, r2
    228e:	4699      	mov	r9, r3
    2290:	46a2      	mov	sl, r4
    2292:	46ab      	mov	fp, r5
    2294:	bdf0      	pop	{r4, r5, r6, r7, pc}
    2296:	1c3e      	adds	r6, r7, #0
    2298:	4306      	orrs	r6, r0
    229a:	d0c9      	beq.n	2230 <__gedf2+0x30>
    229c:	2002      	movs	r0, #2
    229e:	4240      	negs	r0, r0
    22a0:	e7f3      	b.n	228a <__gedf2+0x8a>
    22a2:	465e      	mov	r6, fp
    22a4:	4316      	orrs	r6, r2
    22a6:	d0c6      	beq.n	2236 <__gedf2+0x36>
    22a8:	e7f8      	b.n	229c <__gedf2+0x9c>
    22aa:	42ac      	cmp	r4, r5
    22ac:	dc07      	bgt.n	22be <__gedf2+0xbe>
    22ae:	da0b      	bge.n	22c8 <__gedf2+0xc8>
    22b0:	4661      	mov	r1, ip
    22b2:	4248      	negs	r0, r1
    22b4:	4148      	adcs	r0, r1
    22b6:	4240      	negs	r0, r0
    22b8:	2301      	movs	r3, #1
    22ba:	4318      	orrs	r0, r3
    22bc:	e7e5      	b.n	228a <__gedf2+0x8a>
    22be:	4666      	mov	r6, ip
    22c0:	4270      	negs	r0, r6
    22c2:	2301      	movs	r3, #1
    22c4:	4318      	orrs	r0, r3
    22c6:	e7e0      	b.n	228a <__gedf2+0x8a>
    22c8:	455f      	cmp	r7, fp
    22ca:	d80a      	bhi.n	22e2 <__gedf2+0xe2>
    22cc:	d00e      	beq.n	22ec <__gedf2+0xec>
    22ce:	2000      	movs	r0, #0
    22d0:	455f      	cmp	r7, fp
    22d2:	d2da      	bcs.n	228a <__gedf2+0x8a>
    22d4:	4665      	mov	r5, ip
    22d6:	4268      	negs	r0, r5
    22d8:	4168      	adcs	r0, r5
    22da:	4240      	negs	r0, r0
    22dc:	2301      	movs	r3, #1
    22de:	4318      	orrs	r0, r3
    22e0:	e7d3      	b.n	228a <__gedf2+0x8a>
    22e2:	4662      	mov	r2, ip
    22e4:	4250      	negs	r0, r2
    22e6:	2301      	movs	r3, #1
    22e8:	4318      	orrs	r0, r3
    22ea:	e7ce      	b.n	228a <__gedf2+0x8a>
    22ec:	45d0      	cmp	r8, sl
    22ee:	d8f8      	bhi.n	22e2 <__gedf2+0xe2>
    22f0:	2000      	movs	r0, #0
    22f2:	45d0      	cmp	r8, sl
    22f4:	d3ee      	bcc.n	22d4 <__gedf2+0xd4>
    22f6:	e7c8      	b.n	228a <__gedf2+0x8a>
    22f8:	000007ff 	.word	0x000007ff

000022fc <__ledf2>:
__ltdf2():
    22fc:	b5f0      	push	{r4, r5, r6, r7, lr}
    22fe:	4656      	mov	r6, sl
    2300:	464d      	mov	r5, r9
    2302:	4644      	mov	r4, r8
    2304:	465f      	mov	r7, fp
    2306:	b4f0      	push	{r4, r5, r6, r7}
    2308:	1c0d      	adds	r5, r1, #0
    230a:	b083      	sub	sp, #12
    230c:	1c04      	adds	r4, r0, #0
    230e:	9001      	str	r0, [sp, #4]
    2310:	0fe8      	lsrs	r0, r5, #31
    2312:	4681      	mov	r9, r0
    2314:	0318      	lsls	r0, r3, #12
    2316:	030f      	lsls	r7, r1, #12
    2318:	0b00      	lsrs	r0, r0, #12
    231a:	0b3f      	lsrs	r7, r7, #12
    231c:	4684      	mov	ip, r0
    231e:	4835      	ldr	r0, [pc, #212]	; (23f4 <__ledf2+0xf8>)
    2320:	9700      	str	r7, [sp, #0]
    2322:	0049      	lsls	r1, r1, #1
    2324:	005e      	lsls	r6, r3, #1
    2326:	0fdf      	lsrs	r7, r3, #31
    2328:	0d49      	lsrs	r1, r1, #21
    232a:	4692      	mov	sl, r2
    232c:	0d76      	lsrs	r6, r6, #21
    232e:	46b8      	mov	r8, r7
    2330:	4281      	cmp	r1, r0
    2332:	d034      	beq.n	239e <__ledf2+0xa2>
    2334:	482f      	ldr	r0, [pc, #188]	; (23f4 <__ledf2+0xf8>)
    2336:	4286      	cmp	r6, r0
    2338:	d036      	beq.n	23a8 <__ledf2+0xac>
    233a:	2900      	cmp	r1, #0
    233c:	d018      	beq.n	2370 <__ledf2+0x74>
    233e:	2e00      	cmp	r6, #0
    2340:	d11f      	bne.n	2382 <__ledf2+0x86>
    2342:	1c34      	adds	r4, r6, #0
    2344:	4667      	mov	r7, ip
    2346:	433a      	orrs	r2, r7
    2348:	4253      	negs	r3, r2
    234a:	4153      	adcs	r3, r2
    234c:	2c00      	cmp	r4, #0
    234e:	d01f      	beq.n	2390 <__ledf2+0x94>
    2350:	2000      	movs	r0, #0
    2352:	2b00      	cmp	r3, #0
    2354:	d105      	bne.n	2362 <__ledf2+0x66>
    2356:	4642      	mov	r2, r8
    2358:	4250      	negs	r0, r2
    235a:	4150      	adcs	r0, r2
    235c:	4240      	negs	r0, r0
    235e:	2301      	movs	r3, #1
    2360:	4318      	orrs	r0, r3
    2362:	b003      	add	sp, #12
    2364:	bc3c      	pop	{r2, r3, r4, r5}
    2366:	4690      	mov	r8, r2
    2368:	4699      	mov	r9, r3
    236a:	46a2      	mov	sl, r4
    236c:	46ab      	mov	fp, r5
    236e:	bdf0      	pop	{r4, r5, r6, r7, pc}
    2370:	9800      	ldr	r0, [sp, #0]
    2372:	4304      	orrs	r4, r0
    2374:	4260      	negs	r0, r4
    2376:	4160      	adcs	r0, r4
    2378:	1c04      	adds	r4, r0, #0
    237a:	2e00      	cmp	r6, #0
    237c:	d0e2      	beq.n	2344 <__ledf2+0x48>
    237e:	2800      	cmp	r0, #0
    2380:	d1e9      	bne.n	2356 <__ledf2+0x5a>
    2382:	45c1      	cmp	r9, r8
    2384:	d015      	beq.n	23b2 <__ledf2+0xb6>
    2386:	464f      	mov	r7, r9
    2388:	4278      	negs	r0, r7
    238a:	2301      	movs	r3, #1
    238c:	4318      	orrs	r0, r3
    238e:	e7e8      	b.n	2362 <__ledf2+0x66>
    2390:	2b00      	cmp	r3, #0
    2392:	d0f6      	beq.n	2382 <__ledf2+0x86>
    2394:	464b      	mov	r3, r9
    2396:	4258      	negs	r0, r3
    2398:	2301      	movs	r3, #1
    239a:	4318      	orrs	r0, r3
    239c:	e7e1      	b.n	2362 <__ledf2+0x66>
    239e:	9f00      	ldr	r7, [sp, #0]
    23a0:	2002      	movs	r0, #2
    23a2:	4327      	orrs	r7, r4
    23a4:	d1dd      	bne.n	2362 <__ledf2+0x66>
    23a6:	e7c5      	b.n	2334 <__ledf2+0x38>
    23a8:	4667      	mov	r7, ip
    23aa:	2002      	movs	r0, #2
    23ac:	4317      	orrs	r7, r2
    23ae:	d1d8      	bne.n	2362 <__ledf2+0x66>
    23b0:	e7c3      	b.n	233a <__ledf2+0x3e>
    23b2:	42b1      	cmp	r1, r6
    23b4:	dd04      	ble.n	23c0 <__ledf2+0xc4>
    23b6:	464a      	mov	r2, r9
    23b8:	4250      	negs	r0, r2
    23ba:	2301      	movs	r3, #1
    23bc:	4318      	orrs	r0, r3
    23be:	e7d0      	b.n	2362 <__ledf2+0x66>
    23c0:	42b1      	cmp	r1, r6
    23c2:	db07      	blt.n	23d4 <__ledf2+0xd8>
    23c4:	9800      	ldr	r0, [sp, #0]
    23c6:	4560      	cmp	r0, ip
    23c8:	d8e4      	bhi.n	2394 <__ledf2+0x98>
    23ca:	d00a      	beq.n	23e2 <__ledf2+0xe6>
    23cc:	9f00      	ldr	r7, [sp, #0]
    23ce:	2000      	movs	r0, #0
    23d0:	4567      	cmp	r7, ip
    23d2:	d2c6      	bcs.n	2362 <__ledf2+0x66>
    23d4:	464f      	mov	r7, r9
    23d6:	4278      	negs	r0, r7
    23d8:	4178      	adcs	r0, r7
    23da:	4240      	negs	r0, r0
    23dc:	2301      	movs	r3, #1
    23de:	4318      	orrs	r0, r3
    23e0:	e7bf      	b.n	2362 <__ledf2+0x66>
    23e2:	9a01      	ldr	r2, [sp, #4]
    23e4:	4552      	cmp	r2, sl
    23e6:	d8d5      	bhi.n	2394 <__ledf2+0x98>
    23e8:	9a01      	ldr	r2, [sp, #4]
    23ea:	2000      	movs	r0, #0
    23ec:	4552      	cmp	r2, sl
    23ee:	d3f1      	bcc.n	23d4 <__ledf2+0xd8>
    23f0:	e7b7      	b.n	2362 <__ledf2+0x66>
    23f2:	46c0      	nop			; (mov r8, r8)
    23f4:	000007ff 	.word	0x000007ff

000023f8 <__aeabi_dmul>:
__aeabi_dmul():
    23f8:	b5f0      	push	{r4, r5, r6, r7, lr}
    23fa:	4656      	mov	r6, sl
    23fc:	4644      	mov	r4, r8
    23fe:	465f      	mov	r7, fp
    2400:	464d      	mov	r5, r9
    2402:	b4f0      	push	{r4, r5, r6, r7}
    2404:	1c1f      	adds	r7, r3, #0
    2406:	030b      	lsls	r3, r1, #12
    2408:	0b1b      	lsrs	r3, r3, #12
    240a:	469a      	mov	sl, r3
    240c:	004b      	lsls	r3, r1, #1
    240e:	b087      	sub	sp, #28
    2410:	1c04      	adds	r4, r0, #0
    2412:	4680      	mov	r8, r0
    2414:	0d5b      	lsrs	r3, r3, #21
    2416:	0fc8      	lsrs	r0, r1, #31
    2418:	1c16      	adds	r6, r2, #0
    241a:	9302      	str	r3, [sp, #8]
    241c:	4681      	mov	r9, r0
    241e:	2b00      	cmp	r3, #0
    2420:	d068      	beq.n	24f4 <__aeabi_dmul+0xfc>
    2422:	4b69      	ldr	r3, [pc, #420]	; (25c8 <__aeabi_dmul+0x1d0>)
    2424:	9902      	ldr	r1, [sp, #8]
    2426:	4299      	cmp	r1, r3
    2428:	d032      	beq.n	2490 <__aeabi_dmul+0x98>
    242a:	2280      	movs	r2, #128	; 0x80
    242c:	4653      	mov	r3, sl
    242e:	0352      	lsls	r2, r2, #13
    2430:	431a      	orrs	r2, r3
    2432:	00d2      	lsls	r2, r2, #3
    2434:	0f63      	lsrs	r3, r4, #29
    2436:	431a      	orrs	r2, r3
    2438:	4692      	mov	sl, r2
    243a:	4a64      	ldr	r2, [pc, #400]	; (25cc <__aeabi_dmul+0x1d4>)
    243c:	00e0      	lsls	r0, r4, #3
    243e:	1889      	adds	r1, r1, r2
    2440:	4680      	mov	r8, r0
    2442:	9102      	str	r1, [sp, #8]
    2444:	2400      	movs	r4, #0
    2446:	2500      	movs	r5, #0
    2448:	033b      	lsls	r3, r7, #12
    244a:	0b1b      	lsrs	r3, r3, #12
    244c:	469b      	mov	fp, r3
    244e:	0078      	lsls	r0, r7, #1
    2450:	0ffb      	lsrs	r3, r7, #31
    2452:	1c32      	adds	r2, r6, #0
    2454:	0d40      	lsrs	r0, r0, #21
    2456:	9303      	str	r3, [sp, #12]
    2458:	d100      	bne.n	245c <__aeabi_dmul+0x64>
    245a:	e075      	b.n	2548 <__aeabi_dmul+0x150>
    245c:	4b5a      	ldr	r3, [pc, #360]	; (25c8 <__aeabi_dmul+0x1d0>)
    245e:	4298      	cmp	r0, r3
    2460:	d069      	beq.n	2536 <__aeabi_dmul+0x13e>
    2462:	2280      	movs	r2, #128	; 0x80
    2464:	4659      	mov	r1, fp
    2466:	0352      	lsls	r2, r2, #13
    2468:	430a      	orrs	r2, r1
    246a:	0f73      	lsrs	r3, r6, #29
    246c:	00d2      	lsls	r2, r2, #3
    246e:	431a      	orrs	r2, r3
    2470:	4b56      	ldr	r3, [pc, #344]	; (25cc <__aeabi_dmul+0x1d4>)
    2472:	4693      	mov	fp, r2
    2474:	18c0      	adds	r0, r0, r3
    2476:	00f2      	lsls	r2, r6, #3
    2478:	2300      	movs	r3, #0
    247a:	9903      	ldr	r1, [sp, #12]
    247c:	464e      	mov	r6, r9
    247e:	4071      	eors	r1, r6
    2480:	431c      	orrs	r4, r3
    2482:	2c0f      	cmp	r4, #15
    2484:	d900      	bls.n	2488 <__aeabi_dmul+0x90>
    2486:	e0a9      	b.n	25dc <__aeabi_dmul+0x1e4>
    2488:	4e51      	ldr	r6, [pc, #324]	; (25d0 <__aeabi_dmul+0x1d8>)
    248a:	00a4      	lsls	r4, r4, #2
    248c:	5934      	ldr	r4, [r6, r4]
    248e:	46a7      	mov	pc, r4
    2490:	4653      	mov	r3, sl
    2492:	431c      	orrs	r4, r3
    2494:	d000      	beq.n	2498 <__aeabi_dmul+0xa0>
    2496:	e087      	b.n	25a8 <__aeabi_dmul+0x1b0>
    2498:	2500      	movs	r5, #0
    249a:	46aa      	mov	sl, r5
    249c:	46a8      	mov	r8, r5
    249e:	2408      	movs	r4, #8
    24a0:	2502      	movs	r5, #2
    24a2:	e7d1      	b.n	2448 <__aeabi_dmul+0x50>
    24a4:	4649      	mov	r1, r9
    24a6:	2d02      	cmp	r5, #2
    24a8:	d06c      	beq.n	2584 <__aeabi_dmul+0x18c>
    24aa:	2d03      	cmp	r5, #3
    24ac:	d100      	bne.n	24b0 <__aeabi_dmul+0xb8>
    24ae:	e217      	b.n	28e0 <__aeabi_dmul+0x4e8>
    24b0:	2d01      	cmp	r5, #1
    24b2:	d000      	beq.n	24b6 <__aeabi_dmul+0xbe>
    24b4:	e158      	b.n	2768 <__aeabi_dmul+0x370>
    24b6:	400d      	ands	r5, r1
    24b8:	b2ed      	uxtb	r5, r5
    24ba:	2400      	movs	r4, #0
    24bc:	46a9      	mov	r9, r5
    24be:	2300      	movs	r3, #0
    24c0:	46a0      	mov	r8, r4
    24c2:	2000      	movs	r0, #0
    24c4:	2100      	movs	r1, #0
    24c6:	0325      	lsls	r5, r4, #12
    24c8:	0d0a      	lsrs	r2, r1, #20
    24ca:	051c      	lsls	r4, r3, #20
    24cc:	0b2d      	lsrs	r5, r5, #12
    24ce:	0512      	lsls	r2, r2, #20
    24d0:	4b40      	ldr	r3, [pc, #256]	; (25d4 <__aeabi_dmul+0x1dc>)
    24d2:	432a      	orrs	r2, r5
    24d4:	4013      	ands	r3, r2
    24d6:	4323      	orrs	r3, r4
    24d8:	005b      	lsls	r3, r3, #1
    24da:	464c      	mov	r4, r9
    24dc:	085b      	lsrs	r3, r3, #1
    24de:	07e2      	lsls	r2, r4, #31
    24e0:	1c19      	adds	r1, r3, #0
    24e2:	4640      	mov	r0, r8
    24e4:	4311      	orrs	r1, r2
    24e6:	b007      	add	sp, #28
    24e8:	bc3c      	pop	{r2, r3, r4, r5}
    24ea:	4690      	mov	r8, r2
    24ec:	4699      	mov	r9, r3
    24ee:	46a2      	mov	sl, r4
    24f0:	46ab      	mov	fp, r5
    24f2:	bdf0      	pop	{r4, r5, r6, r7, pc}
    24f4:	4653      	mov	r3, sl
    24f6:	4323      	orrs	r3, r4
    24f8:	d050      	beq.n	259c <__aeabi_dmul+0x1a4>
    24fa:	4653      	mov	r3, sl
    24fc:	2b00      	cmp	r3, #0
    24fe:	d100      	bne.n	2502 <__aeabi_dmul+0x10a>
    2500:	e184      	b.n	280c <__aeabi_dmul+0x414>
    2502:	4650      	mov	r0, sl
    2504:	f000 fe8c 	bl	3220 <__clzsi2>
    2508:	1e03      	subs	r3, r0, #0
    250a:	2b27      	cmp	r3, #39	; 0x27
    250c:	dd00      	ble.n	2510 <__aeabi_dmul+0x118>
    250e:	e176      	b.n	27fe <__aeabi_dmul+0x406>
    2510:	2128      	movs	r1, #40	; 0x28
    2512:	1a0d      	subs	r5, r1, r0
    2514:	1c21      	adds	r1, r4, #0
    2516:	3b08      	subs	r3, #8
    2518:	4652      	mov	r2, sl
    251a:	40e9      	lsrs	r1, r5
    251c:	409a      	lsls	r2, r3
    251e:	1c0d      	adds	r5, r1, #0
    2520:	4315      	orrs	r5, r2
    2522:	1c22      	adds	r2, r4, #0
    2524:	409a      	lsls	r2, r3
    2526:	46aa      	mov	sl, r5
    2528:	4690      	mov	r8, r2
    252a:	4b2b      	ldr	r3, [pc, #172]	; (25d8 <__aeabi_dmul+0x1e0>)
    252c:	2400      	movs	r4, #0
    252e:	1a1b      	subs	r3, r3, r0
    2530:	9302      	str	r3, [sp, #8]
    2532:	2500      	movs	r5, #0
    2534:	e788      	b.n	2448 <__aeabi_dmul+0x50>
    2536:	465b      	mov	r3, fp
    2538:	431e      	orrs	r6, r3
    253a:	2303      	movs	r3, #3
    253c:	2e00      	cmp	r6, #0
    253e:	d19c      	bne.n	247a <__aeabi_dmul+0x82>
    2540:	46b3      	mov	fp, r6
    2542:	2200      	movs	r2, #0
    2544:	2302      	movs	r3, #2
    2546:	e798      	b.n	247a <__aeabi_dmul+0x82>
    2548:	465b      	mov	r3, fp
    254a:	4333      	orrs	r3, r6
    254c:	d021      	beq.n	2592 <__aeabi_dmul+0x19a>
    254e:	4658      	mov	r0, fp
    2550:	2800      	cmp	r0, #0
    2552:	d100      	bne.n	2556 <__aeabi_dmul+0x15e>
    2554:	e14e      	b.n	27f4 <__aeabi_dmul+0x3fc>
    2556:	f000 fe63 	bl	3220 <__clzsi2>
    255a:	2827      	cmp	r0, #39	; 0x27
    255c:	dd00      	ble.n	2560 <__aeabi_dmul+0x168>
    255e:	e142      	b.n	27e6 <__aeabi_dmul+0x3ee>
    2560:	2128      	movs	r1, #40	; 0x28
    2562:	1a0f      	subs	r7, r1, r0
    2564:	1c02      	adds	r2, r0, #0
    2566:	1c31      	adds	r1, r6, #0
    2568:	3a08      	subs	r2, #8
    256a:	465b      	mov	r3, fp
    256c:	40f9      	lsrs	r1, r7
    256e:	4093      	lsls	r3, r2
    2570:	1c0f      	adds	r7, r1, #0
    2572:	431f      	orrs	r7, r3
    2574:	1c33      	adds	r3, r6, #0
    2576:	4093      	lsls	r3, r2
    2578:	46bb      	mov	fp, r7
    257a:	1c1a      	adds	r2, r3, #0
    257c:	4b16      	ldr	r3, [pc, #88]	; (25d8 <__aeabi_dmul+0x1e0>)
    257e:	1a18      	subs	r0, r3, r0
    2580:	2300      	movs	r3, #0
    2582:	e77a      	b.n	247a <__aeabi_dmul+0x82>
    2584:	2301      	movs	r3, #1
    2586:	400b      	ands	r3, r1
    2588:	2400      	movs	r4, #0
    258a:	4699      	mov	r9, r3
    258c:	46a0      	mov	r8, r4
    258e:	4b0e      	ldr	r3, [pc, #56]	; (25c8 <__aeabi_dmul+0x1d0>)
    2590:	e797      	b.n	24c2 <__aeabi_dmul+0xca>
    2592:	2700      	movs	r7, #0
    2594:	46bb      	mov	fp, r7
    2596:	2200      	movs	r2, #0
    2598:	2301      	movs	r3, #1
    259a:	e76e      	b.n	247a <__aeabi_dmul+0x82>
    259c:	2100      	movs	r1, #0
    259e:	2404      	movs	r4, #4
    25a0:	468a      	mov	sl, r1
    25a2:	4688      	mov	r8, r1
    25a4:	2501      	movs	r5, #1
    25a6:	e74f      	b.n	2448 <__aeabi_dmul+0x50>
    25a8:	240c      	movs	r4, #12
    25aa:	2503      	movs	r5, #3
    25ac:	e74c      	b.n	2448 <__aeabi_dmul+0x50>
    25ae:	2500      	movs	r5, #0
    25b0:	2480      	movs	r4, #128	; 0x80
    25b2:	46a9      	mov	r9, r5
    25b4:	0324      	lsls	r4, r4, #12
    25b6:	46a8      	mov	r8, r5
    25b8:	4b03      	ldr	r3, [pc, #12]	; (25c8 <__aeabi_dmul+0x1d0>)
    25ba:	e782      	b.n	24c2 <__aeabi_dmul+0xca>
    25bc:	46da      	mov	sl, fp
    25be:	4690      	mov	r8, r2
    25c0:	9903      	ldr	r1, [sp, #12]
    25c2:	1c1d      	adds	r5, r3, #0
    25c4:	e76f      	b.n	24a6 <__aeabi_dmul+0xae>
    25c6:	46c0      	nop			; (mov r8, r8)
    25c8:	000007ff 	.word	0x000007ff
    25cc:	fffffc01 	.word	0xfffffc01
    25d0:	00006298 	.word	0x00006298
    25d4:	800fffff 	.word	0x800fffff
    25d8:	fffffc0d 	.word	0xfffffc0d
    25dc:	9f02      	ldr	r7, [sp, #8]
    25de:	0c16      	lsrs	r6, r2, #16
    25e0:	1838      	adds	r0, r7, r0
    25e2:	9004      	str	r0, [sp, #16]
    25e4:	4640      	mov	r0, r8
    25e6:	0c07      	lsrs	r7, r0, #16
    25e8:	0400      	lsls	r0, r0, #16
    25ea:	0c00      	lsrs	r0, r0, #16
    25ec:	0412      	lsls	r2, r2, #16
    25ee:	0c12      	lsrs	r2, r2, #16
    25f0:	1c03      	adds	r3, r0, #0
    25f2:	4353      	muls	r3, r2
    25f4:	1c04      	adds	r4, r0, #0
    25f6:	1c3d      	adds	r5, r7, #0
    25f8:	4374      	muls	r4, r6
    25fa:	4355      	muls	r5, r2
    25fc:	4698      	mov	r8, r3
    25fe:	1c3b      	adds	r3, r7, #0
    2600:	4373      	muls	r3, r6
    2602:	1964      	adds	r4, r4, r5
    2604:	46a4      	mov	ip, r4
    2606:	4644      	mov	r4, r8
    2608:	9302      	str	r3, [sp, #8]
    260a:	0c23      	lsrs	r3, r4, #16
    260c:	4463      	add	r3, ip
    260e:	429d      	cmp	r5, r3
    2610:	d904      	bls.n	261c <__aeabi_dmul+0x224>
    2612:	9d02      	ldr	r5, [sp, #8]
    2614:	2480      	movs	r4, #128	; 0x80
    2616:	0264      	lsls	r4, r4, #9
    2618:	192d      	adds	r5, r5, r4
    261a:	9502      	str	r5, [sp, #8]
    261c:	0c1d      	lsrs	r5, r3, #16
    261e:	9503      	str	r5, [sp, #12]
    2620:	4645      	mov	r5, r8
    2622:	042c      	lsls	r4, r5, #16
    2624:	041b      	lsls	r3, r3, #16
    2626:	0c24      	lsrs	r4, r4, #16
    2628:	191c      	adds	r4, r3, r4
    262a:	9405      	str	r4, [sp, #20]
    262c:	465c      	mov	r4, fp
    262e:	0c23      	lsrs	r3, r4, #16
    2630:	1c05      	adds	r5, r0, #0
    2632:	4358      	muls	r0, r3
    2634:	0424      	lsls	r4, r4, #16
    2636:	0c24      	lsrs	r4, r4, #16
    2638:	4684      	mov	ip, r0
    263a:	1c38      	adds	r0, r7, #0
    263c:	4360      	muls	r0, r4
    263e:	4365      	muls	r5, r4
    2640:	435f      	muls	r7, r3
    2642:	4681      	mov	r9, r0
    2644:	44cc      	add	ip, r9
    2646:	0c28      	lsrs	r0, r5, #16
    2648:	4460      	add	r0, ip
    264a:	46bb      	mov	fp, r7
    264c:	4581      	cmp	r9, r0
    264e:	d902      	bls.n	2656 <__aeabi_dmul+0x25e>
    2650:	2780      	movs	r7, #128	; 0x80
    2652:	027f      	lsls	r7, r7, #9
    2654:	44bb      	add	fp, r7
    2656:	042d      	lsls	r5, r5, #16
    2658:	0c07      	lsrs	r7, r0, #16
    265a:	0c2d      	lsrs	r5, r5, #16
    265c:	0400      	lsls	r0, r0, #16
    265e:	1940      	adds	r0, r0, r5
    2660:	4655      	mov	r5, sl
    2662:	46bc      	mov	ip, r7
    2664:	042f      	lsls	r7, r5, #16
    2666:	44e3      	add	fp, ip
    2668:	4684      	mov	ip, r0
    266a:	0c28      	lsrs	r0, r5, #16
    266c:	0c3d      	lsrs	r5, r7, #16
    266e:	1c2f      	adds	r7, r5, #0
    2670:	4357      	muls	r7, r2
    2672:	46b8      	mov	r8, r7
    2674:	1c2f      	adds	r7, r5, #0
    2676:	4377      	muls	r7, r6
    2678:	4342      	muls	r2, r0
    267a:	46b9      	mov	r9, r7
    267c:	4647      	mov	r7, r8
    267e:	0c3f      	lsrs	r7, r7, #16
    2680:	4491      	add	r9, r2
    2682:	46ba      	mov	sl, r7
    2684:	44d1      	add	r9, sl
    2686:	4346      	muls	r6, r0
    2688:	454a      	cmp	r2, r9
    268a:	d902      	bls.n	2692 <__aeabi_dmul+0x29a>
    268c:	2280      	movs	r2, #128	; 0x80
    268e:	0252      	lsls	r2, r2, #9
    2690:	18b6      	adds	r6, r6, r2
    2692:	464f      	mov	r7, r9
    2694:	0c3a      	lsrs	r2, r7, #16
    2696:	18b6      	adds	r6, r6, r2
    2698:	043a      	lsls	r2, r7, #16
    269a:	4647      	mov	r7, r8
    269c:	043f      	lsls	r7, r7, #16
    269e:	0c3f      	lsrs	r7, r7, #16
    26a0:	46b8      	mov	r8, r7
    26a2:	1c2f      	adds	r7, r5, #0
    26a4:	4367      	muls	r7, r4
    26a6:	435d      	muls	r5, r3
    26a8:	4344      	muls	r4, r0
    26aa:	4358      	muls	r0, r3
    26ac:	1965      	adds	r5, r4, r5
    26ae:	9001      	str	r0, [sp, #4]
    26b0:	0c38      	lsrs	r0, r7, #16
    26b2:	182d      	adds	r5, r5, r0
    26b4:	4442      	add	r2, r8
    26b6:	46b8      	mov	r8, r7
    26b8:	42ac      	cmp	r4, r5
    26ba:	d904      	bls.n	26c6 <__aeabi_dmul+0x2ce>
    26bc:	9801      	ldr	r0, [sp, #4]
    26be:	2380      	movs	r3, #128	; 0x80
    26c0:	025b      	lsls	r3, r3, #9
    26c2:	18c0      	adds	r0, r0, r3
    26c4:	9001      	str	r0, [sp, #4]
    26c6:	9c03      	ldr	r4, [sp, #12]
    26c8:	9f02      	ldr	r7, [sp, #8]
    26ca:	1c20      	adds	r0, r4, #0
    26cc:	4460      	add	r0, ip
    26ce:	19c0      	adds	r0, r0, r7
    26d0:	4560      	cmp	r0, ip
    26d2:	41a4      	sbcs	r4, r4
    26d4:	4647      	mov	r7, r8
    26d6:	4264      	negs	r4, r4
    26d8:	46a4      	mov	ip, r4
    26da:	042b      	lsls	r3, r5, #16
    26dc:	043c      	lsls	r4, r7, #16
    26de:	4699      	mov	r9, r3
    26e0:	0c24      	lsrs	r4, r4, #16
    26e2:	444c      	add	r4, r9
    26e4:	46a0      	mov	r8, r4
    26e6:	44d8      	add	r8, fp
    26e8:	1880      	adds	r0, r0, r2
    26ea:	46c2      	mov	sl, r8
    26ec:	44e2      	add	sl, ip
    26ee:	4290      	cmp	r0, r2
    26f0:	4192      	sbcs	r2, r2
    26f2:	4657      	mov	r7, sl
    26f4:	4252      	negs	r2, r2
    26f6:	4691      	mov	r9, r2
    26f8:	19f2      	adds	r2, r6, r7
    26fa:	45e2      	cmp	sl, ip
    26fc:	41bf      	sbcs	r7, r7
    26fe:	427f      	negs	r7, r7
    2700:	464b      	mov	r3, r9
    2702:	46bc      	mov	ip, r7
    2704:	45d8      	cmp	r8, fp
    2706:	41bf      	sbcs	r7, r7
    2708:	18d4      	adds	r4, r2, r3
    270a:	427f      	negs	r7, r7
    270c:	4663      	mov	r3, ip
    270e:	431f      	orrs	r7, r3
    2710:	0c2d      	lsrs	r5, r5, #16
    2712:	197f      	adds	r7, r7, r5
    2714:	42b2      	cmp	r2, r6
    2716:	4192      	sbcs	r2, r2
    2718:	454c      	cmp	r4, r9
    271a:	41ad      	sbcs	r5, r5
    271c:	4252      	negs	r2, r2
    271e:	426d      	negs	r5, r5
    2720:	4315      	orrs	r5, r2
    2722:	9e01      	ldr	r6, [sp, #4]
    2724:	197d      	adds	r5, r7, r5
    2726:	19ab      	adds	r3, r5, r6
    2728:	0de2      	lsrs	r2, r4, #23
    272a:	025b      	lsls	r3, r3, #9
    272c:	9f05      	ldr	r7, [sp, #20]
    272e:	4313      	orrs	r3, r2
    2730:	0242      	lsls	r2, r0, #9
    2732:	433a      	orrs	r2, r7
    2734:	469a      	mov	sl, r3
    2736:	1e53      	subs	r3, r2, #1
    2738:	419a      	sbcs	r2, r3
    273a:	0dc3      	lsrs	r3, r0, #23
    273c:	1c10      	adds	r0, r2, #0
    273e:	4318      	orrs	r0, r3
    2740:	0264      	lsls	r4, r4, #9
    2742:	4320      	orrs	r0, r4
    2744:	4680      	mov	r8, r0
    2746:	4650      	mov	r0, sl
    2748:	01c0      	lsls	r0, r0, #7
    274a:	d50d      	bpl.n	2768 <__aeabi_dmul+0x370>
    274c:	4645      	mov	r5, r8
    274e:	2201      	movs	r2, #1
    2750:	4656      	mov	r6, sl
    2752:	9c04      	ldr	r4, [sp, #16]
    2754:	086b      	lsrs	r3, r5, #1
    2756:	402a      	ands	r2, r5
    2758:	431a      	orrs	r2, r3
    275a:	07f3      	lsls	r3, r6, #31
    275c:	3401      	adds	r4, #1
    275e:	431a      	orrs	r2, r3
    2760:	0876      	lsrs	r6, r6, #1
    2762:	9404      	str	r4, [sp, #16]
    2764:	4690      	mov	r8, r2
    2766:	46b2      	mov	sl, r6
    2768:	9e04      	ldr	r6, [sp, #16]
    276a:	4f63      	ldr	r7, [pc, #396]	; (28f8 <__aeabi_dmul+0x500>)
    276c:	19f3      	adds	r3, r6, r7
    276e:	2b00      	cmp	r3, #0
    2770:	dd61      	ble.n	2836 <__aeabi_dmul+0x43e>
    2772:	4640      	mov	r0, r8
    2774:	0740      	lsls	r0, r0, #29
    2776:	d00b      	beq.n	2790 <__aeabi_dmul+0x398>
    2778:	220f      	movs	r2, #15
    277a:	4644      	mov	r4, r8
    277c:	4022      	ands	r2, r4
    277e:	2a04      	cmp	r2, #4
    2780:	d006      	beq.n	2790 <__aeabi_dmul+0x398>
    2782:	4642      	mov	r2, r8
    2784:	3204      	adds	r2, #4
    2786:	4542      	cmp	r2, r8
    2788:	4180      	sbcs	r0, r0
    278a:	4240      	negs	r0, r0
    278c:	4482      	add	sl, r0
    278e:	4690      	mov	r8, r2
    2790:	4655      	mov	r5, sl
    2792:	01ed      	lsls	r5, r5, #7
    2794:	d507      	bpl.n	27a6 <__aeabi_dmul+0x3ae>
    2796:	4b59      	ldr	r3, [pc, #356]	; (28fc <__aeabi_dmul+0x504>)
    2798:	4656      	mov	r6, sl
    279a:	9f04      	ldr	r7, [sp, #16]
    279c:	2080      	movs	r0, #128	; 0x80
    279e:	401e      	ands	r6, r3
    27a0:	00c0      	lsls	r0, r0, #3
    27a2:	46b2      	mov	sl, r6
    27a4:	183b      	adds	r3, r7, r0
    27a6:	4a56      	ldr	r2, [pc, #344]	; (2900 <__aeabi_dmul+0x508>)
    27a8:	4293      	cmp	r3, r2
    27aa:	dd00      	ble.n	27ae <__aeabi_dmul+0x3b6>
    27ac:	e6ea      	b.n	2584 <__aeabi_dmul+0x18c>
    27ae:	4644      	mov	r4, r8
    27b0:	4655      	mov	r5, sl
    27b2:	08e2      	lsrs	r2, r4, #3
    27b4:	0768      	lsls	r0, r5, #29
    27b6:	4310      	orrs	r0, r2
    27b8:	2201      	movs	r2, #1
    27ba:	026c      	lsls	r4, r5, #9
    27bc:	055b      	lsls	r3, r3, #21
    27be:	400a      	ands	r2, r1
    27c0:	4680      	mov	r8, r0
    27c2:	0b24      	lsrs	r4, r4, #12
    27c4:	0d5b      	lsrs	r3, r3, #21
    27c6:	4691      	mov	r9, r2
    27c8:	e67b      	b.n	24c2 <__aeabi_dmul+0xca>
    27ca:	46da      	mov	sl, fp
    27cc:	4690      	mov	r8, r2
    27ce:	1c1d      	adds	r5, r3, #0
    27d0:	e669      	b.n	24a6 <__aeabi_dmul+0xae>
    27d2:	2480      	movs	r4, #128	; 0x80
    27d4:	0324      	lsls	r4, r4, #12
    27d6:	4657      	mov	r7, sl
    27d8:	4227      	tst	r7, r4
    27da:	d11c      	bne.n	2816 <__aeabi_dmul+0x41e>
    27dc:	433c      	orrs	r4, r7
    27de:	0324      	lsls	r4, r4, #12
    27e0:	0b24      	lsrs	r4, r4, #12
    27e2:	4b48      	ldr	r3, [pc, #288]	; (2904 <__aeabi_dmul+0x50c>)
    27e4:	e66d      	b.n	24c2 <__aeabi_dmul+0xca>
    27e6:	1c03      	adds	r3, r0, #0
    27e8:	3b28      	subs	r3, #40	; 0x28
    27ea:	1c31      	adds	r1, r6, #0
    27ec:	4099      	lsls	r1, r3
    27ee:	468b      	mov	fp, r1
    27f0:	2200      	movs	r2, #0
    27f2:	e6c3      	b.n	257c <__aeabi_dmul+0x184>
    27f4:	1c30      	adds	r0, r6, #0
    27f6:	f000 fd13 	bl	3220 <__clzsi2>
    27fa:	3020      	adds	r0, #32
    27fc:	e6ad      	b.n	255a <__aeabi_dmul+0x162>
    27fe:	3b28      	subs	r3, #40	; 0x28
    2800:	1c21      	adds	r1, r4, #0
    2802:	4099      	lsls	r1, r3
    2804:	2200      	movs	r2, #0
    2806:	468a      	mov	sl, r1
    2808:	4690      	mov	r8, r2
    280a:	e68e      	b.n	252a <__aeabi_dmul+0x132>
    280c:	1c20      	adds	r0, r4, #0
    280e:	f000 fd07 	bl	3220 <__clzsi2>
    2812:	3020      	adds	r0, #32
    2814:	e678      	b.n	2508 <__aeabi_dmul+0x110>
    2816:	4658      	mov	r0, fp
    2818:	4220      	tst	r0, r4
    281a:	d107      	bne.n	282c <__aeabi_dmul+0x434>
    281c:	4304      	orrs	r4, r0
    281e:	9903      	ldr	r1, [sp, #12]
    2820:	0324      	lsls	r4, r4, #12
    2822:	0b24      	lsrs	r4, r4, #12
    2824:	4689      	mov	r9, r1
    2826:	4690      	mov	r8, r2
    2828:	4b36      	ldr	r3, [pc, #216]	; (2904 <__aeabi_dmul+0x50c>)
    282a:	e64a      	b.n	24c2 <__aeabi_dmul+0xca>
    282c:	433c      	orrs	r4, r7
    282e:	0324      	lsls	r4, r4, #12
    2830:	0b24      	lsrs	r4, r4, #12
    2832:	4b34      	ldr	r3, [pc, #208]	; (2904 <__aeabi_dmul+0x50c>)
    2834:	e645      	b.n	24c2 <__aeabi_dmul+0xca>
    2836:	4b34      	ldr	r3, [pc, #208]	; (2908 <__aeabi_dmul+0x510>)
    2838:	9e04      	ldr	r6, [sp, #16]
    283a:	1b9b      	subs	r3, r3, r6
    283c:	2b38      	cmp	r3, #56	; 0x38
    283e:	dd06      	ble.n	284e <__aeabi_dmul+0x456>
    2840:	2301      	movs	r3, #1
    2842:	400b      	ands	r3, r1
    2844:	2400      	movs	r4, #0
    2846:	4699      	mov	r9, r3
    2848:	46a0      	mov	r8, r4
    284a:	2300      	movs	r3, #0
    284c:	e639      	b.n	24c2 <__aeabi_dmul+0xca>
    284e:	2b1f      	cmp	r3, #31
    2850:	dc25      	bgt.n	289e <__aeabi_dmul+0x4a6>
    2852:	9c04      	ldr	r4, [sp, #16]
    2854:	4d2d      	ldr	r5, [pc, #180]	; (290c <__aeabi_dmul+0x514>)
    2856:	4646      	mov	r6, r8
    2858:	1960      	adds	r0, r4, r5
    285a:	4652      	mov	r2, sl
    285c:	4644      	mov	r4, r8
    285e:	4086      	lsls	r6, r0
    2860:	40dc      	lsrs	r4, r3
    2862:	4082      	lsls	r2, r0
    2864:	4657      	mov	r7, sl
    2866:	1c30      	adds	r0, r6, #0
    2868:	4322      	orrs	r2, r4
    286a:	40df      	lsrs	r7, r3
    286c:	1e44      	subs	r4, r0, #1
    286e:	41a0      	sbcs	r0, r4
    2870:	4302      	orrs	r2, r0
    2872:	1c3b      	adds	r3, r7, #0
    2874:	0754      	lsls	r4, r2, #29
    2876:	d009      	beq.n	288c <__aeabi_dmul+0x494>
    2878:	200f      	movs	r0, #15
    287a:	4010      	ands	r0, r2
    287c:	2804      	cmp	r0, #4
    287e:	d005      	beq.n	288c <__aeabi_dmul+0x494>
    2880:	1d10      	adds	r0, r2, #4
    2882:	4290      	cmp	r0, r2
    2884:	4192      	sbcs	r2, r2
    2886:	4252      	negs	r2, r2
    2888:	189b      	adds	r3, r3, r2
    288a:	1c02      	adds	r2, r0, #0
    288c:	021d      	lsls	r5, r3, #8
    288e:	d51a      	bpl.n	28c6 <__aeabi_dmul+0x4ce>
    2890:	2301      	movs	r3, #1
    2892:	400b      	ands	r3, r1
    2894:	2400      	movs	r4, #0
    2896:	4699      	mov	r9, r3
    2898:	46a0      	mov	r8, r4
    289a:	2301      	movs	r3, #1
    289c:	e611      	b.n	24c2 <__aeabi_dmul+0xca>
    289e:	481c      	ldr	r0, [pc, #112]	; (2910 <__aeabi_dmul+0x518>)
    28a0:	9c04      	ldr	r4, [sp, #16]
    28a2:	4655      	mov	r5, sl
    28a4:	1b00      	subs	r0, r0, r4
    28a6:	40c5      	lsrs	r5, r0
    28a8:	1c28      	adds	r0, r5, #0
    28aa:	2b20      	cmp	r3, #32
    28ac:	d016      	beq.n	28dc <__aeabi_dmul+0x4e4>
    28ae:	4e19      	ldr	r6, [pc, #100]	; (2914 <__aeabi_dmul+0x51c>)
    28b0:	4657      	mov	r7, sl
    28b2:	19a2      	adds	r2, r4, r6
    28b4:	4097      	lsls	r7, r2
    28b6:	1c3a      	adds	r2, r7, #0
    28b8:	4643      	mov	r3, r8
    28ba:	431a      	orrs	r2, r3
    28bc:	1e53      	subs	r3, r2, #1
    28be:	419a      	sbcs	r2, r3
    28c0:	4302      	orrs	r2, r0
    28c2:	2300      	movs	r3, #0
    28c4:	e7d6      	b.n	2874 <__aeabi_dmul+0x47c>
    28c6:	0758      	lsls	r0, r3, #29
    28c8:	025b      	lsls	r3, r3, #9
    28ca:	08d2      	lsrs	r2, r2, #3
    28cc:	0b1c      	lsrs	r4, r3, #12
    28ce:	2301      	movs	r3, #1
    28d0:	400b      	ands	r3, r1
    28d2:	4310      	orrs	r0, r2
    28d4:	4699      	mov	r9, r3
    28d6:	4680      	mov	r8, r0
    28d8:	2300      	movs	r3, #0
    28da:	e5f2      	b.n	24c2 <__aeabi_dmul+0xca>
    28dc:	2200      	movs	r2, #0
    28de:	e7eb      	b.n	28b8 <__aeabi_dmul+0x4c0>
    28e0:	2480      	movs	r4, #128	; 0x80
    28e2:	0324      	lsls	r4, r4, #12
    28e4:	4650      	mov	r0, sl
    28e6:	2301      	movs	r3, #1
    28e8:	4304      	orrs	r4, r0
    28ea:	4019      	ands	r1, r3
    28ec:	0324      	lsls	r4, r4, #12
    28ee:	0b24      	lsrs	r4, r4, #12
    28f0:	4689      	mov	r9, r1
    28f2:	4b04      	ldr	r3, [pc, #16]	; (2904 <__aeabi_dmul+0x50c>)
    28f4:	e5e5      	b.n	24c2 <__aeabi_dmul+0xca>
    28f6:	46c0      	nop			; (mov r8, r8)
    28f8:	000003ff 	.word	0x000003ff
    28fc:	feffffff 	.word	0xfeffffff
    2900:	000007fe 	.word	0x000007fe
    2904:	000007ff 	.word	0x000007ff
    2908:	fffffc02 	.word	0xfffffc02
    290c:	0000041e 	.word	0x0000041e
    2910:	fffffbe2 	.word	0xfffffbe2
    2914:	0000043e 	.word	0x0000043e

00002918 <__aeabi_dsub>:
__aeabi_dsub():
    2918:	b5f8      	push	{r3, r4, r5, r6, r7, lr}
    291a:	465f      	mov	r7, fp
    291c:	4656      	mov	r6, sl
    291e:	4644      	mov	r4, r8
    2920:	464d      	mov	r5, r9
    2922:	b4f0      	push	{r4, r5, r6, r7}
    2924:	030c      	lsls	r4, r1, #12
    2926:	004d      	lsls	r5, r1, #1
    2928:	0fcf      	lsrs	r7, r1, #31
    292a:	0a61      	lsrs	r1, r4, #9
    292c:	0f44      	lsrs	r4, r0, #29
    292e:	4321      	orrs	r1, r4
    2930:	00c4      	lsls	r4, r0, #3
    2932:	0318      	lsls	r0, r3, #12
    2934:	0fde      	lsrs	r6, r3, #31
    2936:	4680      	mov	r8, r0
    2938:	46b4      	mov	ip, r6
    293a:	4646      	mov	r6, r8
    293c:	0058      	lsls	r0, r3, #1
    293e:	0a76      	lsrs	r6, r6, #9
    2940:	0f53      	lsrs	r3, r2, #29
    2942:	4333      	orrs	r3, r6
    2944:	00d6      	lsls	r6, r2, #3
    2946:	4ad1      	ldr	r2, [pc, #836]	; (2c8c <__aeabi_dsub+0x374>)
    2948:	0d6d      	lsrs	r5, r5, #21
    294a:	46ba      	mov	sl, r7
    294c:	0d40      	lsrs	r0, r0, #21
    294e:	46b3      	mov	fp, r6
    2950:	4290      	cmp	r0, r2
    2952:	d100      	bne.n	2956 <__aeabi_dsub+0x3e>
    2954:	e0f5      	b.n	2b42 <__aeabi_dsub+0x22a>
    2956:	4662      	mov	r2, ip
    2958:	2601      	movs	r6, #1
    295a:	4072      	eors	r2, r6
    295c:	4694      	mov	ip, r2
    295e:	4567      	cmp	r7, ip
    2960:	d100      	bne.n	2964 <__aeabi_dsub+0x4c>
    2962:	e0ab      	b.n	2abc <__aeabi_dsub+0x1a4>
    2964:	1a2f      	subs	r7, r5, r0
    2966:	2f00      	cmp	r7, #0
    2968:	dc00      	bgt.n	296c <__aeabi_dsub+0x54>
    296a:	e111      	b.n	2b90 <__aeabi_dsub+0x278>
    296c:	2800      	cmp	r0, #0
    296e:	d13e      	bne.n	29ee <__aeabi_dsub+0xd6>
    2970:	4658      	mov	r0, fp
    2972:	4318      	orrs	r0, r3
    2974:	d000      	beq.n	2978 <__aeabi_dsub+0x60>
    2976:	e0f1      	b.n	2b5c <__aeabi_dsub+0x244>
    2978:	0760      	lsls	r0, r4, #29
    297a:	d100      	bne.n	297e <__aeabi_dsub+0x66>
    297c:	e097      	b.n	2aae <__aeabi_dsub+0x196>
    297e:	230f      	movs	r3, #15
    2980:	4023      	ands	r3, r4
    2982:	2b04      	cmp	r3, #4
    2984:	d100      	bne.n	2988 <__aeabi_dsub+0x70>
    2986:	e122      	b.n	2bce <__aeabi_dsub+0x2b6>
    2988:	1d22      	adds	r2, r4, #4
    298a:	42a2      	cmp	r2, r4
    298c:	41a4      	sbcs	r4, r4
    298e:	4264      	negs	r4, r4
    2990:	2380      	movs	r3, #128	; 0x80
    2992:	1909      	adds	r1, r1, r4
    2994:	041b      	lsls	r3, r3, #16
    2996:	2701      	movs	r7, #1
    2998:	4650      	mov	r0, sl
    299a:	400b      	ands	r3, r1
    299c:	4007      	ands	r7, r0
    299e:	1c14      	adds	r4, r2, #0
    29a0:	2b00      	cmp	r3, #0
    29a2:	d100      	bne.n	29a6 <__aeabi_dsub+0x8e>
    29a4:	e079      	b.n	2a9a <__aeabi_dsub+0x182>
    29a6:	4bb9      	ldr	r3, [pc, #740]	; (2c8c <__aeabi_dsub+0x374>)
    29a8:	3501      	adds	r5, #1
    29aa:	429d      	cmp	r5, r3
    29ac:	d100      	bne.n	29b0 <__aeabi_dsub+0x98>
    29ae:	e10b      	b.n	2bc8 <__aeabi_dsub+0x2b0>
    29b0:	4bb7      	ldr	r3, [pc, #732]	; (2c90 <__aeabi_dsub+0x378>)
    29b2:	08e4      	lsrs	r4, r4, #3
    29b4:	4019      	ands	r1, r3
    29b6:	0748      	lsls	r0, r1, #29
    29b8:	0249      	lsls	r1, r1, #9
    29ba:	4304      	orrs	r4, r0
    29bc:	0b0b      	lsrs	r3, r1, #12
    29be:	2000      	movs	r0, #0
    29c0:	2100      	movs	r1, #0
    29c2:	031b      	lsls	r3, r3, #12
    29c4:	0b1a      	lsrs	r2, r3, #12
    29c6:	0d0b      	lsrs	r3, r1, #20
    29c8:	056d      	lsls	r5, r5, #21
    29ca:	051b      	lsls	r3, r3, #20
    29cc:	4313      	orrs	r3, r2
    29ce:	086a      	lsrs	r2, r5, #1
    29d0:	4db0      	ldr	r5, [pc, #704]	; (2c94 <__aeabi_dsub+0x37c>)
    29d2:	07ff      	lsls	r7, r7, #31
    29d4:	401d      	ands	r5, r3
    29d6:	4315      	orrs	r5, r2
    29d8:	006d      	lsls	r5, r5, #1
    29da:	086d      	lsrs	r5, r5, #1
    29dc:	1c29      	adds	r1, r5, #0
    29de:	4339      	orrs	r1, r7
    29e0:	1c20      	adds	r0, r4, #0
    29e2:	bc3c      	pop	{r2, r3, r4, r5}
    29e4:	4690      	mov	r8, r2
    29e6:	4699      	mov	r9, r3
    29e8:	46a2      	mov	sl, r4
    29ea:	46ab      	mov	fp, r5
    29ec:	bdf8      	pop	{r3, r4, r5, r6, r7, pc}
    29ee:	48a7      	ldr	r0, [pc, #668]	; (2c8c <__aeabi_dsub+0x374>)
    29f0:	4285      	cmp	r5, r0
    29f2:	d0c1      	beq.n	2978 <__aeabi_dsub+0x60>
    29f4:	2080      	movs	r0, #128	; 0x80
    29f6:	0400      	lsls	r0, r0, #16
    29f8:	4303      	orrs	r3, r0
    29fa:	2f38      	cmp	r7, #56	; 0x38
    29fc:	dd00      	ble.n	2a00 <__aeabi_dsub+0xe8>
    29fe:	e0fd      	b.n	2bfc <__aeabi_dsub+0x2e4>
    2a00:	2f1f      	cmp	r7, #31
    2a02:	dd00      	ble.n	2a06 <__aeabi_dsub+0xee>
    2a04:	e131      	b.n	2c6a <__aeabi_dsub+0x352>
    2a06:	2020      	movs	r0, #32
    2a08:	1bc0      	subs	r0, r0, r7
    2a0a:	1c1a      	adds	r2, r3, #0
    2a0c:	465e      	mov	r6, fp
    2a0e:	4082      	lsls	r2, r0
    2a10:	40fe      	lsrs	r6, r7
    2a12:	4332      	orrs	r2, r6
    2a14:	4694      	mov	ip, r2
    2a16:	465a      	mov	r2, fp
    2a18:	4082      	lsls	r2, r0
    2a1a:	1c10      	adds	r0, r2, #0
    2a1c:	1e42      	subs	r2, r0, #1
    2a1e:	4190      	sbcs	r0, r2
    2a20:	40fb      	lsrs	r3, r7
    2a22:	4662      	mov	r2, ip
    2a24:	4302      	orrs	r2, r0
    2a26:	1c1f      	adds	r7, r3, #0
    2a28:	1aa2      	subs	r2, r4, r2
    2a2a:	4294      	cmp	r4, r2
    2a2c:	41a4      	sbcs	r4, r4
    2a2e:	4264      	negs	r4, r4
    2a30:	1bc9      	subs	r1, r1, r7
    2a32:	1b09      	subs	r1, r1, r4
    2a34:	1c14      	adds	r4, r2, #0
    2a36:	020a      	lsls	r2, r1, #8
    2a38:	d59e      	bpl.n	2978 <__aeabi_dsub+0x60>
    2a3a:	0249      	lsls	r1, r1, #9
    2a3c:	0a4f      	lsrs	r7, r1, #9
    2a3e:	2f00      	cmp	r7, #0
    2a40:	d100      	bne.n	2a44 <__aeabi_dsub+0x12c>
    2a42:	e0d6      	b.n	2bf2 <__aeabi_dsub+0x2da>
    2a44:	1c38      	adds	r0, r7, #0
    2a46:	f000 fbeb 	bl	3220 <__clzsi2>
    2a4a:	1c02      	adds	r2, r0, #0
    2a4c:	3a08      	subs	r2, #8
    2a4e:	2a1f      	cmp	r2, #31
    2a50:	dd00      	ble.n	2a54 <__aeabi_dsub+0x13c>
    2a52:	e0c3      	b.n	2bdc <__aeabi_dsub+0x2c4>
    2a54:	2128      	movs	r1, #40	; 0x28
    2a56:	1c23      	adds	r3, r4, #0
    2a58:	1a09      	subs	r1, r1, r0
    2a5a:	4097      	lsls	r7, r2
    2a5c:	40cb      	lsrs	r3, r1
    2a5e:	431f      	orrs	r7, r3
    2a60:	4094      	lsls	r4, r2
    2a62:	4295      	cmp	r5, r2
    2a64:	dd00      	ble.n	2a68 <__aeabi_dsub+0x150>
    2a66:	e0c0      	b.n	2bea <__aeabi_dsub+0x2d2>
    2a68:	1b55      	subs	r5, r2, r5
    2a6a:	1c69      	adds	r1, r5, #1
    2a6c:	291f      	cmp	r1, #31
    2a6e:	dd00      	ble.n	2a72 <__aeabi_dsub+0x15a>
    2a70:	e0ea      	b.n	2c48 <__aeabi_dsub+0x330>
    2a72:	221f      	movs	r2, #31
    2a74:	1b55      	subs	r5, r2, r5
    2a76:	1c3b      	adds	r3, r7, #0
    2a78:	1c22      	adds	r2, r4, #0
    2a7a:	40ab      	lsls	r3, r5
    2a7c:	40ca      	lsrs	r2, r1
    2a7e:	40ac      	lsls	r4, r5
    2a80:	1e65      	subs	r5, r4, #1
    2a82:	41ac      	sbcs	r4, r5
    2a84:	4313      	orrs	r3, r2
    2a86:	40cf      	lsrs	r7, r1
    2a88:	431c      	orrs	r4, r3
    2a8a:	1c39      	adds	r1, r7, #0
    2a8c:	2500      	movs	r5, #0
    2a8e:	e773      	b.n	2978 <__aeabi_dsub+0x60>
    2a90:	2180      	movs	r1, #128	; 0x80
    2a92:	4d7e      	ldr	r5, [pc, #504]	; (2c8c <__aeabi_dsub+0x374>)
    2a94:	2700      	movs	r7, #0
    2a96:	03c9      	lsls	r1, r1, #15
    2a98:	2400      	movs	r4, #0
    2a9a:	4b7c      	ldr	r3, [pc, #496]	; (2c8c <__aeabi_dsub+0x374>)
    2a9c:	0748      	lsls	r0, r1, #29
    2a9e:	08e4      	lsrs	r4, r4, #3
    2aa0:	4304      	orrs	r4, r0
    2aa2:	08c9      	lsrs	r1, r1, #3
    2aa4:	429d      	cmp	r5, r3
    2aa6:	d050      	beq.n	2b4a <__aeabi_dsub+0x232>
    2aa8:	0309      	lsls	r1, r1, #12
    2aaa:	0b0b      	lsrs	r3, r1, #12
    2aac:	e787      	b.n	29be <__aeabi_dsub+0xa6>
    2aae:	2380      	movs	r3, #128	; 0x80
    2ab0:	041b      	lsls	r3, r3, #16
    2ab2:	2701      	movs	r7, #1
    2ab4:	4652      	mov	r2, sl
    2ab6:	400b      	ands	r3, r1
    2ab8:	4017      	ands	r7, r2
    2aba:	e771      	b.n	29a0 <__aeabi_dsub+0x88>
    2abc:	1a2a      	subs	r2, r5, r0
    2abe:	4694      	mov	ip, r2
    2ac0:	2a00      	cmp	r2, #0
    2ac2:	dc00      	bgt.n	2ac6 <__aeabi_dsub+0x1ae>
    2ac4:	e0a1      	b.n	2c0a <__aeabi_dsub+0x2f2>
    2ac6:	2800      	cmp	r0, #0
    2ac8:	d054      	beq.n	2b74 <__aeabi_dsub+0x25c>
    2aca:	4870      	ldr	r0, [pc, #448]	; (2c8c <__aeabi_dsub+0x374>)
    2acc:	4285      	cmp	r5, r0
    2ace:	d100      	bne.n	2ad2 <__aeabi_dsub+0x1ba>
    2ad0:	e752      	b.n	2978 <__aeabi_dsub+0x60>
    2ad2:	2080      	movs	r0, #128	; 0x80
    2ad4:	0400      	lsls	r0, r0, #16
    2ad6:	4303      	orrs	r3, r0
    2ad8:	4660      	mov	r0, ip
    2ada:	2838      	cmp	r0, #56	; 0x38
    2adc:	dd00      	ble.n	2ae0 <__aeabi_dsub+0x1c8>
    2ade:	e10e      	b.n	2cfe <__aeabi_dsub+0x3e6>
    2ae0:	281f      	cmp	r0, #31
    2ae2:	dd00      	ble.n	2ae6 <__aeabi_dsub+0x1ce>
    2ae4:	e157      	b.n	2d96 <__aeabi_dsub+0x47e>
    2ae6:	4662      	mov	r2, ip
    2ae8:	2020      	movs	r0, #32
    2aea:	1a80      	subs	r0, r0, r2
    2aec:	1c1e      	adds	r6, r3, #0
    2aee:	4086      	lsls	r6, r0
    2af0:	46b1      	mov	r9, r6
    2af2:	465e      	mov	r6, fp
    2af4:	40d6      	lsrs	r6, r2
    2af6:	464a      	mov	r2, r9
    2af8:	4332      	orrs	r2, r6
    2afa:	465e      	mov	r6, fp
    2afc:	4086      	lsls	r6, r0
    2afe:	4690      	mov	r8, r2
    2b00:	1c30      	adds	r0, r6, #0
    2b02:	1e42      	subs	r2, r0, #1
    2b04:	4190      	sbcs	r0, r2
    2b06:	4642      	mov	r2, r8
    2b08:	4302      	orrs	r2, r0
    2b0a:	4660      	mov	r0, ip
    2b0c:	40c3      	lsrs	r3, r0
    2b0e:	1912      	adds	r2, r2, r4
    2b10:	42a2      	cmp	r2, r4
    2b12:	41a4      	sbcs	r4, r4
    2b14:	4264      	negs	r4, r4
    2b16:	1859      	adds	r1, r3, r1
    2b18:	1909      	adds	r1, r1, r4
    2b1a:	1c14      	adds	r4, r2, #0
    2b1c:	0208      	lsls	r0, r1, #8
    2b1e:	d400      	bmi.n	2b22 <__aeabi_dsub+0x20a>
    2b20:	e72a      	b.n	2978 <__aeabi_dsub+0x60>
    2b22:	4b5a      	ldr	r3, [pc, #360]	; (2c8c <__aeabi_dsub+0x374>)
    2b24:	3501      	adds	r5, #1
    2b26:	429d      	cmp	r5, r3
    2b28:	d100      	bne.n	2b2c <__aeabi_dsub+0x214>
    2b2a:	e131      	b.n	2d90 <__aeabi_dsub+0x478>
    2b2c:	4b58      	ldr	r3, [pc, #352]	; (2c90 <__aeabi_dsub+0x378>)
    2b2e:	0860      	lsrs	r0, r4, #1
    2b30:	4019      	ands	r1, r3
    2b32:	2301      	movs	r3, #1
    2b34:	4023      	ands	r3, r4
    2b36:	1c1c      	adds	r4, r3, #0
    2b38:	4304      	orrs	r4, r0
    2b3a:	07cb      	lsls	r3, r1, #31
    2b3c:	431c      	orrs	r4, r3
    2b3e:	0849      	lsrs	r1, r1, #1
    2b40:	e71a      	b.n	2978 <__aeabi_dsub+0x60>
    2b42:	431e      	orrs	r6, r3
    2b44:	d000      	beq.n	2b48 <__aeabi_dsub+0x230>
    2b46:	e70a      	b.n	295e <__aeabi_dsub+0x46>
    2b48:	e705      	b.n	2956 <__aeabi_dsub+0x3e>
    2b4a:	1c23      	adds	r3, r4, #0
    2b4c:	430b      	orrs	r3, r1
    2b4e:	d03b      	beq.n	2bc8 <__aeabi_dsub+0x2b0>
    2b50:	2380      	movs	r3, #128	; 0x80
    2b52:	031b      	lsls	r3, r3, #12
    2b54:	430b      	orrs	r3, r1
    2b56:	031b      	lsls	r3, r3, #12
    2b58:	0b1b      	lsrs	r3, r3, #12
    2b5a:	e730      	b.n	29be <__aeabi_dsub+0xa6>
    2b5c:	3f01      	subs	r7, #1
    2b5e:	2f00      	cmp	r7, #0
    2b60:	d16d      	bne.n	2c3e <__aeabi_dsub+0x326>
    2b62:	465e      	mov	r6, fp
    2b64:	1ba2      	subs	r2, r4, r6
    2b66:	4294      	cmp	r4, r2
    2b68:	41a4      	sbcs	r4, r4
    2b6a:	4264      	negs	r4, r4
    2b6c:	1ac9      	subs	r1, r1, r3
    2b6e:	1b09      	subs	r1, r1, r4
    2b70:	1c14      	adds	r4, r2, #0
    2b72:	e760      	b.n	2a36 <__aeabi_dsub+0x11e>
    2b74:	4658      	mov	r0, fp
    2b76:	4318      	orrs	r0, r3
    2b78:	d100      	bne.n	2b7c <__aeabi_dsub+0x264>
    2b7a:	e6fd      	b.n	2978 <__aeabi_dsub+0x60>
    2b7c:	2601      	movs	r6, #1
    2b7e:	4276      	negs	r6, r6
    2b80:	44b4      	add	ip, r6
    2b82:	4660      	mov	r0, ip
    2b84:	2800      	cmp	r0, #0
    2b86:	d000      	beq.n	2b8a <__aeabi_dsub+0x272>
    2b88:	e0d0      	b.n	2d2c <__aeabi_dsub+0x414>
    2b8a:	465e      	mov	r6, fp
    2b8c:	1932      	adds	r2, r6, r4
    2b8e:	e7bf      	b.n	2b10 <__aeabi_dsub+0x1f8>
    2b90:	2f00      	cmp	r7, #0
    2b92:	d000      	beq.n	2b96 <__aeabi_dsub+0x27e>
    2b94:	e080      	b.n	2c98 <__aeabi_dsub+0x380>
    2b96:	1c68      	adds	r0, r5, #1
    2b98:	0540      	lsls	r0, r0, #21
    2b9a:	0d40      	lsrs	r0, r0, #21
    2b9c:	2801      	cmp	r0, #1
    2b9e:	dc00      	bgt.n	2ba2 <__aeabi_dsub+0x28a>
    2ba0:	e0e8      	b.n	2d74 <__aeabi_dsub+0x45c>
    2ba2:	465a      	mov	r2, fp
    2ba4:	1aa2      	subs	r2, r4, r2
    2ba6:	4294      	cmp	r4, r2
    2ba8:	41bf      	sbcs	r7, r7
    2baa:	1ac8      	subs	r0, r1, r3
    2bac:	427f      	negs	r7, r7
    2bae:	1bc7      	subs	r7, r0, r7
    2bb0:	023e      	lsls	r6, r7, #8
    2bb2:	d400      	bmi.n	2bb6 <__aeabi_dsub+0x29e>
    2bb4:	e098      	b.n	2ce8 <__aeabi_dsub+0x3d0>
    2bb6:	4658      	mov	r0, fp
    2bb8:	1b04      	subs	r4, r0, r4
    2bba:	45a3      	cmp	fp, r4
    2bbc:	4192      	sbcs	r2, r2
    2bbe:	1a59      	subs	r1, r3, r1
    2bc0:	4252      	negs	r2, r2
    2bc2:	1a8f      	subs	r7, r1, r2
    2bc4:	46e2      	mov	sl, ip
    2bc6:	e73a      	b.n	2a3e <__aeabi_dsub+0x126>
    2bc8:	2300      	movs	r3, #0
    2bca:	2400      	movs	r4, #0
    2bcc:	e6f7      	b.n	29be <__aeabi_dsub+0xa6>
    2bce:	2380      	movs	r3, #128	; 0x80
    2bd0:	041b      	lsls	r3, r3, #16
    2bd2:	2701      	movs	r7, #1
    2bd4:	4656      	mov	r6, sl
    2bd6:	400b      	ands	r3, r1
    2bd8:	4037      	ands	r7, r6
    2bda:	e6e1      	b.n	29a0 <__aeabi_dsub+0x88>
    2bdc:	1c27      	adds	r7, r4, #0
    2bde:	3828      	subs	r0, #40	; 0x28
    2be0:	4087      	lsls	r7, r0
    2be2:	2400      	movs	r4, #0
    2be4:	4295      	cmp	r5, r2
    2be6:	dc00      	bgt.n	2bea <__aeabi_dsub+0x2d2>
    2be8:	e73e      	b.n	2a68 <__aeabi_dsub+0x150>
    2bea:	4929      	ldr	r1, [pc, #164]	; (2c90 <__aeabi_dsub+0x378>)
    2bec:	1aad      	subs	r5, r5, r2
    2bee:	4039      	ands	r1, r7
    2bf0:	e6c2      	b.n	2978 <__aeabi_dsub+0x60>
    2bf2:	1c20      	adds	r0, r4, #0
    2bf4:	f000 fb14 	bl	3220 <__clzsi2>
    2bf8:	3020      	adds	r0, #32
    2bfa:	e726      	b.n	2a4a <__aeabi_dsub+0x132>
    2bfc:	465a      	mov	r2, fp
    2bfe:	431a      	orrs	r2, r3
    2c00:	1e53      	subs	r3, r2, #1
    2c02:	419a      	sbcs	r2, r3
    2c04:	b2d2      	uxtb	r2, r2
    2c06:	2700      	movs	r7, #0
    2c08:	e70e      	b.n	2a28 <__aeabi_dsub+0x110>
    2c0a:	2a00      	cmp	r2, #0
    2c0c:	d000      	beq.n	2c10 <__aeabi_dsub+0x2f8>
    2c0e:	e0de      	b.n	2dce <__aeabi_dsub+0x4b6>
    2c10:	1c68      	adds	r0, r5, #1
    2c12:	0546      	lsls	r6, r0, #21
    2c14:	0d76      	lsrs	r6, r6, #21
    2c16:	2e01      	cmp	r6, #1
    2c18:	dc00      	bgt.n	2c1c <__aeabi_dsub+0x304>
    2c1a:	e090      	b.n	2d3e <__aeabi_dsub+0x426>
    2c1c:	4d1b      	ldr	r5, [pc, #108]	; (2c8c <__aeabi_dsub+0x374>)
    2c1e:	42a8      	cmp	r0, r5
    2c20:	d100      	bne.n	2c24 <__aeabi_dsub+0x30c>
    2c22:	e0f5      	b.n	2e10 <__aeabi_dsub+0x4f8>
    2c24:	465e      	mov	r6, fp
    2c26:	1932      	adds	r2, r6, r4
    2c28:	42a2      	cmp	r2, r4
    2c2a:	41a4      	sbcs	r4, r4
    2c2c:	4264      	negs	r4, r4
    2c2e:	1859      	adds	r1, r3, r1
    2c30:	1909      	adds	r1, r1, r4
    2c32:	07cc      	lsls	r4, r1, #31
    2c34:	0852      	lsrs	r2, r2, #1
    2c36:	4314      	orrs	r4, r2
    2c38:	0849      	lsrs	r1, r1, #1
    2c3a:	1c05      	adds	r5, r0, #0
    2c3c:	e69c      	b.n	2978 <__aeabi_dsub+0x60>
    2c3e:	4813      	ldr	r0, [pc, #76]	; (2c8c <__aeabi_dsub+0x374>)
    2c40:	4285      	cmp	r5, r0
    2c42:	d000      	beq.n	2c46 <__aeabi_dsub+0x32e>
    2c44:	e6d9      	b.n	29fa <__aeabi_dsub+0xe2>
    2c46:	e697      	b.n	2978 <__aeabi_dsub+0x60>
    2c48:	1c2b      	adds	r3, r5, #0
    2c4a:	3b1f      	subs	r3, #31
    2c4c:	1c3e      	adds	r6, r7, #0
    2c4e:	40de      	lsrs	r6, r3
    2c50:	1c33      	adds	r3, r6, #0
    2c52:	2920      	cmp	r1, #32
    2c54:	d06f      	beq.n	2d36 <__aeabi_dsub+0x41e>
    2c56:	223f      	movs	r2, #63	; 0x3f
    2c58:	1b55      	subs	r5, r2, r5
    2c5a:	40af      	lsls	r7, r5
    2c5c:	433c      	orrs	r4, r7
    2c5e:	1e60      	subs	r0, r4, #1
    2c60:	4184      	sbcs	r4, r0
    2c62:	431c      	orrs	r4, r3
    2c64:	2100      	movs	r1, #0
    2c66:	2500      	movs	r5, #0
    2c68:	e686      	b.n	2978 <__aeabi_dsub+0x60>
    2c6a:	1c38      	adds	r0, r7, #0
    2c6c:	3820      	subs	r0, #32
    2c6e:	1c1e      	adds	r6, r3, #0
    2c70:	40c6      	lsrs	r6, r0
    2c72:	1c30      	adds	r0, r6, #0
    2c74:	2f20      	cmp	r7, #32
    2c76:	d060      	beq.n	2d3a <__aeabi_dsub+0x422>
    2c78:	2240      	movs	r2, #64	; 0x40
    2c7a:	1bd7      	subs	r7, r2, r7
    2c7c:	40bb      	lsls	r3, r7
    2c7e:	465a      	mov	r2, fp
    2c80:	431a      	orrs	r2, r3
    2c82:	1e53      	subs	r3, r2, #1
    2c84:	419a      	sbcs	r2, r3
    2c86:	4302      	orrs	r2, r0
    2c88:	2700      	movs	r7, #0
    2c8a:	e6cd      	b.n	2a28 <__aeabi_dsub+0x110>
    2c8c:	000007ff 	.word	0x000007ff
    2c90:	ff7fffff 	.word	0xff7fffff
    2c94:	800fffff 	.word	0x800fffff
    2c98:	2d00      	cmp	r5, #0
    2c9a:	d037      	beq.n	2d0c <__aeabi_dsub+0x3f4>
    2c9c:	4db6      	ldr	r5, [pc, #728]	; (2f78 <__aeabi_dsub+0x660>)
    2c9e:	42a8      	cmp	r0, r5
    2ca0:	d100      	bne.n	2ca4 <__aeabi_dsub+0x38c>
    2ca2:	e08f      	b.n	2dc4 <__aeabi_dsub+0x4ac>
    2ca4:	2580      	movs	r5, #128	; 0x80
    2ca6:	042d      	lsls	r5, r5, #16
    2ca8:	427f      	negs	r7, r7
    2caa:	4329      	orrs	r1, r5
    2cac:	2f38      	cmp	r7, #56	; 0x38
    2cae:	dd00      	ble.n	2cb2 <__aeabi_dsub+0x39a>
    2cb0:	e0a8      	b.n	2e04 <__aeabi_dsub+0x4ec>
    2cb2:	2f1f      	cmp	r7, #31
    2cb4:	dd00      	ble.n	2cb8 <__aeabi_dsub+0x3a0>
    2cb6:	e124      	b.n	2f02 <__aeabi_dsub+0x5ea>
    2cb8:	2520      	movs	r5, #32
    2cba:	1bed      	subs	r5, r5, r7
    2cbc:	1c0e      	adds	r6, r1, #0
    2cbe:	40ae      	lsls	r6, r5
    2cc0:	46b0      	mov	r8, r6
    2cc2:	1c26      	adds	r6, r4, #0
    2cc4:	40fe      	lsrs	r6, r7
    2cc6:	4642      	mov	r2, r8
    2cc8:	40ac      	lsls	r4, r5
    2cca:	4316      	orrs	r6, r2
    2ccc:	1e65      	subs	r5, r4, #1
    2cce:	41ac      	sbcs	r4, r5
    2cd0:	4334      	orrs	r4, r6
    2cd2:	40f9      	lsrs	r1, r7
    2cd4:	465a      	mov	r2, fp
    2cd6:	1b14      	subs	r4, r2, r4
    2cd8:	45a3      	cmp	fp, r4
    2cda:	4192      	sbcs	r2, r2
    2cdc:	1a5b      	subs	r3, r3, r1
    2cde:	4252      	negs	r2, r2
    2ce0:	1a99      	subs	r1, r3, r2
    2ce2:	1c05      	adds	r5, r0, #0
    2ce4:	46e2      	mov	sl, ip
    2ce6:	e6a6      	b.n	2a36 <__aeabi_dsub+0x11e>
    2ce8:	1c13      	adds	r3, r2, #0
    2cea:	433b      	orrs	r3, r7
    2cec:	1c14      	adds	r4, r2, #0
    2cee:	2b00      	cmp	r3, #0
    2cf0:	d000      	beq.n	2cf4 <__aeabi_dsub+0x3dc>
    2cf2:	e6a4      	b.n	2a3e <__aeabi_dsub+0x126>
    2cf4:	2700      	movs	r7, #0
    2cf6:	2100      	movs	r1, #0
    2cf8:	2500      	movs	r5, #0
    2cfa:	2400      	movs	r4, #0
    2cfc:	e6cd      	b.n	2a9a <__aeabi_dsub+0x182>
    2cfe:	465a      	mov	r2, fp
    2d00:	431a      	orrs	r2, r3
    2d02:	1e53      	subs	r3, r2, #1
    2d04:	419a      	sbcs	r2, r3
    2d06:	b2d2      	uxtb	r2, r2
    2d08:	2300      	movs	r3, #0
    2d0a:	e700      	b.n	2b0e <__aeabi_dsub+0x1f6>
    2d0c:	1c0d      	adds	r5, r1, #0
    2d0e:	4325      	orrs	r5, r4
    2d10:	d058      	beq.n	2dc4 <__aeabi_dsub+0x4ac>
    2d12:	43ff      	mvns	r7, r7
    2d14:	2f00      	cmp	r7, #0
    2d16:	d151      	bne.n	2dbc <__aeabi_dsub+0x4a4>
    2d18:	465a      	mov	r2, fp
    2d1a:	1b14      	subs	r4, r2, r4
    2d1c:	45a3      	cmp	fp, r4
    2d1e:	4192      	sbcs	r2, r2
    2d20:	1a59      	subs	r1, r3, r1
    2d22:	4252      	negs	r2, r2
    2d24:	1a89      	subs	r1, r1, r2
    2d26:	1c05      	adds	r5, r0, #0
    2d28:	46e2      	mov	sl, ip
    2d2a:	e684      	b.n	2a36 <__aeabi_dsub+0x11e>
    2d2c:	4892      	ldr	r0, [pc, #584]	; (2f78 <__aeabi_dsub+0x660>)
    2d2e:	4285      	cmp	r5, r0
    2d30:	d000      	beq.n	2d34 <__aeabi_dsub+0x41c>
    2d32:	e6d1      	b.n	2ad8 <__aeabi_dsub+0x1c0>
    2d34:	e620      	b.n	2978 <__aeabi_dsub+0x60>
    2d36:	2700      	movs	r7, #0
    2d38:	e790      	b.n	2c5c <__aeabi_dsub+0x344>
    2d3a:	2300      	movs	r3, #0
    2d3c:	e79f      	b.n	2c7e <__aeabi_dsub+0x366>
    2d3e:	1c08      	adds	r0, r1, #0
    2d40:	4320      	orrs	r0, r4
    2d42:	2d00      	cmp	r5, #0
    2d44:	d000      	beq.n	2d48 <__aeabi_dsub+0x430>
    2d46:	e0c2      	b.n	2ece <__aeabi_dsub+0x5b6>
    2d48:	2800      	cmp	r0, #0
    2d4a:	d100      	bne.n	2d4e <__aeabi_dsub+0x436>
    2d4c:	e0ef      	b.n	2f2e <__aeabi_dsub+0x616>
    2d4e:	4658      	mov	r0, fp
    2d50:	4318      	orrs	r0, r3
    2d52:	d100      	bne.n	2d56 <__aeabi_dsub+0x43e>
    2d54:	e610      	b.n	2978 <__aeabi_dsub+0x60>
    2d56:	4658      	mov	r0, fp
    2d58:	1902      	adds	r2, r0, r4
    2d5a:	42a2      	cmp	r2, r4
    2d5c:	41a4      	sbcs	r4, r4
    2d5e:	4264      	negs	r4, r4
    2d60:	1859      	adds	r1, r3, r1
    2d62:	1909      	adds	r1, r1, r4
    2d64:	1c14      	adds	r4, r2, #0
    2d66:	020a      	lsls	r2, r1, #8
    2d68:	d400      	bmi.n	2d6c <__aeabi_dsub+0x454>
    2d6a:	e605      	b.n	2978 <__aeabi_dsub+0x60>
    2d6c:	4b83      	ldr	r3, [pc, #524]	; (2f7c <__aeabi_dsub+0x664>)
    2d6e:	2501      	movs	r5, #1
    2d70:	4019      	ands	r1, r3
    2d72:	e601      	b.n	2978 <__aeabi_dsub+0x60>
    2d74:	1c08      	adds	r0, r1, #0
    2d76:	4320      	orrs	r0, r4
    2d78:	2d00      	cmp	r5, #0
    2d7a:	d138      	bne.n	2dee <__aeabi_dsub+0x4d6>
    2d7c:	2800      	cmp	r0, #0
    2d7e:	d16f      	bne.n	2e60 <__aeabi_dsub+0x548>
    2d80:	4659      	mov	r1, fp
    2d82:	4319      	orrs	r1, r3
    2d84:	d003      	beq.n	2d8e <__aeabi_dsub+0x476>
    2d86:	1c19      	adds	r1, r3, #0
    2d88:	465c      	mov	r4, fp
    2d8a:	46e2      	mov	sl, ip
    2d8c:	e5f4      	b.n	2978 <__aeabi_dsub+0x60>
    2d8e:	2700      	movs	r7, #0
    2d90:	2100      	movs	r1, #0
    2d92:	2400      	movs	r4, #0
    2d94:	e681      	b.n	2a9a <__aeabi_dsub+0x182>
    2d96:	4660      	mov	r0, ip
    2d98:	3820      	subs	r0, #32
    2d9a:	1c1a      	adds	r2, r3, #0
    2d9c:	40c2      	lsrs	r2, r0
    2d9e:	4666      	mov	r6, ip
    2da0:	1c10      	adds	r0, r2, #0
    2da2:	2e20      	cmp	r6, #32
    2da4:	d100      	bne.n	2da8 <__aeabi_dsub+0x490>
    2da6:	e0aa      	b.n	2efe <__aeabi_dsub+0x5e6>
    2da8:	2240      	movs	r2, #64	; 0x40
    2daa:	1b92      	subs	r2, r2, r6
    2dac:	4093      	lsls	r3, r2
    2dae:	465a      	mov	r2, fp
    2db0:	431a      	orrs	r2, r3
    2db2:	1e53      	subs	r3, r2, #1
    2db4:	419a      	sbcs	r2, r3
    2db6:	4302      	orrs	r2, r0
    2db8:	2300      	movs	r3, #0
    2dba:	e6a8      	b.n	2b0e <__aeabi_dsub+0x1f6>
    2dbc:	4d6e      	ldr	r5, [pc, #440]	; (2f78 <__aeabi_dsub+0x660>)
    2dbe:	42a8      	cmp	r0, r5
    2dc0:	d000      	beq.n	2dc4 <__aeabi_dsub+0x4ac>
    2dc2:	e773      	b.n	2cac <__aeabi_dsub+0x394>
    2dc4:	1c19      	adds	r1, r3, #0
    2dc6:	465c      	mov	r4, fp
    2dc8:	1c05      	adds	r5, r0, #0
    2dca:	46e2      	mov	sl, ip
    2dcc:	e5d4      	b.n	2978 <__aeabi_dsub+0x60>
    2dce:	2d00      	cmp	r5, #0
    2dd0:	d122      	bne.n	2e18 <__aeabi_dsub+0x500>
    2dd2:	1c0d      	adds	r5, r1, #0
    2dd4:	4325      	orrs	r5, r4
    2dd6:	d076      	beq.n	2ec6 <__aeabi_dsub+0x5ae>
    2dd8:	43d5      	mvns	r5, r2
    2dda:	2d00      	cmp	r5, #0
    2ddc:	d170      	bne.n	2ec0 <__aeabi_dsub+0x5a8>
    2dde:	445c      	add	r4, fp
    2de0:	455c      	cmp	r4, fp
    2de2:	4192      	sbcs	r2, r2
    2de4:	1859      	adds	r1, r3, r1
    2de6:	4252      	negs	r2, r2
    2de8:	1889      	adds	r1, r1, r2
    2dea:	1c05      	adds	r5, r0, #0
    2dec:	e696      	b.n	2b1c <__aeabi_dsub+0x204>
    2dee:	2800      	cmp	r0, #0
    2df0:	d14c      	bne.n	2e8c <__aeabi_dsub+0x574>
    2df2:	4659      	mov	r1, fp
    2df4:	4319      	orrs	r1, r3
    2df6:	d100      	bne.n	2dfa <__aeabi_dsub+0x4e2>
    2df8:	e64a      	b.n	2a90 <__aeabi_dsub+0x178>
    2dfa:	1c19      	adds	r1, r3, #0
    2dfc:	465c      	mov	r4, fp
    2dfe:	46e2      	mov	sl, ip
    2e00:	4d5d      	ldr	r5, [pc, #372]	; (2f78 <__aeabi_dsub+0x660>)
    2e02:	e5b9      	b.n	2978 <__aeabi_dsub+0x60>
    2e04:	430c      	orrs	r4, r1
    2e06:	1e61      	subs	r1, r4, #1
    2e08:	418c      	sbcs	r4, r1
    2e0a:	b2e4      	uxtb	r4, r4
    2e0c:	2100      	movs	r1, #0
    2e0e:	e761      	b.n	2cd4 <__aeabi_dsub+0x3bc>
    2e10:	1c05      	adds	r5, r0, #0
    2e12:	2100      	movs	r1, #0
    2e14:	2400      	movs	r4, #0
    2e16:	e640      	b.n	2a9a <__aeabi_dsub+0x182>
    2e18:	4d57      	ldr	r5, [pc, #348]	; (2f78 <__aeabi_dsub+0x660>)
    2e1a:	42a8      	cmp	r0, r5
    2e1c:	d053      	beq.n	2ec6 <__aeabi_dsub+0x5ae>
    2e1e:	4255      	negs	r5, r2
    2e20:	2280      	movs	r2, #128	; 0x80
    2e22:	0416      	lsls	r6, r2, #16
    2e24:	4331      	orrs	r1, r6
    2e26:	2d38      	cmp	r5, #56	; 0x38
    2e28:	dc7b      	bgt.n	2f22 <__aeabi_dsub+0x60a>
    2e2a:	2d1f      	cmp	r5, #31
    2e2c:	dd00      	ble.n	2e30 <__aeabi_dsub+0x518>
    2e2e:	e08c      	b.n	2f4a <__aeabi_dsub+0x632>
    2e30:	2220      	movs	r2, #32
    2e32:	1b56      	subs	r6, r2, r5
    2e34:	1c0a      	adds	r2, r1, #0
    2e36:	46b4      	mov	ip, r6
    2e38:	40b2      	lsls	r2, r6
    2e3a:	1c26      	adds	r6, r4, #0
    2e3c:	40ee      	lsrs	r6, r5
    2e3e:	4332      	orrs	r2, r6
    2e40:	4690      	mov	r8, r2
    2e42:	4662      	mov	r2, ip
    2e44:	4094      	lsls	r4, r2
    2e46:	1e66      	subs	r6, r4, #1
    2e48:	41b4      	sbcs	r4, r6
    2e4a:	4642      	mov	r2, r8
    2e4c:	4314      	orrs	r4, r2
    2e4e:	40e9      	lsrs	r1, r5
    2e50:	445c      	add	r4, fp
    2e52:	455c      	cmp	r4, fp
    2e54:	4192      	sbcs	r2, r2
    2e56:	18cb      	adds	r3, r1, r3
    2e58:	4252      	negs	r2, r2
    2e5a:	1899      	adds	r1, r3, r2
    2e5c:	1c05      	adds	r5, r0, #0
    2e5e:	e65d      	b.n	2b1c <__aeabi_dsub+0x204>
    2e60:	4658      	mov	r0, fp
    2e62:	4318      	orrs	r0, r3
    2e64:	d100      	bne.n	2e68 <__aeabi_dsub+0x550>
    2e66:	e587      	b.n	2978 <__aeabi_dsub+0x60>
    2e68:	465e      	mov	r6, fp
    2e6a:	1ba7      	subs	r7, r4, r6
    2e6c:	42bc      	cmp	r4, r7
    2e6e:	4192      	sbcs	r2, r2
    2e70:	1ac8      	subs	r0, r1, r3
    2e72:	4252      	negs	r2, r2
    2e74:	1a80      	subs	r0, r0, r2
    2e76:	0206      	lsls	r6, r0, #8
    2e78:	d560      	bpl.n	2f3c <__aeabi_dsub+0x624>
    2e7a:	4658      	mov	r0, fp
    2e7c:	1b04      	subs	r4, r0, r4
    2e7e:	45a3      	cmp	fp, r4
    2e80:	4192      	sbcs	r2, r2
    2e82:	1a59      	subs	r1, r3, r1
    2e84:	4252      	negs	r2, r2
    2e86:	1a89      	subs	r1, r1, r2
    2e88:	46e2      	mov	sl, ip
    2e8a:	e575      	b.n	2978 <__aeabi_dsub+0x60>
    2e8c:	4658      	mov	r0, fp
    2e8e:	4318      	orrs	r0, r3
    2e90:	d033      	beq.n	2efa <__aeabi_dsub+0x5e2>
    2e92:	0748      	lsls	r0, r1, #29
    2e94:	08e4      	lsrs	r4, r4, #3
    2e96:	4304      	orrs	r4, r0
    2e98:	2080      	movs	r0, #128	; 0x80
    2e9a:	08c9      	lsrs	r1, r1, #3
    2e9c:	0300      	lsls	r0, r0, #12
    2e9e:	4201      	tst	r1, r0
    2ea0:	d008      	beq.n	2eb4 <__aeabi_dsub+0x59c>
    2ea2:	08dd      	lsrs	r5, r3, #3
    2ea4:	4205      	tst	r5, r0
    2ea6:	d105      	bne.n	2eb4 <__aeabi_dsub+0x59c>
    2ea8:	4659      	mov	r1, fp
    2eaa:	08ca      	lsrs	r2, r1, #3
    2eac:	075c      	lsls	r4, r3, #29
    2eae:	4314      	orrs	r4, r2
    2eb0:	1c29      	adds	r1, r5, #0
    2eb2:	46e2      	mov	sl, ip
    2eb4:	0f63      	lsrs	r3, r4, #29
    2eb6:	00c9      	lsls	r1, r1, #3
    2eb8:	4319      	orrs	r1, r3
    2eba:	00e4      	lsls	r4, r4, #3
    2ebc:	4d2e      	ldr	r5, [pc, #184]	; (2f78 <__aeabi_dsub+0x660>)
    2ebe:	e55b      	b.n	2978 <__aeabi_dsub+0x60>
    2ec0:	4a2d      	ldr	r2, [pc, #180]	; (2f78 <__aeabi_dsub+0x660>)
    2ec2:	4290      	cmp	r0, r2
    2ec4:	d1af      	bne.n	2e26 <__aeabi_dsub+0x50e>
    2ec6:	1c19      	adds	r1, r3, #0
    2ec8:	465c      	mov	r4, fp
    2eca:	1c05      	adds	r5, r0, #0
    2ecc:	e554      	b.n	2978 <__aeabi_dsub+0x60>
    2ece:	2800      	cmp	r0, #0
    2ed0:	d030      	beq.n	2f34 <__aeabi_dsub+0x61c>
    2ed2:	4658      	mov	r0, fp
    2ed4:	4318      	orrs	r0, r3
    2ed6:	d010      	beq.n	2efa <__aeabi_dsub+0x5e2>
    2ed8:	2580      	movs	r5, #128	; 0x80
    2eda:	0748      	lsls	r0, r1, #29
    2edc:	08e4      	lsrs	r4, r4, #3
    2ede:	08c9      	lsrs	r1, r1, #3
    2ee0:	032d      	lsls	r5, r5, #12
    2ee2:	4304      	orrs	r4, r0
    2ee4:	4229      	tst	r1, r5
    2ee6:	d0e5      	beq.n	2eb4 <__aeabi_dsub+0x59c>
    2ee8:	08d8      	lsrs	r0, r3, #3
    2eea:	4228      	tst	r0, r5
    2eec:	d1e2      	bne.n	2eb4 <__aeabi_dsub+0x59c>
    2eee:	465d      	mov	r5, fp
    2ef0:	08ea      	lsrs	r2, r5, #3
    2ef2:	075c      	lsls	r4, r3, #29
    2ef4:	4314      	orrs	r4, r2
    2ef6:	1c01      	adds	r1, r0, #0
    2ef8:	e7dc      	b.n	2eb4 <__aeabi_dsub+0x59c>
    2efa:	4d1f      	ldr	r5, [pc, #124]	; (2f78 <__aeabi_dsub+0x660>)
    2efc:	e53c      	b.n	2978 <__aeabi_dsub+0x60>
    2efe:	2300      	movs	r3, #0
    2f00:	e755      	b.n	2dae <__aeabi_dsub+0x496>
    2f02:	1c3d      	adds	r5, r7, #0
    2f04:	3d20      	subs	r5, #32
    2f06:	1c0e      	adds	r6, r1, #0
    2f08:	40ee      	lsrs	r6, r5
    2f0a:	1c35      	adds	r5, r6, #0
    2f0c:	2f20      	cmp	r7, #32
    2f0e:	d02e      	beq.n	2f6e <__aeabi_dsub+0x656>
    2f10:	2640      	movs	r6, #64	; 0x40
    2f12:	1bf7      	subs	r7, r6, r7
    2f14:	40b9      	lsls	r1, r7
    2f16:	430c      	orrs	r4, r1
    2f18:	1e61      	subs	r1, r4, #1
    2f1a:	418c      	sbcs	r4, r1
    2f1c:	432c      	orrs	r4, r5
    2f1e:	2100      	movs	r1, #0
    2f20:	e6d8      	b.n	2cd4 <__aeabi_dsub+0x3bc>
    2f22:	430c      	orrs	r4, r1
    2f24:	1e61      	subs	r1, r4, #1
    2f26:	418c      	sbcs	r4, r1
    2f28:	b2e4      	uxtb	r4, r4
    2f2a:	2100      	movs	r1, #0
    2f2c:	e790      	b.n	2e50 <__aeabi_dsub+0x538>
    2f2e:	1c19      	adds	r1, r3, #0
    2f30:	465c      	mov	r4, fp
    2f32:	e521      	b.n	2978 <__aeabi_dsub+0x60>
    2f34:	1c19      	adds	r1, r3, #0
    2f36:	465c      	mov	r4, fp
    2f38:	4d0f      	ldr	r5, [pc, #60]	; (2f78 <__aeabi_dsub+0x660>)
    2f3a:	e51d      	b.n	2978 <__aeabi_dsub+0x60>
    2f3c:	1c03      	adds	r3, r0, #0
    2f3e:	433b      	orrs	r3, r7
    2f40:	d100      	bne.n	2f44 <__aeabi_dsub+0x62c>
    2f42:	e724      	b.n	2d8e <__aeabi_dsub+0x476>
    2f44:	1c01      	adds	r1, r0, #0
    2f46:	1c3c      	adds	r4, r7, #0
    2f48:	e516      	b.n	2978 <__aeabi_dsub+0x60>
    2f4a:	2620      	movs	r6, #32
    2f4c:	4276      	negs	r6, r6
    2f4e:	1976      	adds	r6, r6, r5
    2f50:	1c0a      	adds	r2, r1, #0
    2f52:	40f2      	lsrs	r2, r6
    2f54:	4690      	mov	r8, r2
    2f56:	2d20      	cmp	r5, #32
    2f58:	d00b      	beq.n	2f72 <__aeabi_dsub+0x65a>
    2f5a:	2640      	movs	r6, #64	; 0x40
    2f5c:	1b75      	subs	r5, r6, r5
    2f5e:	40a9      	lsls	r1, r5
    2f60:	430c      	orrs	r4, r1
    2f62:	1e61      	subs	r1, r4, #1
    2f64:	418c      	sbcs	r4, r1
    2f66:	4645      	mov	r5, r8
    2f68:	432c      	orrs	r4, r5
    2f6a:	2100      	movs	r1, #0
    2f6c:	e770      	b.n	2e50 <__aeabi_dsub+0x538>
    2f6e:	2100      	movs	r1, #0
    2f70:	e7d1      	b.n	2f16 <__aeabi_dsub+0x5fe>
    2f72:	2100      	movs	r1, #0
    2f74:	e7f4      	b.n	2f60 <__aeabi_dsub+0x648>
    2f76:	46c0      	nop			; (mov r8, r8)
    2f78:	000007ff 	.word	0x000007ff
    2f7c:	ff7fffff 	.word	0xff7fffff

00002f80 <__aeabi_d2iz>:
__aeabi_d2iz():
    2f80:	b570      	push	{r4, r5, r6, lr}
    2f82:	1c0b      	adds	r3, r1, #0
    2f84:	4c12      	ldr	r4, [pc, #72]	; (2fd0 <__aeabi_d2iz+0x50>)
    2f86:	0309      	lsls	r1, r1, #12
    2f88:	0b0e      	lsrs	r6, r1, #12
    2f8a:	0059      	lsls	r1, r3, #1
    2f8c:	1c02      	adds	r2, r0, #0
    2f8e:	0d49      	lsrs	r1, r1, #21
    2f90:	0fdd      	lsrs	r5, r3, #31
    2f92:	2000      	movs	r0, #0
    2f94:	42a1      	cmp	r1, r4
    2f96:	dd11      	ble.n	2fbc <__aeabi_d2iz+0x3c>
    2f98:	480e      	ldr	r0, [pc, #56]	; (2fd4 <__aeabi_d2iz+0x54>)
    2f9a:	4281      	cmp	r1, r0
    2f9c:	dc0f      	bgt.n	2fbe <__aeabi_d2iz+0x3e>
    2f9e:	2080      	movs	r0, #128	; 0x80
    2fa0:	0340      	lsls	r0, r0, #13
    2fa2:	4306      	orrs	r6, r0
    2fa4:	480c      	ldr	r0, [pc, #48]	; (2fd8 <__aeabi_d2iz+0x58>)
    2fa6:	1a40      	subs	r0, r0, r1
    2fa8:	281f      	cmp	r0, #31
    2faa:	dd0b      	ble.n	2fc4 <__aeabi_d2iz+0x44>
    2fac:	4a0b      	ldr	r2, [pc, #44]	; (2fdc <__aeabi_d2iz+0x5c>)
    2fae:	1a52      	subs	r2, r2, r1
    2fb0:	40d6      	lsrs	r6, r2
    2fb2:	1c32      	adds	r2, r6, #0
    2fb4:	4250      	negs	r0, r2
    2fb6:	2d00      	cmp	r5, #0
    2fb8:	d100      	bne.n	2fbc <__aeabi_d2iz+0x3c>
    2fba:	1c10      	adds	r0, r2, #0
    2fbc:	bd70      	pop	{r4, r5, r6, pc}
    2fbe:	4b08      	ldr	r3, [pc, #32]	; (2fe0 <__aeabi_d2iz+0x60>)
    2fc0:	18e8      	adds	r0, r5, r3
    2fc2:	e7fb      	b.n	2fbc <__aeabi_d2iz+0x3c>
    2fc4:	4b07      	ldr	r3, [pc, #28]	; (2fe4 <__aeabi_d2iz+0x64>)
    2fc6:	40c2      	lsrs	r2, r0
    2fc8:	18c9      	adds	r1, r1, r3
    2fca:	408e      	lsls	r6, r1
    2fcc:	4332      	orrs	r2, r6
    2fce:	e7f1      	b.n	2fb4 <__aeabi_d2iz+0x34>
    2fd0:	000003fe 	.word	0x000003fe
    2fd4:	0000041d 	.word	0x0000041d
    2fd8:	00000433 	.word	0x00000433
    2fdc:	00000413 	.word	0x00000413
    2fe0:	7fffffff 	.word	0x7fffffff
    2fe4:	fffffbed 	.word	0xfffffbed

00002fe8 <__aeabi_i2d>:
__aeabi_i2d():
    2fe8:	b5f8      	push	{r3, r4, r5, r6, r7, lr}
    2fea:	1e04      	subs	r4, r0, #0
    2fec:	d031      	beq.n	3052 <__aeabi_i2d+0x6a>
    2fee:	0fc7      	lsrs	r7, r0, #31
    2ff0:	d000      	beq.n	2ff4 <__aeabi_i2d+0xc>
    2ff2:	4244      	negs	r4, r0
    2ff4:	1c20      	adds	r0, r4, #0
    2ff6:	f000 f913 	bl	3220 <__clzsi2>
    2ffa:	4d18      	ldr	r5, [pc, #96]	; (305c <__aeabi_i2d+0x74>)
    2ffc:	1a2d      	subs	r5, r5, r0
    2ffe:	280a      	cmp	r0, #10
    3000:	dd19      	ble.n	3036 <__aeabi_i2d+0x4e>
    3002:	380b      	subs	r0, #11
    3004:	4084      	lsls	r4, r0
    3006:	0324      	lsls	r4, r4, #12
    3008:	056d      	lsls	r5, r5, #21
    300a:	0b24      	lsrs	r4, r4, #12
    300c:	0d6d      	lsrs	r5, r5, #21
    300e:	1c3a      	adds	r2, r7, #0
    3010:	2600      	movs	r6, #0
    3012:	2000      	movs	r0, #0
    3014:	2100      	movs	r1, #0
    3016:	0d0b      	lsrs	r3, r1, #20
    3018:	0324      	lsls	r4, r4, #12
    301a:	0b24      	lsrs	r4, r4, #12
    301c:	051b      	lsls	r3, r3, #20
    301e:	4323      	orrs	r3, r4
    3020:	4c0f      	ldr	r4, [pc, #60]	; (3060 <__aeabi_i2d+0x78>)
    3022:	052d      	lsls	r5, r5, #20
    3024:	401c      	ands	r4, r3
    3026:	432c      	orrs	r4, r5
    3028:	0064      	lsls	r4, r4, #1
    302a:	0864      	lsrs	r4, r4, #1
    302c:	07d3      	lsls	r3, r2, #31
    302e:	1c21      	adds	r1, r4, #0
    3030:	1c30      	adds	r0, r6, #0
    3032:	4319      	orrs	r1, r3
    3034:	bdf8      	pop	{r3, r4, r5, r6, r7, pc}
    3036:	1c06      	adds	r6, r0, #0
    3038:	3615      	adds	r6, #21
    303a:	1c23      	adds	r3, r4, #0
    303c:	40b3      	lsls	r3, r6
    303e:	1c1e      	adds	r6, r3, #0
    3040:	230b      	movs	r3, #11
    3042:	1a18      	subs	r0, r3, r0
    3044:	40c4      	lsrs	r4, r0
    3046:	0324      	lsls	r4, r4, #12
    3048:	056d      	lsls	r5, r5, #21
    304a:	0b24      	lsrs	r4, r4, #12
    304c:	0d6d      	lsrs	r5, r5, #21
    304e:	1c3a      	adds	r2, r7, #0
    3050:	e7df      	b.n	3012 <__aeabi_i2d+0x2a>
    3052:	2200      	movs	r2, #0
    3054:	2500      	movs	r5, #0
    3056:	2400      	movs	r4, #0
    3058:	2600      	movs	r6, #0
    305a:	e7da      	b.n	3012 <__aeabi_i2d+0x2a>
    305c:	0000041e 	.word	0x0000041e
    3060:	800fffff 	.word	0x800fffff

00003064 <__aeabi_f2d>:
__aeabi_f2d():
    3064:	0043      	lsls	r3, r0, #1
    3066:	0e1b      	lsrs	r3, r3, #24
    3068:	1c5a      	adds	r2, r3, #1
    306a:	0241      	lsls	r1, r0, #9
    306c:	b2d2      	uxtb	r2, r2
    306e:	b570      	push	{r4, r5, r6, lr}
    3070:	0a4c      	lsrs	r4, r1, #9
    3072:	0fc5      	lsrs	r5, r0, #31
    3074:	2a01      	cmp	r2, #1
    3076:	dd17      	ble.n	30a8 <__aeabi_f2d+0x44>
    3078:	22e0      	movs	r2, #224	; 0xe0
    307a:	0092      	lsls	r2, r2, #2
    307c:	0764      	lsls	r4, r4, #29
    307e:	0b09      	lsrs	r1, r1, #12
    3080:	1898      	adds	r0, r3, r2
    3082:	2200      	movs	r2, #0
    3084:	2300      	movs	r3, #0
    3086:	0d1e      	lsrs	r6, r3, #20
    3088:	1c22      	adds	r2, r4, #0
    308a:	0534      	lsls	r4, r6, #20
    308c:	430c      	orrs	r4, r1
    308e:	491b      	ldr	r1, [pc, #108]	; (30fc <__aeabi_f2d+0x98>)
    3090:	0540      	lsls	r0, r0, #21
    3092:	0840      	lsrs	r0, r0, #1
    3094:	4021      	ands	r1, r4
    3096:	4301      	orrs	r1, r0
    3098:	0049      	lsls	r1, r1, #1
    309a:	0849      	lsrs	r1, r1, #1
    309c:	07ed      	lsls	r5, r5, #31
    309e:	1c0b      	adds	r3, r1, #0
    30a0:	432b      	orrs	r3, r5
    30a2:	1c10      	adds	r0, r2, #0
    30a4:	1c19      	adds	r1, r3, #0
    30a6:	bd70      	pop	{r4, r5, r6, pc}
    30a8:	2b00      	cmp	r3, #0
    30aa:	d115      	bne.n	30d8 <__aeabi_f2d+0x74>
    30ac:	2c00      	cmp	r4, #0
    30ae:	d01c      	beq.n	30ea <__aeabi_f2d+0x86>
    30b0:	1c20      	adds	r0, r4, #0
    30b2:	f000 f8b5 	bl	3220 <__clzsi2>
    30b6:	280a      	cmp	r0, #10
    30b8:	dc1a      	bgt.n	30f0 <__aeabi_f2d+0x8c>
    30ba:	210b      	movs	r1, #11
    30bc:	1a09      	subs	r1, r1, r0
    30be:	1c23      	adds	r3, r4, #0
    30c0:	40cb      	lsrs	r3, r1
    30c2:	1c19      	adds	r1, r3, #0
    30c4:	1c03      	adds	r3, r0, #0
    30c6:	3315      	adds	r3, #21
    30c8:	409c      	lsls	r4, r3
    30ca:	4b0d      	ldr	r3, [pc, #52]	; (3100 <__aeabi_f2d+0x9c>)
    30cc:	0309      	lsls	r1, r1, #12
    30ce:	1a18      	subs	r0, r3, r0
    30d0:	0540      	lsls	r0, r0, #21
    30d2:	0b09      	lsrs	r1, r1, #12
    30d4:	0d40      	lsrs	r0, r0, #21
    30d6:	e7d4      	b.n	3082 <__aeabi_f2d+0x1e>
    30d8:	2c00      	cmp	r4, #0
    30da:	d003      	beq.n	30e4 <__aeabi_f2d+0x80>
    30dc:	0764      	lsls	r4, r4, #29
    30de:	0b09      	lsrs	r1, r1, #12
    30e0:	4808      	ldr	r0, [pc, #32]	; (3104 <__aeabi_f2d+0xa0>)
    30e2:	e7ce      	b.n	3082 <__aeabi_f2d+0x1e>
    30e4:	4807      	ldr	r0, [pc, #28]	; (3104 <__aeabi_f2d+0xa0>)
    30e6:	2100      	movs	r1, #0
    30e8:	e7cb      	b.n	3082 <__aeabi_f2d+0x1e>
    30ea:	2000      	movs	r0, #0
    30ec:	2100      	movs	r1, #0
    30ee:	e7c8      	b.n	3082 <__aeabi_f2d+0x1e>
    30f0:	1c01      	adds	r1, r0, #0
    30f2:	390b      	subs	r1, #11
    30f4:	408c      	lsls	r4, r1
    30f6:	1c21      	adds	r1, r4, #0
    30f8:	2400      	movs	r4, #0
    30fa:	e7e6      	b.n	30ca <__aeabi_f2d+0x66>
    30fc:	800fffff 	.word	0x800fffff
    3100:	00000389 	.word	0x00000389
    3104:	000007ff 	.word	0x000007ff

00003108 <__aeabi_d2f>:
__aeabi_d2f():
    3108:	b5f0      	push	{r4, r5, r6, r7, lr}
    310a:	004b      	lsls	r3, r1, #1
    310c:	030d      	lsls	r5, r1, #12
    310e:	0f42      	lsrs	r2, r0, #29
    3110:	0d5b      	lsrs	r3, r3, #21
    3112:	0a6d      	lsrs	r5, r5, #9
    3114:	4315      	orrs	r5, r2
    3116:	1c5a      	adds	r2, r3, #1
    3118:	0552      	lsls	r2, r2, #21
    311a:	0fcc      	lsrs	r4, r1, #31
    311c:	00c6      	lsls	r6, r0, #3
    311e:	0d52      	lsrs	r2, r2, #21
    3120:	2a01      	cmp	r2, #1
    3122:	dd27      	ble.n	3174 <__aeabi_d2f+0x6c>
    3124:	4f39      	ldr	r7, [pc, #228]	; (320c <__aeabi_d2f+0x104>)
    3126:	19da      	adds	r2, r3, r7
    3128:	2afe      	cmp	r2, #254	; 0xfe
    312a:	dc1a      	bgt.n	3162 <__aeabi_d2f+0x5a>
    312c:	2a00      	cmp	r2, #0
    312e:	dd35      	ble.n	319c <__aeabi_d2f+0x94>
    3130:	0180      	lsls	r0, r0, #6
    3132:	00ed      	lsls	r5, r5, #3
    3134:	1e43      	subs	r3, r0, #1
    3136:	4198      	sbcs	r0, r3
    3138:	4328      	orrs	r0, r5
    313a:	0f76      	lsrs	r6, r6, #29
    313c:	4330      	orrs	r0, r6
    313e:	0743      	lsls	r3, r0, #29
    3140:	d004      	beq.n	314c <__aeabi_d2f+0x44>
    3142:	230f      	movs	r3, #15
    3144:	4003      	ands	r3, r0
    3146:	2b04      	cmp	r3, #4
    3148:	d000      	beq.n	314c <__aeabi_d2f+0x44>
    314a:	3004      	adds	r0, #4
    314c:	2180      	movs	r1, #128	; 0x80
    314e:	04c9      	lsls	r1, r1, #19
    3150:	4001      	ands	r1, r0
    3152:	d027      	beq.n	31a4 <__aeabi_d2f+0x9c>
    3154:	3201      	adds	r2, #1
    3156:	2aff      	cmp	r2, #255	; 0xff
    3158:	d01d      	beq.n	3196 <__aeabi_d2f+0x8e>
    315a:	0183      	lsls	r3, r0, #6
    315c:	0a5b      	lsrs	r3, r3, #9
    315e:	b2d1      	uxtb	r1, r2
    3160:	e001      	b.n	3166 <__aeabi_d2f+0x5e>
    3162:	21ff      	movs	r1, #255	; 0xff
    3164:	2300      	movs	r3, #0
    3166:	0258      	lsls	r0, r3, #9
    3168:	05c9      	lsls	r1, r1, #23
    316a:	0a40      	lsrs	r0, r0, #9
    316c:	07e4      	lsls	r4, r4, #31
    316e:	4308      	orrs	r0, r1
    3170:	4320      	orrs	r0, r4
    3172:	bdf0      	pop	{r4, r5, r6, r7, pc}
    3174:	2b00      	cmp	r3, #0
    3176:	d106      	bne.n	3186 <__aeabi_d2f+0x7e>
    3178:	4335      	orrs	r5, r6
    317a:	d111      	bne.n	31a0 <__aeabi_d2f+0x98>
    317c:	2100      	movs	r1, #0
    317e:	2000      	movs	r0, #0
    3180:	0243      	lsls	r3, r0, #9
    3182:	0a5b      	lsrs	r3, r3, #9
    3184:	e7ef      	b.n	3166 <__aeabi_d2f+0x5e>
    3186:	432e      	orrs	r6, r5
    3188:	d0eb      	beq.n	3162 <__aeabi_d2f+0x5a>
    318a:	2080      	movs	r0, #128	; 0x80
    318c:	00ed      	lsls	r5, r5, #3
    318e:	0480      	lsls	r0, r0, #18
    3190:	4328      	orrs	r0, r5
    3192:	22ff      	movs	r2, #255	; 0xff
    3194:	e7d3      	b.n	313e <__aeabi_d2f+0x36>
    3196:	21ff      	movs	r1, #255	; 0xff
    3198:	2300      	movs	r3, #0
    319a:	e7e4      	b.n	3166 <__aeabi_d2f+0x5e>
    319c:	3217      	adds	r2, #23
    319e:	da0d      	bge.n	31bc <__aeabi_d2f+0xb4>
    31a0:	2005      	movs	r0, #5
    31a2:	2200      	movs	r2, #0
    31a4:	08c0      	lsrs	r0, r0, #3
    31a6:	b2d1      	uxtb	r1, r2
    31a8:	2aff      	cmp	r2, #255	; 0xff
    31aa:	d1e9      	bne.n	3180 <__aeabi_d2f+0x78>
    31ac:	2800      	cmp	r0, #0
    31ae:	d0d9      	beq.n	3164 <__aeabi_d2f+0x5c>
    31b0:	2380      	movs	r3, #128	; 0x80
    31b2:	03db      	lsls	r3, r3, #15
    31b4:	4303      	orrs	r3, r0
    31b6:	025b      	lsls	r3, r3, #9
    31b8:	0a5b      	lsrs	r3, r3, #9
    31ba:	e7d4      	b.n	3166 <__aeabi_d2f+0x5e>
    31bc:	2280      	movs	r2, #128	; 0x80
    31be:	4914      	ldr	r1, [pc, #80]	; (3210 <__aeabi_d2f+0x108>)
    31c0:	0412      	lsls	r2, r2, #16
    31c2:	4315      	orrs	r5, r2
    31c4:	1ac9      	subs	r1, r1, r3
    31c6:	291f      	cmp	r1, #31
    31c8:	dc0d      	bgt.n	31e6 <__aeabi_d2f+0xde>
    31ca:	4a12      	ldr	r2, [pc, #72]	; (3214 <__aeabi_d2f+0x10c>)
    31cc:	1c37      	adds	r7, r6, #0
    31ce:	189b      	adds	r3, r3, r2
    31d0:	1c28      	adds	r0, r5, #0
    31d2:	409f      	lsls	r7, r3
    31d4:	4098      	lsls	r0, r3
    31d6:	1c3b      	adds	r3, r7, #0
    31d8:	1e5a      	subs	r2, r3, #1
    31da:	4193      	sbcs	r3, r2
    31dc:	4318      	orrs	r0, r3
    31de:	40ce      	lsrs	r6, r1
    31e0:	4330      	orrs	r0, r6
    31e2:	2200      	movs	r2, #0
    31e4:	e7ab      	b.n	313e <__aeabi_d2f+0x36>
    31e6:	4f0c      	ldr	r7, [pc, #48]	; (3218 <__aeabi_d2f+0x110>)
    31e8:	1c2a      	adds	r2, r5, #0
    31ea:	1aff      	subs	r7, r7, r3
    31ec:	40fa      	lsrs	r2, r7
    31ee:	1c17      	adds	r7, r2, #0
    31f0:	2920      	cmp	r1, #32
    31f2:	d009      	beq.n	3208 <__aeabi_d2f+0x100>
    31f4:	4a09      	ldr	r2, [pc, #36]	; (321c <__aeabi_d2f+0x114>)
    31f6:	1898      	adds	r0, r3, r2
    31f8:	4085      	lsls	r5, r0
    31fa:	1c28      	adds	r0, r5, #0
    31fc:	4330      	orrs	r0, r6
    31fe:	1e46      	subs	r6, r0, #1
    3200:	41b0      	sbcs	r0, r6
    3202:	4338      	orrs	r0, r7
    3204:	2200      	movs	r2, #0
    3206:	e79a      	b.n	313e <__aeabi_d2f+0x36>
    3208:	2000      	movs	r0, #0
    320a:	e7f7      	b.n	31fc <__aeabi_d2f+0xf4>
    320c:	fffffc80 	.word	0xfffffc80
    3210:	0000039e 	.word	0x0000039e
    3214:	fffffc82 	.word	0xfffffc82
    3218:	0000037e 	.word	0x0000037e
    321c:	fffffca2 	.word	0xfffffca2

00003220 <__clzsi2>:
__clzsi2():
    3220:	211c      	movs	r1, #28
    3222:	2301      	movs	r3, #1
    3224:	041b      	lsls	r3, r3, #16
    3226:	4298      	cmp	r0, r3
    3228:	d301      	bcc.n	322e <__clzsi2+0xe>
    322a:	0c00      	lsrs	r0, r0, #16
    322c:	3910      	subs	r1, #16
    322e:	0a1b      	lsrs	r3, r3, #8
    3230:	4298      	cmp	r0, r3
    3232:	d301      	bcc.n	3238 <__clzsi2+0x18>
    3234:	0a00      	lsrs	r0, r0, #8
    3236:	3908      	subs	r1, #8
    3238:	091b      	lsrs	r3, r3, #4
    323a:	4298      	cmp	r0, r3
    323c:	d301      	bcc.n	3242 <__clzsi2+0x22>
    323e:	0900      	lsrs	r0, r0, #4
    3240:	3904      	subs	r1, #4
    3242:	a202      	add	r2, pc, #8	; (adr r2, 324c <__clzsi2+0x2c>)
    3244:	5c10      	ldrb	r0, [r2, r0]
    3246:	1840      	adds	r0, r0, r1
    3248:	4770      	bx	lr
    324a:	46c0      	nop			; (mov r8, r8)
    324c:	02020304 	.word	0x02020304
    3250:	01010101 	.word	0x01010101
	...

0000325c <updateBatteryLevel>:
updateBatteryLevel():
/home/guilherme/Documents/GER-SDP/KDS/SDP-2016/Debug/../Sources/BatteryController.c:11
 */

#include "BatteryController.h"

void updateBatteryLevel()
{
    325c:	b580      	push	{r7, lr}
    325e:	af00      	add	r7, sp, #0
/home/guilherme/Documents/GER-SDP/KDS/SDP-2016/Debug/../Sources/BatteryController.c:12
	handlingPowerUpdate = TRUE;
    3260:	4b07      	ldr	r3, [pc, #28]	; (3280 <updateBatteryLevel+0x24>)
    3262:	2201      	movs	r2, #1
    3264:	701a      	strb	r2, [r3, #0]
/home/guilherme/Documents/GER-SDP/KDS/SDP-2016/Debug/../Sources/BatteryController.c:15

	// Converts the voltage vOut of PTE29 pin
	AD_Converter_MeasureChan(FALSE, 1);
    3266:	2000      	movs	r0, #0
    3268:	2101      	movs	r1, #1
    326a:	f001 f87d 	bl	4368 <AD_Converter_MeasureChan>
/home/guilherme/Documents/GER-SDP/KDS/SDP-2016/Debug/../Sources/BatteryController.c:18

	// Waits the end of conversion
	while (handlingPowerUpdate);
    326e:	46c0      	nop			; (mov r8, r8)
/home/guilherme/Documents/GER-SDP/KDS/SDP-2016/Debug/../Sources/BatteryController.c:18 (discriminator 1)
    3270:	4b03      	ldr	r3, [pc, #12]	; (3280 <updateBatteryLevel+0x24>)
    3272:	781b      	ldrb	r3, [r3, #0]
    3274:	b2db      	uxtb	r3, r3
    3276:	2b00      	cmp	r3, #0
    3278:	d1fa      	bne.n	3270 <updateBatteryLevel+0x14>
/home/guilherme/Documents/GER-SDP/KDS/SDP-2016/Debug/../Sources/BatteryController.c:19
}
    327a:	46bd      	mov	sp, r7
    327c:	bd80      	pop	{r7, pc}
    327e:	46c0      	nop			; (mov r8, r8)
    3280:	1ffff1c0 	.word	0x1ffff1c0
$d():
    3284:	00000000 	.word	0x00000000

00003288 <updatePowerState>:
updatePowerState():
/home/guilherme/Documents/GER-SDP/KDS/SDP-2016/Debug/../Sources/BatteryController.c:22

void updatePowerState()
{
    3288:	b590      	push	{r4, r7, lr}
    328a:	b085      	sub	sp, #20
    328c:	af00      	add	r7, sp, #0
/home/guilherme/Documents/GER-SDP/KDS/SDP-2016/Debug/../Sources/BatteryController.c:27
	unsigned char adcValue;
	float vOut;
	float newVoltage;

	AD_Converter_GetChanValue(1, &adcValue);
    328e:	1cfb      	adds	r3, r7, #3
    3290:	2001      	movs	r0, #1
    3292:	1c19      	adds	r1, r3, #0
    3294:	f001 f89a 	bl	43cc <AD_Converter_GetChanValue>
/home/guilherme/Documents/GER-SDP/KDS/SDP-2016/Debug/../Sources/BatteryController.c:30

	// Find the value of vOut
	vOut = (2.87 / 255) * (float) adcValue; // Theoretical value: 3.0
    3298:	1cfb      	adds	r3, r7, #3
    329a:	781b      	ldrb	r3, [r3, #0]
    329c:	1c18      	adds	r0, r3, #0
    329e:	f7fe f8cf 	bl	1440 <__aeabi_ui2f>
    32a2:	1c03      	adds	r3, r0, #0
    32a4:	1c18      	adds	r0, r3, #0
    32a6:	f7ff fedd 	bl	3064 <__aeabi_f2d>
    32aa:	1c03      	adds	r3, r0, #0
    32ac:	1c0c      	adds	r4, r1, #0
    32ae:	1c18      	adds	r0, r3, #0
    32b0:	1c21      	adds	r1, r4, #0
    32b2:	4b72      	ldr	r3, [pc, #456]	; (347c <updatePowerState+0x1f4>)
    32b4:	4a70      	ldr	r2, [pc, #448]	; (3478 <updatePowerState+0x1f0>)
    32b6:	f7ff f89f 	bl	23f8 <__aeabi_dmul>
    32ba:	1c03      	adds	r3, r0, #0
    32bc:	1c0c      	adds	r4, r1, #0
    32be:	1c18      	adds	r0, r3, #0
    32c0:	1c21      	adds	r1, r4, #0
    32c2:	f7ff ff21 	bl	3108 <__aeabi_d2f>
    32c6:	1c03      	adds	r3, r0, #0
    32c8:	60bb      	str	r3, [r7, #8]
/home/guilherme/Documents/GER-SDP/KDS/SDP-2016/Debug/../Sources/BatteryController.c:34


	// Find the value of batteryLevel (voltage of battery)
	newVoltage = 5.7 * vOut;			// Theoretical value: 57/10
    32ca:	68b8      	ldr	r0, [r7, #8]
    32cc:	f7ff feca 	bl	3064 <__aeabi_f2d>
    32d0:	1c03      	adds	r3, r0, #0
    32d2:	1c0c      	adds	r4, r1, #0
    32d4:	1c18      	adds	r0, r3, #0
    32d6:	1c21      	adds	r1, r4, #0
    32d8:	4a69      	ldr	r2, [pc, #420]	; (3480 <updatePowerState+0x1f8>)
    32da:	4b6a      	ldr	r3, [pc, #424]	; (3484 <updatePowerState+0x1fc>)
    32dc:	f7ff f88c 	bl	23f8 <__aeabi_dmul>
    32e0:	1c03      	adds	r3, r0, #0
    32e2:	1c0c      	adds	r4, r1, #0
    32e4:	1c18      	adds	r0, r3, #0
    32e6:	1c21      	adds	r1, r4, #0
    32e8:	f7ff ff0e 	bl	3108 <__aeabi_d2f>
    32ec:	1c03      	adds	r3, r0, #0
    32ee:	607b      	str	r3, [r7, #4]
/home/guilherme/Documents/GER-SDP/KDS/SDP-2016/Debug/../Sources/BatteryController.c:36

	batteryLevel = (batteryLevel + newVoltage) / 2;
    32f0:	4b6b      	ldr	r3, [pc, #428]	; (34a0 <updatePowerState+0x218>)
    32f2:	681b      	ldr	r3, [r3, #0]
    32f4:	1c18      	adds	r0, r3, #0
    32f6:	6879      	ldr	r1, [r7, #4]
    32f8:	f7fd fa36 	bl	768 <__aeabi_fadd>
    32fc:	1c03      	adds	r3, r0, #0
    32fe:	1c18      	adds	r0, r3, #0
    3300:	2180      	movs	r1, #128	; 0x80
    3302:	05c9      	lsls	r1, r1, #23
    3304:	f7fd fb9c 	bl	a40 <__aeabi_fdiv>
    3308:	1c03      	adds	r3, r0, #0
    330a:	1c1a      	adds	r2, r3, #0
    330c:	4b64      	ldr	r3, [pc, #400]	; (34a0 <updatePowerState+0x218>)
    330e:	601a      	str	r2, [r3, #0]
/home/guilherme/Documents/GER-SDP/KDS/SDP-2016/Debug/../Sources/BatteryController.c:38

	if (batteryLevel > 7.5)
    3310:	4b63      	ldr	r3, [pc, #396]	; (34a0 <updatePowerState+0x218>)
    3312:	681b      	ldr	r3, [r3, #0]
    3314:	1c18      	adds	r0, r3, #0
    3316:	4963      	ldr	r1, [pc, #396]	; (34a4 <updatePowerState+0x21c>)
    3318:	f7fd f9fa 	bl	710 <__aeabi_fcmpgt>
    331c:	1c03      	adds	r3, r0, #0
    331e:	2b00      	cmp	r3, #0
    3320:	d014      	beq.n	334c <updatePowerState+0xc4>
/home/guilherme/Documents/GER-SDP/KDS/SDP-2016/Debug/../Sources/BatteryController.c:40
	{
		Power_Level1_SetVal();
    3322:	4b61      	ldr	r3, [pc, #388]	; (34a8 <updatePowerState+0x220>)
    3324:	6bdb      	ldr	r3, [r3, #60]	; 0x3c
    3326:	1c18      	adds	r0, r3, #0
    3328:	f001 fd02 	bl	4d30 <BitIoLdd5_SetVal>
/home/guilherme/Documents/GER-SDP/KDS/SDP-2016/Debug/../Sources/BatteryController.c:41
		Power_Level2_SetVal();
    332c:	4b5e      	ldr	r3, [pc, #376]	; (34a8 <updatePowerState+0x220>)
    332e:	6c1b      	ldr	r3, [r3, #64]	; 0x40
    3330:	1c18      	adds	r0, r3, #0
    3332:	f001 fd5b 	bl	4dec <BitIoLdd6_SetVal>
/home/guilherme/Documents/GER-SDP/KDS/SDP-2016/Debug/../Sources/BatteryController.c:42
		Power_Level3_SetVal();
    3336:	4b5c      	ldr	r3, [pc, #368]	; (34a8 <updatePowerState+0x220>)
    3338:	6c5b      	ldr	r3, [r3, #68]	; 0x44
    333a:	1c18      	adds	r0, r3, #0
    333c:	f001 fdb4 	bl	4ea8 <BitIoLdd7_SetVal>
/home/guilherme/Documents/GER-SDP/KDS/SDP-2016/Debug/../Sources/BatteryController.c:43
		Power_Level4_SetVal();
    3340:	4b59      	ldr	r3, [pc, #356]	; (34a8 <updatePowerState+0x220>)
    3342:	6c9b      	ldr	r3, [r3, #72]	; 0x48
    3344:	1c18      	adds	r0, r3, #0
    3346:	f001 fe0d 	bl	4f64 <BitIoLdd8_SetVal>
    334a:	e08c      	b.n	3466 <updatePowerState+0x1de>
/home/guilherme/Documents/GER-SDP/KDS/SDP-2016/Debug/../Sources/BatteryController.c:45
	}
	else if (batteryLevel > 7.2)
    334c:	4b54      	ldr	r3, [pc, #336]	; (34a0 <updatePowerState+0x218>)
    334e:	681b      	ldr	r3, [r3, #0]
    3350:	1c18      	adds	r0, r3, #0
    3352:	f7ff fe87 	bl	3064 <__aeabi_f2d>
    3356:	1c03      	adds	r3, r0, #0
    3358:	1c0c      	adds	r4, r1, #0
    335a:	1c18      	adds	r0, r3, #0
    335c:	1c21      	adds	r1, r4, #0
    335e:	4a4a      	ldr	r2, [pc, #296]	; (3488 <updatePowerState+0x200>)
    3360:	4b4a      	ldr	r3, [pc, #296]	; (348c <updatePowerState+0x204>)
    3362:	f7fd f99b 	bl	69c <__aeabi_dcmpgt>
    3366:	1c03      	adds	r3, r0, #0
    3368:	2b00      	cmp	r3, #0
    336a:	d014      	beq.n	3396 <updatePowerState+0x10e>
/home/guilherme/Documents/GER-SDP/KDS/SDP-2016/Debug/../Sources/BatteryController.c:47
	{
		Power_Level1_SetVal();
    336c:	4b4e      	ldr	r3, [pc, #312]	; (34a8 <updatePowerState+0x220>)
    336e:	6bdb      	ldr	r3, [r3, #60]	; 0x3c
    3370:	1c18      	adds	r0, r3, #0
    3372:	f001 fcdd 	bl	4d30 <BitIoLdd5_SetVal>
/home/guilherme/Documents/GER-SDP/KDS/SDP-2016/Debug/../Sources/BatteryController.c:48
		Power_Level2_SetVal();
    3376:	4b4c      	ldr	r3, [pc, #304]	; (34a8 <updatePowerState+0x220>)
    3378:	6c1b      	ldr	r3, [r3, #64]	; 0x40
    337a:	1c18      	adds	r0, r3, #0
    337c:	f001 fd36 	bl	4dec <BitIoLdd6_SetVal>
/home/guilherme/Documents/GER-SDP/KDS/SDP-2016/Debug/../Sources/BatteryController.c:49
		Power_Level3_SetVal();
    3380:	4b49      	ldr	r3, [pc, #292]	; (34a8 <updatePowerState+0x220>)
    3382:	6c5b      	ldr	r3, [r3, #68]	; 0x44
    3384:	1c18      	adds	r0, r3, #0
    3386:	f001 fd8f 	bl	4ea8 <BitIoLdd7_SetVal>
/home/guilherme/Documents/GER-SDP/KDS/SDP-2016/Debug/../Sources/BatteryController.c:50
		Power_Level4_ClrVal();
    338a:	4b47      	ldr	r3, [pc, #284]	; (34a8 <updatePowerState+0x220>)
    338c:	6c9b      	ldr	r3, [r3, #72]	; 0x48
    338e:	1c18      	adds	r0, r3, #0
    3390:	f001 fdda 	bl	4f48 <BitIoLdd8_ClrVal>
    3394:	e067      	b.n	3466 <updatePowerState+0x1de>
/home/guilherme/Documents/GER-SDP/KDS/SDP-2016/Debug/../Sources/BatteryController.c:53
	}

	else if (batteryLevel > 6.9)
    3396:	4b42      	ldr	r3, [pc, #264]	; (34a0 <updatePowerState+0x218>)
    3398:	681b      	ldr	r3, [r3, #0]
    339a:	1c18      	adds	r0, r3, #0
    339c:	f7ff fe62 	bl	3064 <__aeabi_f2d>
    33a0:	1c03      	adds	r3, r0, #0
    33a2:	1c0c      	adds	r4, r1, #0
    33a4:	1c18      	adds	r0, r3, #0
    33a6:	1c21      	adds	r1, r4, #0
    33a8:	4a39      	ldr	r2, [pc, #228]	; (3490 <updatePowerState+0x208>)
    33aa:	4b3a      	ldr	r3, [pc, #232]	; (3494 <updatePowerState+0x20c>)
    33ac:	f7fd f976 	bl	69c <__aeabi_dcmpgt>
    33b0:	1c03      	adds	r3, r0, #0
    33b2:	2b00      	cmp	r3, #0
    33b4:	d014      	beq.n	33e0 <updatePowerState+0x158>
/home/guilherme/Documents/GER-SDP/KDS/SDP-2016/Debug/../Sources/BatteryController.c:55
	{
		Power_Level1_SetVal();
    33b6:	4b3c      	ldr	r3, [pc, #240]	; (34a8 <updatePowerState+0x220>)
    33b8:	6bdb      	ldr	r3, [r3, #60]	; 0x3c
    33ba:	1c18      	adds	r0, r3, #0
    33bc:	f001 fcb8 	bl	4d30 <BitIoLdd5_SetVal>
/home/guilherme/Documents/GER-SDP/KDS/SDP-2016/Debug/../Sources/BatteryController.c:56
		Power_Level2_SetVal();
    33c0:	4b39      	ldr	r3, [pc, #228]	; (34a8 <updatePowerState+0x220>)
    33c2:	6c1b      	ldr	r3, [r3, #64]	; 0x40
    33c4:	1c18      	adds	r0, r3, #0
    33c6:	f001 fd11 	bl	4dec <BitIoLdd6_SetVal>
/home/guilherme/Documents/GER-SDP/KDS/SDP-2016/Debug/../Sources/BatteryController.c:57
		Power_Level3_ClrVal();
    33ca:	4b37      	ldr	r3, [pc, #220]	; (34a8 <updatePowerState+0x220>)
    33cc:	6c5b      	ldr	r3, [r3, #68]	; 0x44
    33ce:	1c18      	adds	r0, r3, #0
    33d0:	f001 fd5c 	bl	4e8c <BitIoLdd7_ClrVal>
/home/guilherme/Documents/GER-SDP/KDS/SDP-2016/Debug/../Sources/BatteryController.c:58
		Power_Level4_ClrVal();
    33d4:	4b34      	ldr	r3, [pc, #208]	; (34a8 <updatePowerState+0x220>)
    33d6:	6c9b      	ldr	r3, [r3, #72]	; 0x48
    33d8:	1c18      	adds	r0, r3, #0
    33da:	f001 fdb5 	bl	4f48 <BitIoLdd8_ClrVal>
    33de:	e042      	b.n	3466 <updatePowerState+0x1de>
/home/guilherme/Documents/GER-SDP/KDS/SDP-2016/Debug/../Sources/BatteryController.c:60
	}
	else if (batteryLevel > 6.6)
    33e0:	4b2f      	ldr	r3, [pc, #188]	; (34a0 <updatePowerState+0x218>)
    33e2:	681b      	ldr	r3, [r3, #0]
    33e4:	1c18      	adds	r0, r3, #0
    33e6:	f7ff fe3d 	bl	3064 <__aeabi_f2d>
    33ea:	1c03      	adds	r3, r0, #0
    33ec:	1c0c      	adds	r4, r1, #0
    33ee:	1c18      	adds	r0, r3, #0
    33f0:	1c21      	adds	r1, r4, #0
    33f2:	4a29      	ldr	r2, [pc, #164]	; (3498 <updatePowerState+0x210>)
    33f4:	4b29      	ldr	r3, [pc, #164]	; (349c <updatePowerState+0x214>)
    33f6:	f7fd f951 	bl	69c <__aeabi_dcmpgt>
    33fa:	1c03      	adds	r3, r0, #0
    33fc:	2b00      	cmp	r3, #0
    33fe:	d014      	beq.n	342a <updatePowerState+0x1a2>
/home/guilherme/Documents/GER-SDP/KDS/SDP-2016/Debug/../Sources/BatteryController.c:62
	{
		Power_Level1_SetVal();
    3400:	4b29      	ldr	r3, [pc, #164]	; (34a8 <updatePowerState+0x220>)
    3402:	6bdb      	ldr	r3, [r3, #60]	; 0x3c
    3404:	1c18      	adds	r0, r3, #0
    3406:	f001 fc93 	bl	4d30 <BitIoLdd5_SetVal>
/home/guilherme/Documents/GER-SDP/KDS/SDP-2016/Debug/../Sources/BatteryController.c:63
		Power_Level2_ClrVal();
    340a:	4b27      	ldr	r3, [pc, #156]	; (34a8 <updatePowerState+0x220>)
    340c:	6c1b      	ldr	r3, [r3, #64]	; 0x40
    340e:	1c18      	adds	r0, r3, #0
    3410:	f001 fcde 	bl	4dd0 <BitIoLdd6_ClrVal>
/home/guilherme/Documents/GER-SDP/KDS/SDP-2016/Debug/../Sources/BatteryController.c:64
		Power_Level3_ClrVal();
    3414:	4b24      	ldr	r3, [pc, #144]	; (34a8 <updatePowerState+0x220>)
    3416:	6c5b      	ldr	r3, [r3, #68]	; 0x44
    3418:	1c18      	adds	r0, r3, #0
    341a:	f001 fd37 	bl	4e8c <BitIoLdd7_ClrVal>
/home/guilherme/Documents/GER-SDP/KDS/SDP-2016/Debug/../Sources/BatteryController.c:65
		Power_Level4_ClrVal();
    341e:	4b22      	ldr	r3, [pc, #136]	; (34a8 <updatePowerState+0x220>)
    3420:	6c9b      	ldr	r3, [r3, #72]	; 0x48
    3422:	1c18      	adds	r0, r3, #0
    3424:	f001 fd90 	bl	4f48 <BitIoLdd8_ClrVal>
    3428:	e01d      	b.n	3466 <updatePowerState+0x1de>
/home/guilherme/Documents/GER-SDP/KDS/SDP-2016/Debug/../Sources/BatteryController.c:69
	}
	else
	{
		Power_Level1_NegVal();
    342a:	4b1f      	ldr	r3, [pc, #124]	; (34a8 <updatePowerState+0x220>)
    342c:	6bdb      	ldr	r3, [r3, #60]	; 0x3c
    342e:	1c18      	adds	r0, r3, #0
    3430:	f001 fc8c 	bl	4d4c <BitIoLdd5_NegVal>
/home/guilherme/Documents/GER-SDP/KDS/SDP-2016/Debug/../Sources/BatteryController.c:70
		Power_Level2_NegVal();
    3434:	4b1c      	ldr	r3, [pc, #112]	; (34a8 <updatePowerState+0x220>)
    3436:	6c1b      	ldr	r3, [r3, #64]	; 0x40
    3438:	1c18      	adds	r0, r3, #0
    343a:	f001 fce5 	bl	4e08 <BitIoLdd6_NegVal>
/home/guilherme/Documents/GER-SDP/KDS/SDP-2016/Debug/../Sources/BatteryController.c:71
		Power_Level3_NegVal();
    343e:	4b1a      	ldr	r3, [pc, #104]	; (34a8 <updatePowerState+0x220>)
    3440:	6c5b      	ldr	r3, [r3, #68]	; 0x44
    3442:	1c18      	adds	r0, r3, #0
    3444:	f001 fd3e 	bl	4ec4 <BitIoLdd7_NegVal>
/home/guilherme/Documents/GER-SDP/KDS/SDP-2016/Debug/../Sources/BatteryController.c:72
		Power_Level4_NegVal();
    3448:	4b17      	ldr	r3, [pc, #92]	; (34a8 <updatePowerState+0x220>)
    344a:	6c9b      	ldr	r3, [r3, #72]	; 0x48
    344c:	1c18      	adds	r0, r3, #0
    344e:	f001 fd97 	bl	4f80 <BitIoLdd8_NegVal>
/home/guilherme/Documents/GER-SDP/KDS/SDP-2016/Debug/../Sources/BatteryController.c:74

		for (int delay = 0; delay < 100000; delay++);
    3452:	2300      	movs	r3, #0
    3454:	60fb      	str	r3, [r7, #12]
    3456:	e002      	b.n	345e <updatePowerState+0x1d6>
/home/guilherme/Documents/GER-SDP/KDS/SDP-2016/Debug/../Sources/BatteryController.c:74 (discriminator 2)
    3458:	68fb      	ldr	r3, [r7, #12]
    345a:	3301      	adds	r3, #1
    345c:	60fb      	str	r3, [r7, #12]
/home/guilherme/Documents/GER-SDP/KDS/SDP-2016/Debug/../Sources/BatteryController.c:74 (discriminator 1)
    345e:	68fa      	ldr	r2, [r7, #12]
    3460:	4b12      	ldr	r3, [pc, #72]	; (34ac <updatePowerState+0x224>)
    3462:	429a      	cmp	r2, r3
    3464:	ddf8      	ble.n	3458 <updatePowerState+0x1d0>
/home/guilherme/Documents/GER-SDP/KDS/SDP-2016/Debug/../Sources/BatteryController.c:77
	}

	handlingPowerUpdate = FALSE;
    3466:	4b12      	ldr	r3, [pc, #72]	; (34b0 <updatePowerState+0x228>)
    3468:	2200      	movs	r2, #0
    346a:	701a      	strb	r2, [r3, #0]
/home/guilherme/Documents/GER-SDP/KDS/SDP-2016/Debug/../Sources/BatteryController.c:78
}
    346c:	46bd      	mov	sp, r7
    346e:	b005      	add	sp, #20
    3470:	bd90      	pop	{r4, r7, pc}
    3472:	46c0      	nop			; (mov r8, r8)
    3474:	46c0      	nop			; (mov r8, r8)
    3476:	46c0      	nop			; (mov r8, r8)
    3478:	5ebae3da 	.word	0x5ebae3da
    347c:	3f870ccf 	.word	0x3f870ccf
    3480:	cccccccd 	.word	0xcccccccd
    3484:	4016cccc 	.word	0x4016cccc
    3488:	cccccccd 	.word	0xcccccccd
    348c:	401ccccc 	.word	0x401ccccc
    3490:	9999999a 	.word	0x9999999a
    3494:	401b9999 	.word	0x401b9999
    3498:	66666666 	.word	0x66666666
    349c:	401a6666 	.word	0x401a6666
    34a0:	1ffff1c4 	.word	0x1ffff1c4
    34a4:	40f00000 	.word	0x40f00000
    34a8:	1ffff0d8 	.word	0x1ffff0d8
    34ac:	0001869f 	.word	0x0001869f
    34b0:	1ffff1c0 	.word	0x1ffff1c0
$t():
    34b4:	46c0      	nop			; (mov r8, r8)
    34b6:	46c0      	nop			; (mov r8, r8)

000034b8 <initializeCamera>:
initializeCamera():
/home/guilherme/Documents/GER-SDP/KDS/SDP-2016/Debug/../Sources/CameraController.c:45
//	}
//
//}

void initializeCamera()
{
    34b8:	b580      	push	{r7, lr}
    34ba:	af00      	add	r7, sp, #0
/home/guilherme/Documents/GER-SDP/KDS/SDP-2016/Debug/../Sources/CameraController.c:47
	// Inicial state
	state = HALF_LOW_CLK;
    34bc:	4b05      	ldr	r3, [pc, #20]	; (34d4 <initializeCamera+0x1c>)
    34be:	2203      	movs	r2, #3
    34c0:	601a      	str	r2, [r3, #0]
/home/guilherme/Documents/GER-SDP/KDS/SDP-2016/Debug/../Sources/CameraController.c:49

	clockCounter = 0;
    34c2:	4b05      	ldr	r3, [pc, #20]	; (34d8 <initializeCamera+0x20>)
    34c4:	2200      	movs	r2, #0
    34c6:	601a      	str	r2, [r3, #0]
/home/guilherme/Documents/GER-SDP/KDS/SDP-2016/Debug/../Sources/CameraController.c:51

	transferTime = 0;
    34c8:	4b04      	ldr	r3, [pc, #16]	; (34dc <initializeCamera+0x24>)
    34ca:	2200      	movs	r2, #0
    34cc:	601a      	str	r2, [r3, #0]
/home/guilherme/Documents/GER-SDP/KDS/SDP-2016/Debug/../Sources/CameraController.c:52
}
    34ce:	46bd      	mov	sp, r7
    34d0:	bd80      	pop	{r7, pc}
    34d2:	46c0      	nop			; (mov r8, r8)
    34d4:	1ffff1dc 	.word	0x1ffff1dc
    34d8:	1ffff1cc 	.word	0x1ffff1cc
    34dc:	1ffff1d4 	.word	0x1ffff1d4

000034e0 <getRawImageMean>:
getRawImageMean():
/home/guilherme/Documents/GER-SDP/KDS/SDP-2016/Debug/../Sources/CameraController.c:78
//	}
//
//}

int getRawImageMean(int samplesNum)
{
    34e0:	b580      	push	{r7, lr}
    34e2:	b084      	sub	sp, #16
    34e4:	af00      	add	r7, sp, #0
    34e6:	6078      	str	r0, [r7, #4]
/home/guilherme/Documents/GER-SDP/KDS/SDP-2016/Debug/../Sources/CameraController.c:80
	// Standard value
	currentSample = -2;
    34e8:	4b16      	ldr	r3, [pc, #88]	; (3544 <getRawImageMean+0x64>)
    34ea:	2202      	movs	r2, #2
    34ec:	4252      	negs	r2, r2
    34ee:	601a      	str	r2, [r3, #0]
/home/guilherme/Documents/GER-SDP/KDS/SDP-2016/Debug/../Sources/CameraController.c:81
	samplesNumber = samplesNum;
    34f0:	4b15      	ldr	r3, [pc, #84]	; (3548 <getRawImageMean+0x68>)
    34f2:	687a      	ldr	r2, [r7, #4]
    34f4:	601a      	str	r2, [r3, #0]
/home/guilherme/Documents/GER-SDP/KDS/SDP-2016/Debug/../Sources/CameraController.c:84

	// Initializes the array for put the image with zeros
	for (int pixel = 0; pixel < 128; pixel++)
    34f6:	2300      	movs	r3, #0
    34f8:	60fb      	str	r3, [r7, #12]
    34fa:	e007      	b.n	350c <getRawImageMean+0x2c>
/home/guilherme/Documents/GER-SDP/KDS/SDP-2016/Debug/../Sources/CameraController.c:86 (discriminator 2)
	{
		rawImage[pixel] = 0;
    34fc:	4a13      	ldr	r2, [pc, #76]	; (354c <getRawImageMean+0x6c>)
    34fe:	68fb      	ldr	r3, [r7, #12]
    3500:	18d3      	adds	r3, r2, r3
    3502:	2200      	movs	r2, #0
    3504:	701a      	strb	r2, [r3, #0]
/home/guilherme/Documents/GER-SDP/KDS/SDP-2016/Debug/../Sources/CameraController.c:84 (discriminator 2)
	// Standard value
	currentSample = -2;
	samplesNumber = samplesNum;

	// Initializes the array for put the image with zeros
	for (int pixel = 0; pixel < 128; pixel++)
    3506:	68fb      	ldr	r3, [r7, #12]
    3508:	3301      	adds	r3, #1
    350a:	60fb      	str	r3, [r7, #12]
/home/guilherme/Documents/GER-SDP/KDS/SDP-2016/Debug/../Sources/CameraController.c:84 (discriminator 1)
    350c:	68fb      	ldr	r3, [r7, #12]
    350e:	2b7f      	cmp	r3, #127	; 0x7f
    3510:	ddf4      	ble.n	34fc <getRawImageMean+0x1c>
/home/guilherme/Documents/GER-SDP/KDS/SDP-2016/Debug/../Sources/CameraController.c:90
	{
		rawImage[pixel] = 0;
	}

	// Initializes the camera
	initializeCamera();
    3512:	f7ff ffd1 	bl	34b8 <initializeCamera>
/home/guilherme/Documents/GER-SDP/KDS/SDP-2016/Debug/../Sources/CameraController.c:93

	// Camera activation
	Camera_CLK_Interruption_EnableEvent();
    3516:	4b0e      	ldr	r3, [pc, #56]	; (3550 <getRawImageMean+0x70>)
    3518:	68db      	ldr	r3, [r3, #12]
    351a:	1c18      	adds	r0, r3, #0
    351c:	2101      	movs	r1, #1
    351e:	f002 fdd9 	bl	60d4 <TimerIntLdd1_SetEventMask>
/home/guilherme/Documents/GER-SDP/KDS/SDP-2016/Debug/../Sources/CameraController.c:95

	while (currentSample < samplesNumber);
    3522:	46c0      	nop			; (mov r8, r8)
/home/guilherme/Documents/GER-SDP/KDS/SDP-2016/Debug/../Sources/CameraController.c:95 (discriminator 1)
    3524:	4b07      	ldr	r3, [pc, #28]	; (3544 <getRawImageMean+0x64>)
    3526:	681a      	ldr	r2, [r3, #0]
    3528:	4b07      	ldr	r3, [pc, #28]	; (3548 <getRawImageMean+0x68>)
    352a:	681b      	ldr	r3, [r3, #0]
    352c:	429a      	cmp	r2, r3
    352e:	dbf9      	blt.n	3524 <getRawImageMean+0x44>
/home/guilherme/Documents/GER-SDP/KDS/SDP-2016/Debug/../Sources/CameraController.c:97

	Camera_CLK_Interruption_DisableEvent();
    3530:	4b07      	ldr	r3, [pc, #28]	; (3550 <getRawImageMean+0x70>)
    3532:	68db      	ldr	r3, [r3, #12]
    3534:	1c18      	adds	r0, r3, #0
    3536:	2100      	movs	r1, #0
    3538:	f002 fdcc 	bl	60d4 <TimerIntLdd1_SetEventMask>
/home/guilherme/Documents/GER-SDP/KDS/SDP-2016/Debug/../Sources/CameraController.c:98
}
    353c:	1c18      	adds	r0, r3, #0
    353e:	46bd      	mov	sp, r7
    3540:	b004      	add	sp, #16
    3542:	bd80      	pop	{r7, pc}
    3544:	1ffff1d8 	.word	0x1ffff1d8
    3548:	1ffff1d0 	.word	0x1ffff1d0
    354c:	1ffff1e0 	.word	0x1ffff1e0
    3550:	1ffff0d8 	.word	0x1ffff0d8

00003554 <verifySample>:
verifySample():
/home/guilherme/Documents/GER-SDP/KDS/SDP-2016/Debug/../Sources/CameraController.c:105
/*
 * The initial currentSample value must be -1
 * The sampleNumber value must be >= 1
 */
void verifySample()
{
    3554:	b590      	push	{r4, r7, lr}
    3556:	b083      	sub	sp, #12
    3558:	af00      	add	r7, sp, #0
/home/guilherme/Documents/GER-SDP/KDS/SDP-2016/Debug/../Sources/CameraController.c:107
	// The first sample is Discarded
	if (currentSample >= 0)
    355a:	4b16      	ldr	r3, [pc, #88]	; (35b4 <verifySample+0x60>)
    355c:	681b      	ldr	r3, [r3, #0]
    355e:	2b00      	cmp	r3, #0
    3560:	db1f      	blt.n	35a2 <verifySample+0x4e>
/home/guilherme/Documents/GER-SDP/KDS/SDP-2016/Debug/../Sources/CameraController.c:109
	{
		for (int pixel = 0; pixel < 128; pixel++)
    3562:	2300      	movs	r3, #0
    3564:	607b      	str	r3, [r7, #4]
    3566:	e019      	b.n	359c <verifySample+0x48>
/home/guilherme/Documents/GER-SDP/KDS/SDP-2016/Debug/../Sources/CameraController.c:111 (discriminator 2)
		{
			rawImage[pixel] += rawImageBuffer[pixel] / samplesNumber;
    3568:	4a13      	ldr	r2, [pc, #76]	; (35b8 <verifySample+0x64>)
    356a:	687b      	ldr	r3, [r7, #4]
    356c:	18d3      	adds	r3, r2, r3
    356e:	781c      	ldrb	r4, [r3, #0]
    3570:	4a12      	ldr	r2, [pc, #72]	; (35bc <verifySample+0x68>)
    3572:	687b      	ldr	r3, [r7, #4]
    3574:	18d3      	adds	r3, r2, r3
    3576:	781b      	ldrb	r3, [r3, #0]
    3578:	1c1a      	adds	r2, r3, #0
    357a:	4b11      	ldr	r3, [pc, #68]	; (35c0 <verifySample+0x6c>)
    357c:	681b      	ldr	r3, [r3, #0]
    357e:	1c10      	adds	r0, r2, #0
    3580:	1c19      	adds	r1, r3, #0
    3582:	f7fc ffff 	bl	584 <__aeabi_idiv>
    3586:	1c03      	adds	r3, r0, #0
    3588:	b2db      	uxtb	r3, r3
    358a:	18e3      	adds	r3, r4, r3
    358c:	b2da      	uxtb	r2, r3
    358e:	490a      	ldr	r1, [pc, #40]	; (35b8 <verifySample+0x64>)
    3590:	687b      	ldr	r3, [r7, #4]
    3592:	18cb      	adds	r3, r1, r3
    3594:	701a      	strb	r2, [r3, #0]
/home/guilherme/Documents/GER-SDP/KDS/SDP-2016/Debug/../Sources/CameraController.c:109 (discriminator 2)
void verifySample()
{
	// The first sample is Discarded
	if (currentSample >= 0)
	{
		for (int pixel = 0; pixel < 128; pixel++)
    3596:	687b      	ldr	r3, [r7, #4]
    3598:	3301      	adds	r3, #1
    359a:	607b      	str	r3, [r7, #4]
/home/guilherme/Documents/GER-SDP/KDS/SDP-2016/Debug/../Sources/CameraController.c:109 (discriminator 1)
    359c:	687b      	ldr	r3, [r7, #4]
    359e:	2b7f      	cmp	r3, #127	; 0x7f
    35a0:	dde2      	ble.n	3568 <verifySample+0x14>
/home/guilherme/Documents/GER-SDP/KDS/SDP-2016/Debug/../Sources/CameraController.c:114
		{
			rawImage[pixel] += rawImageBuffer[pixel] / samplesNumber;
		}
	}
	currentSample++;
    35a2:	4b04      	ldr	r3, [pc, #16]	; (35b4 <verifySample+0x60>)
    35a4:	681b      	ldr	r3, [r3, #0]
    35a6:	1c5a      	adds	r2, r3, #1
    35a8:	4b02      	ldr	r3, [pc, #8]	; (35b4 <verifySample+0x60>)
    35aa:	601a      	str	r2, [r3, #0]
/home/guilherme/Documents/GER-SDP/KDS/SDP-2016/Debug/../Sources/CameraController.c:115
}
    35ac:	46bd      	mov	sp, r7
    35ae:	b003      	add	sp, #12
    35b0:	bd90      	pop	{r4, r7, pc}
    35b2:	46c0      	nop			; (mov r8, r8)
    35b4:	1ffff1d8 	.word	0x1ffff1d8
    35b8:	1ffff1e0 	.word	0x1ffff1e0
    35bc:	1ffff260 	.word	0x1ffff260
    35c0:	1ffff1d0 	.word	0x1ffff1d0

000035c4 <get_error>:
get_error():
/home/guilherme/Documents/GER-SDP/KDS/SDP-2016/Debug/../Sources/Error_management.c:10
 *      Author: marcelo
 */
#include "Error_management.h"

double get_error(uint8 image[])
{
    35c4:	b5f0      	push	{r4, r5, r6, r7, lr}
    35c6:	b089      	sub	sp, #36	; 0x24
    35c8:	af00      	add	r7, sp, #0
    35ca:	6078      	str	r0, [r7, #4]
/home/guilherme/Documents/GER-SDP/KDS/SDP-2016/Debug/../Sources/Error_management.c:15
	uint8 range, left_border, right_border;

	double error;

	set_borders(image, &left_border, &right_border);
    35cc:	6879      	ldr	r1, [r7, #4]
    35ce:	1c3a      	adds	r2, r7, #0
    35d0:	320f      	adds	r2, #15
    35d2:	1c3b      	adds	r3, r7, #0
    35d4:	330e      	adds	r3, #14
    35d6:	1c08      	adds	r0, r1, #0
    35d8:	1c11      	adds	r1, r2, #0
    35da:	1c1a      	adds	r2, r3, #0
    35dc:	f000 f950 	bl	3880 <set_borders>
/home/guilherme/Documents/GER-SDP/KDS/SDP-2016/Debug/../Sources/Error_management.c:16
	range = left_border + right_border;
    35e0:	1c3b      	adds	r3, r7, #0
    35e2:	330f      	adds	r3, #15
    35e4:	7819      	ldrb	r1, [r3, #0]
    35e6:	1c3b      	adds	r3, r7, #0
    35e8:	330e      	adds	r3, #14
    35ea:	781a      	ldrb	r2, [r3, #0]
    35ec:	1c3b      	adds	r3, r7, #0
    35ee:	331f      	adds	r3, #31
    35f0:	188a      	adds	r2, r1, r2
    35f2:	701a      	strb	r2, [r3, #0]
/home/guilherme/Documents/GER-SDP/KDS/SDP-2016/Debug/../Sources/Error_management.c:18

	error = ((double)(right_border - left_border)) / range;
    35f4:	1c3b      	adds	r3, r7, #0
    35f6:	330e      	adds	r3, #14
    35f8:	781b      	ldrb	r3, [r3, #0]
    35fa:	1c1a      	adds	r2, r3, #0
    35fc:	1c3b      	adds	r3, r7, #0
    35fe:	330f      	adds	r3, #15
    3600:	781b      	ldrb	r3, [r3, #0]
    3602:	1ad3      	subs	r3, r2, r3
    3604:	1c18      	adds	r0, r3, #0
    3606:	f7ff fcef 	bl	2fe8 <__aeabi_i2d>
    360a:	1c05      	adds	r5, r0, #0
    360c:	1c0e      	adds	r6, r1, #0
    360e:	1c3b      	adds	r3, r7, #0
    3610:	331f      	adds	r3, #31
    3612:	781b      	ldrb	r3, [r3, #0]
    3614:	1c18      	adds	r0, r3, #0
    3616:	f7ff fce7 	bl	2fe8 <__aeabi_i2d>
    361a:	1c03      	adds	r3, r0, #0
    361c:	1c0c      	adds	r4, r1, #0
    361e:	1c28      	adds	r0, r5, #0
    3620:	1c31      	adds	r1, r6, #0
    3622:	1c1a      	adds	r2, r3, #0
    3624:	1c23      	adds	r3, r4, #0
    3626:	f7fe fa7d 	bl	1b24 <__aeabi_ddiv>
    362a:	1c03      	adds	r3, r0, #0
    362c:	1c0c      	adds	r4, r1, #0
    362e:	613b      	str	r3, [r7, #16]
    3630:	617c      	str	r4, [r7, #20]
/home/guilherme/Documents/GER-SDP/KDS/SDP-2016/Debug/../Sources/Error_management.c:20

	return error;
    3632:	693b      	ldr	r3, [r7, #16]
    3634:	697c      	ldr	r4, [r7, #20]
/home/guilherme/Documents/GER-SDP/KDS/SDP-2016/Debug/../Sources/Error_management.c:22

}
    3636:	1c18      	adds	r0, r3, #0
    3638:	1c21      	adds	r1, r4, #0
    363a:	46bd      	mov	sp, r7
    363c:	b009      	add	sp, #36	; 0x24
    363e:	bdf0      	pop	{r4, r5, r6, r7, pc}

00003640 <Cpu_OnNMIINT>:
Cpu_OnNMIINT():
/home/guilherme/Documents/GER-SDP/KDS/SDP-2016/Debug/../Sources/Events.c:53
 **         occurred. This event is automatically enabled when the [NMI
 **         interrupt] property is set to 'Enabled'.
 */
/* ===================================================================*/
void Cpu_OnNMIINT(void)
{
    3640:	b580      	push	{r7, lr}
    3642:	af00      	add	r7, sp, #0
/home/guilherme/Documents/GER-SDP/KDS/SDP-2016/Debug/../Sources/Events.c:55
	/* Write your code here ... */
}
    3644:	46bd      	mov	sp, r7
    3646:	bd80      	pop	{r7, pc}

00003648 <Camera_CLK_Interruption_OnInterrupt>:
Camera_CLK_Interruption_OnInterrupt():
/home/guilherme/Documents/GER-SDP/KDS/SDP-2016/Debug/../Sources/Events.c:72
 **     Parameters  : None
 **     Returns     : Nothing
 ** ===================================================================
 */
void Camera_CLK_Interruption_OnInterrupt(void)
{
    3648:	b580      	push	{r7, lr}
    364a:	af00      	add	r7, sp, #0
/home/guilherme/Documents/GER-SDP/KDS/SDP-2016/Debug/../Sources/Events.c:73
	switch (state)
    364c:	4b41      	ldr	r3, [pc, #260]	; (3754 <Camera_CLK_Interruption_OnInterrupt+0x10c>)
    364e:	681b      	ldr	r3, [r3, #0]
    3650:	2b04      	cmp	r3, #4
    3652:	d900      	bls.n	3656 <Camera_CLK_Interruption_OnInterrupt+0xe>
    3654:	e07c      	b.n	3750 <Camera_CLK_Interruption_OnInterrupt+0x108>
    3656:	009a      	lsls	r2, r3, #2
    3658:	4b3f      	ldr	r3, [pc, #252]	; (3758 <Camera_CLK_Interruption_OnInterrupt+0x110>)
    365a:	18d3      	adds	r3, r2, r3
    365c:	681b      	ldr	r3, [r3, #0]
    365e:	469f      	mov	pc, r3
/home/guilherme/Documents/GER-SDP/KDS/SDP-2016/Debug/../Sources/Events.c:79
	{
	// First state
	case HALF_LOW_CLK:
	{
		// next state
		state = HIGH_CLK;
    3660:	4b3c      	ldr	r3, [pc, #240]	; (3754 <Camera_CLK_Interruption_OnInterrupt+0x10c>)
    3662:	2200      	movs	r2, #0
    3664:	601a      	str	r2, [r3, #0]
/home/guilherme/Documents/GER-SDP/KDS/SDP-2016/Debug/../Sources/Events.c:81

		if (clockCounter == 0)
    3666:	4b3d      	ldr	r3, [pc, #244]	; (375c <Camera_CLK_Interruption_OnInterrupt+0x114>)
    3668:	681b      	ldr	r3, [r3, #0]
    366a:	2b00      	cmp	r3, #0
    366c:	d10e      	bne.n	368c <Camera_CLK_Interruption_OnInterrupt+0x44>
/home/guilherme/Documents/GER-SDP/KDS/SDP-2016/Debug/../Sources/Events.c:84
		{
			// SI High
			SI_SetVal();
    366e:	4b3c      	ldr	r3, [pc, #240]	; (3760 <Camera_CLK_Interruption_OnInterrupt+0x118>)
    3670:	681b      	ldr	r3, [r3, #0]
    3672:	1c18      	adds	r0, r3, #0
    3674:	f001 f924 	bl	48c0 <BitIoLdd1_SetVal>
/home/guilherme/Documents/GER-SDP/KDS/SDP-2016/Debug/../Sources/Events.c:85
			while (!SI_GetVal());
    3678:	46c0      	nop			; (mov r8, r8)
/home/guilherme/Documents/GER-SDP/KDS/SDP-2016/Debug/../Sources/Events.c:85 (discriminator 1)
    367a:	4b39      	ldr	r3, [pc, #228]	; (3760 <Camera_CLK_Interruption_OnInterrupt+0x118>)
    367c:	681b      	ldr	r3, [r3, #0]
    367e:	1c18      	adds	r0, r3, #0
    3680:	f001 f8fe 	bl	4880 <BitIoLdd1_GetVal>
    3684:	1c03      	adds	r3, r0, #0
    3686:	2b00      	cmp	r3, #0
    3688:	d0f7      	beq.n	367a <Camera_CLK_Interruption_OnInterrupt+0x32>
/home/guilherme/Documents/GER-SDP/KDS/SDP-2016/Debug/../Sources/Events.c:100
			state = WAIT_TRANSFER_CHARGE;

			// Checks if reading is finished
			verifySample();
		}
		break;
    368a:	e061      	b.n	3750 <Camera_CLK_Interruption_OnInterrupt+0x108>
/home/guilherme/Documents/GER-SDP/KDS/SDP-2016/Debug/../Sources/Events.c:90
			while (!SI_GetVal());
		}

		// End of the cycle
		// The camera needs an extra clock (129) to send the last pixel
		else if (clockCounter == 129)
    368c:	4b33      	ldr	r3, [pc, #204]	; (375c <Camera_CLK_Interruption_OnInterrupt+0x114>)
    368e:	681b      	ldr	r3, [r3, #0]
    3690:	2b81      	cmp	r3, #129	; 0x81
    3692:	d108      	bne.n	36a6 <Camera_CLK_Interruption_OnInterrupt+0x5e>
/home/guilherme/Documents/GER-SDP/KDS/SDP-2016/Debug/../Sources/Events.c:92
		{
			clockCounter = 0;
    3694:	4b31      	ldr	r3, [pc, #196]	; (375c <Camera_CLK_Interruption_OnInterrupt+0x114>)
    3696:	2200      	movs	r2, #0
    3698:	601a      	str	r2, [r3, #0]
/home/guilherme/Documents/GER-SDP/KDS/SDP-2016/Debug/../Sources/Events.c:95

			// And 20 microseconds to prepare for the next cycle.
			state = WAIT_TRANSFER_CHARGE;
    369a:	4b2e      	ldr	r3, [pc, #184]	; (3754 <Camera_CLK_Interruption_OnInterrupt+0x10c>)
    369c:	2204      	movs	r2, #4
    369e:	601a      	str	r2, [r3, #0]
/home/guilherme/Documents/GER-SDP/KDS/SDP-2016/Debug/../Sources/Events.c:98

			// Checks if reading is finished
			verifySample();
    36a0:	f7ff ff58 	bl	3554 <verifySample>
/home/guilherme/Documents/GER-SDP/KDS/SDP-2016/Debug/../Sources/Events.c:100
		}
		break;
    36a4:	e054      	b.n	3750 <Camera_CLK_Interruption_OnInterrupt+0x108>
    36a6:	e053      	b.n	3750 <Camera_CLK_Interruption_OnInterrupt+0x108>
/home/guilherme/Documents/GER-SDP/KDS/SDP-2016/Debug/../Sources/Events.c:106
	}

	case HIGH_CLK:
	{
		// Clock High.
		CLK_SetVal();
    36a8:	4b2d      	ldr	r3, [pc, #180]	; (3760 <Camera_CLK_Interruption_OnInterrupt+0x118>)
    36aa:	685b      	ldr	r3, [r3, #4]
    36ac:	1c18      	adds	r0, r3, #0
    36ae:	f001 fa7d 	bl	4bac <BitIoLdd2_SetVal>
/home/guilherme/Documents/GER-SDP/KDS/SDP-2016/Debug/../Sources/Events.c:107
		while (!CLK_GetVal());
    36b2:	46c0      	nop			; (mov r8, r8)
/home/guilherme/Documents/GER-SDP/KDS/SDP-2016/Debug/../Sources/Events.c:107 (discriminator 1)
    36b4:	4b2a      	ldr	r3, [pc, #168]	; (3760 <Camera_CLK_Interruption_OnInterrupt+0x118>)
    36b6:	685b      	ldr	r3, [r3, #4]
    36b8:	1c18      	adds	r0, r3, #0
    36ba:	f001 fa57 	bl	4b6c <BitIoLdd2_GetVal>
    36be:	1c03      	adds	r3, r0, #0
    36c0:	2b00      	cmp	r3, #0
    36c2:	d0f7      	beq.n	36b4 <Camera_CLK_Interruption_OnInterrupt+0x6c>
/home/guilherme/Documents/GER-SDP/KDS/SDP-2016/Debug/../Sources/Events.c:109

		clockCounter++;
    36c4:	4b25      	ldr	r3, [pc, #148]	; (375c <Camera_CLK_Interruption_OnInterrupt+0x114>)
    36c6:	681b      	ldr	r3, [r3, #0]
    36c8:	1c5a      	adds	r2, r3, #1
    36ca:	4b24      	ldr	r3, [pc, #144]	; (375c <Camera_CLK_Interruption_OnInterrupt+0x114>)
    36cc:	601a      	str	r2, [r3, #0]
/home/guilherme/Documents/GER-SDP/KDS/SDP-2016/Debug/../Sources/Events.c:111

		state = HALF_HIGH_CLK;
    36ce:	4b21      	ldr	r3, [pc, #132]	; (3754 <Camera_CLK_Interruption_OnInterrupt+0x10c>)
    36d0:	2201      	movs	r2, #1
    36d2:	601a      	str	r2, [r3, #0]
/home/guilherme/Documents/GER-SDP/KDS/SDP-2016/Debug/../Sources/Events.c:113

		break;
    36d4:	e03c      	b.n	3750 <Camera_CLK_Interruption_OnInterrupt+0x108>
/home/guilherme/Documents/GER-SDP/KDS/SDP-2016/Debug/../Sources/Events.c:118
	}

	case HALF_HIGH_CLK:
	{
		if (clockCounter == 1)
    36d6:	4b21      	ldr	r3, [pc, #132]	; (375c <Camera_CLK_Interruption_OnInterrupt+0x114>)
    36d8:	681b      	ldr	r3, [r3, #0]
    36da:	2b01      	cmp	r3, #1
    36dc:	d10d      	bne.n	36fa <Camera_CLK_Interruption_OnInterrupt+0xb2>
/home/guilherme/Documents/GER-SDP/KDS/SDP-2016/Debug/../Sources/Events.c:121
		{
			// SI Low.
			SI_ClrVal();
    36de:	4b20      	ldr	r3, [pc, #128]	; (3760 <Camera_CLK_Interruption_OnInterrupt+0x118>)
    36e0:	681b      	ldr	r3, [r3, #0]
    36e2:	1c18      	adds	r0, r3, #0
    36e4:	f001 f8e0 	bl	48a8 <BitIoLdd1_ClrVal>
/home/guilherme/Documents/GER-SDP/KDS/SDP-2016/Debug/../Sources/Events.c:122
			while (SI_GetVal());
    36e8:	46c0      	nop			; (mov r8, r8)
/home/guilherme/Documents/GER-SDP/KDS/SDP-2016/Debug/../Sources/Events.c:122 (discriminator 1)
    36ea:	4b1d      	ldr	r3, [pc, #116]	; (3760 <Camera_CLK_Interruption_OnInterrupt+0x118>)
    36ec:	681b      	ldr	r3, [r3, #0]
    36ee:	1c18      	adds	r0, r3, #0
    36f0:	f001 f8c6 	bl	4880 <BitIoLdd1_GetVal>
    36f4:	1c03      	adds	r3, r0, #0
    36f6:	2b00      	cmp	r3, #0
    36f8:	d1f7      	bne.n	36ea <Camera_CLK_Interruption_OnInterrupt+0xa2>
/home/guilherme/Documents/GER-SDP/KDS/SDP-2016/Debug/../Sources/Events.c:126
		}

		// Starts the AD convertion
		AD_Converter_MeasureChan(FALSE, 0);
    36fa:	2000      	movs	r0, #0
    36fc:	2100      	movs	r1, #0
    36fe:	f000 fe33 	bl	4368 <AD_Converter_MeasureChan>
/home/guilherme/Documents/GER-SDP/KDS/SDP-2016/Debug/../Sources/Events.c:127
		state = LOW_CLK;
    3702:	4b14      	ldr	r3, [pc, #80]	; (3754 <Camera_CLK_Interruption_OnInterrupt+0x10c>)
    3704:	2202      	movs	r2, #2
    3706:	601a      	str	r2, [r3, #0]
/home/guilherme/Documents/GER-SDP/KDS/SDP-2016/Debug/../Sources/Events.c:128
		break;
    3708:	e022      	b.n	3750 <Camera_CLK_Interruption_OnInterrupt+0x108>
/home/guilherme/Documents/GER-SDP/KDS/SDP-2016/Debug/../Sources/Events.c:133
	}
	case LOW_CLK:
	{
		// Clock Low.
		CLK_ClrVal();
    370a:	4b15      	ldr	r3, [pc, #84]	; (3760 <Camera_CLK_Interruption_OnInterrupt+0x118>)
    370c:	685b      	ldr	r3, [r3, #4]
    370e:	1c18      	adds	r0, r3, #0
    3710:	f001 fa40 	bl	4b94 <BitIoLdd2_ClrVal>
/home/guilherme/Documents/GER-SDP/KDS/SDP-2016/Debug/../Sources/Events.c:134
		while (CLK_GetVal());
    3714:	46c0      	nop			; (mov r8, r8)
/home/guilherme/Documents/GER-SDP/KDS/SDP-2016/Debug/../Sources/Events.c:134 (discriminator 1)
    3716:	4b12      	ldr	r3, [pc, #72]	; (3760 <Camera_CLK_Interruption_OnInterrupt+0x118>)
    3718:	685b      	ldr	r3, [r3, #4]
    371a:	1c18      	adds	r0, r3, #0
    371c:	f001 fa26 	bl	4b6c <BitIoLdd2_GetVal>
    3720:	1c03      	adds	r3, r0, #0
    3722:	2b00      	cmp	r3, #0
    3724:	d1f7      	bne.n	3716 <Camera_CLK_Interruption_OnInterrupt+0xce>
/home/guilherme/Documents/GER-SDP/KDS/SDP-2016/Debug/../Sources/Events.c:136

		state = HALF_LOW_CLK;
    3726:	4b0b      	ldr	r3, [pc, #44]	; (3754 <Camera_CLK_Interruption_OnInterrupt+0x10c>)
    3728:	2203      	movs	r2, #3
    372a:	601a      	str	r2, [r3, #0]
/home/guilherme/Documents/GER-SDP/KDS/SDP-2016/Debug/../Sources/Events.c:138

		break;
    372c:	e010      	b.n	3750 <Camera_CLK_Interruption_OnInterrupt+0x108>
/home/guilherme/Documents/GER-SDP/KDS/SDP-2016/Debug/../Sources/Events.c:144
	}

	// Pixel charge transfer time
	case WAIT_TRANSFER_CHARGE:
	{
		if (transferTime)
    372e:	4b0d      	ldr	r3, [pc, #52]	; (3764 <Camera_CLK_Interruption_OnInterrupt+0x11c>)
    3730:	681b      	ldr	r3, [r3, #0]
    3732:	2b00      	cmp	r3, #0
    3734:	d005      	beq.n	3742 <Camera_CLK_Interruption_OnInterrupt+0xfa>
/home/guilherme/Documents/GER-SDP/KDS/SDP-2016/Debug/../Sources/Events.c:146
		{
			transferTime++;
    3736:	4b0b      	ldr	r3, [pc, #44]	; (3764 <Camera_CLK_Interruption_OnInterrupt+0x11c>)
    3738:	681b      	ldr	r3, [r3, #0]
    373a:	1c5a      	adds	r2, r3, #1
    373c:	4b09      	ldr	r3, [pc, #36]	; (3764 <Camera_CLK_Interruption_OnInterrupt+0x11c>)
    373e:	601a      	str	r2, [r3, #0]
    3740:	e005      	b.n	374e <Camera_CLK_Interruption_OnInterrupt+0x106>
/home/guilherme/Documents/GER-SDP/KDS/SDP-2016/Debug/../Sources/Events.c:150
		}
		else
		{
			transferTime = 0;
    3742:	4b08      	ldr	r3, [pc, #32]	; (3764 <Camera_CLK_Interruption_OnInterrupt+0x11c>)
    3744:	2200      	movs	r2, #0
    3746:	601a      	str	r2, [r3, #0]
/home/guilherme/Documents/GER-SDP/KDS/SDP-2016/Debug/../Sources/Events.c:151
			state = HALF_LOW_CLK;
    3748:	4b02      	ldr	r3, [pc, #8]	; (3754 <Camera_CLK_Interruption_OnInterrupt+0x10c>)
    374a:	2203      	movs	r2, #3
    374c:	601a      	str	r2, [r3, #0]
/home/guilherme/Documents/GER-SDP/KDS/SDP-2016/Debug/../Sources/Events.c:154
		}

		break;
    374e:	46c0      	nop			; (mov r8, r8)
/home/guilherme/Documents/GER-SDP/KDS/SDP-2016/Debug/../Sources/Events.c:158
	}

	}
}
    3750:	46bd      	mov	sp, r7
    3752:	bd80      	pop	{r7, pc}
    3754:	1ffff1dc 	.word	0x1ffff1dc
    3758:	000062d8 	.word	0x000062d8
    375c:	1ffff1cc 	.word	0x1ffff1cc
    3760:	1ffff0d8 	.word	0x1ffff0d8
    3764:	1ffff1d4 	.word	0x1ffff1d4

00003768 <AD_Converter_OnEnd>:
AD_Converter_OnEnd():
/home/guilherme/Documents/GER-SDP/KDS/SDP-2016/Debug/../Sources/Events.c:175
 **     Parameters  : None
 **     Returns     : Nothing
 ** ===================================================================
 */
void AD_Converter_OnEnd(void)
{
    3768:	b580      	push	{r7, lr}
    376a:	af00      	add	r7, sp, #0
/home/guilherme/Documents/GER-SDP/KDS/SDP-2016/Debug/../Sources/Events.c:176
	if (!handlingPowerUpdate)
    376c:	4b08      	ldr	r3, [pc, #32]	; (3790 <AD_Converter_OnEnd+0x28>)
    376e:	781b      	ldrb	r3, [r3, #0]
    3770:	b2db      	uxtb	r3, r3
    3772:	2b00      	cmp	r3, #0
    3774:	d108      	bne.n	3788 <AD_Converter_OnEnd+0x20>
/home/guilherme/Documents/GER-SDP/KDS/SDP-2016/Debug/../Sources/Events.c:178
	{
		AD_Converter_GetChanValue(0, &rawImageBuffer[clockCounter]);
    3776:	4b07      	ldr	r3, [pc, #28]	; (3794 <AD_Converter_OnEnd+0x2c>)
    3778:	681a      	ldr	r2, [r3, #0]
    377a:	4b07      	ldr	r3, [pc, #28]	; (3798 <AD_Converter_OnEnd+0x30>)
    377c:	18d3      	adds	r3, r2, r3
    377e:	2000      	movs	r0, #0
    3780:	1c19      	adds	r1, r3, #0
    3782:	f000 fe23 	bl	43cc <AD_Converter_GetChanValue>
    3786:	e001      	b.n	378c <AD_Converter_OnEnd+0x24>
/home/guilherme/Documents/GER-SDP/KDS/SDP-2016/Debug/../Sources/Events.c:182
	}
	else
	{
		updatePowerState();
    3788:	f7ff fd7e 	bl	3288 <updatePowerState>
/home/guilherme/Documents/GER-SDP/KDS/SDP-2016/Debug/../Sources/Events.c:184
	}
}
    378c:	46bd      	mov	sp, r7
    378e:	bd80      	pop	{r7, pc}
    3790:	1ffff1c0 	.word	0x1ffff1c0
    3794:	1ffff1cc 	.word	0x1ffff1cc
    3798:	1ffff260 	.word	0x1ffff260

0000379c <SerialCom_OnBlockSent>:
SerialCom_OnBlockSent():
/home/guilherme/Documents/GER-SDP/KDS/SDP-2016/Debug/../Sources/Events.c:203
 **                           RTOS specific data. This pointer is passed
 **                           as the parameter of Init method.
 */
/* ===================================================================*/
void SerialCom_OnBlockSent(LDD_TUserData *UserDataPtr)
{
    379c:	b580      	push	{r7, lr}
    379e:	b084      	sub	sp, #16
    37a0:	af00      	add	r7, sp, #0
    37a2:	6078      	str	r0, [r7, #4]
/home/guilherme/Documents/GER-SDP/KDS/SDP-2016/Debug/../Sources/Events.c:204
	Serial_Device *ptr = (Serial_Device*)UserDataPtr;
    37a4:	687b      	ldr	r3, [r7, #4]
    37a6:	60fb      	str	r3, [r7, #12]
/home/guilherme/Documents/GER-SDP/KDS/SDP-2016/Debug/../Sources/Events.c:206

	ptr->isSent = TRUE; /* set flag so sender knows we have finished */
    37a8:	68fb      	ldr	r3, [r7, #12]
    37aa:	2201      	movs	r2, #1
    37ac:	711a      	strb	r2, [r3, #4]
/home/guilherme/Documents/GER-SDP/KDS/SDP-2016/Debug/../Sources/Events.c:207
}
    37ae:	46bd      	mov	sp, r7
    37b0:	b004      	add	sp, #16
    37b2:	bd80      	pop	{r7, pc}

000037b4 <calibration>:
calibration():
/home/guilherme/Documents/GER-SDP/KDS/SDP-2016/Debug/../Sources/ImageProcessing.c:12


#include "ImageProcessing.h"

void calibration()
{
    37b4:	b580      	push	{r7, lr}
    37b6:	b082      	sub	sp, #8
    37b8:	af00      	add	r7, sp, #0
/home/guilherme/Documents/GER-SDP/KDS/SDP-2016/Debug/../Sources/ImageProcessing.c:13
	for (int border = 0; border < 128; border++)
    37ba:	2300      	movs	r3, #0
    37bc:	607b      	str	r3, [r7, #4]
    37be:	e00a      	b.n	37d6 <calibration+0x22>
/home/guilherme/Documents/GER-SDP/KDS/SDP-2016/Debug/../Sources/ImageProcessing.c:15 (discriminator 2)
	{
		referenceImage[border] = rawImage[border];
    37c0:	4a08      	ldr	r2, [pc, #32]	; (37e4 <calibration+0x30>)
    37c2:	687b      	ldr	r3, [r7, #4]
    37c4:	18d3      	adds	r3, r2, r3
    37c6:	781a      	ldrb	r2, [r3, #0]
    37c8:	4907      	ldr	r1, [pc, #28]	; (37e8 <calibration+0x34>)
    37ca:	687b      	ldr	r3, [r7, #4]
    37cc:	18cb      	adds	r3, r1, r3
    37ce:	701a      	strb	r2, [r3, #0]
/home/guilherme/Documents/GER-SDP/KDS/SDP-2016/Debug/../Sources/ImageProcessing.c:13 (discriminator 2)

#include "ImageProcessing.h"

void calibration()
{
	for (int border = 0; border < 128; border++)
    37d0:	687b      	ldr	r3, [r7, #4]
    37d2:	3301      	adds	r3, #1
    37d4:	607b      	str	r3, [r7, #4]
/home/guilherme/Documents/GER-SDP/KDS/SDP-2016/Debug/../Sources/ImageProcessing.c:13 (discriminator 1)
    37d6:	687b      	ldr	r3, [r7, #4]
    37d8:	2b7f      	cmp	r3, #127	; 0x7f
    37da:	ddf1      	ble.n	37c0 <calibration+0xc>
/home/guilherme/Documents/GER-SDP/KDS/SDP-2016/Debug/../Sources/ImageProcessing.c:17
	{
		referenceImage[border] = rawImage[border];
	}
}
    37dc:	46bd      	mov	sp, r7
    37de:	b002      	add	sp, #8
    37e0:	bd80      	pop	{r7, pc}
    37e2:	46c0      	nop			; (mov r8, r8)
    37e4:	1ffff1e0 	.word	0x1ffff1e0
    37e8:	1ffff2e0 	.word	0x1ffff2e0
$d():
    37ec:	00000000 	.word	0x00000000

000037f0 <binarization>:
binarization():
/home/guilherme/Documents/GER-SDP/KDS/SDP-2016/Debug/../Sources/ImageProcessing.c:20

void binarization(uint8 binarizedImage[])
{
    37f0:	b590      	push	{r4, r7, lr}
    37f2:	b085      	sub	sp, #20
    37f4:	af00      	add	r7, sp, #0
    37f6:	6078      	str	r0, [r7, #4]
/home/guilherme/Documents/GER-SDP/KDS/SDP-2016/Debug/../Sources/ImageProcessing.c:23
	float light;

	for (int border = 0; border < 128; border++)
    37f8:	2300      	movs	r3, #0
    37fa:	60fb      	str	r3, [r7, #12]
    37fc:	e032      	b.n	3864 <binarization+0x74>
/home/guilherme/Documents/GER-SDP/KDS/SDP-2016/Debug/../Sources/ImageProcessing.c:25
	{
		light = (float) rawImage[border] / (float) referenceImage[border];
    37fe:	4a1e      	ldr	r2, [pc, #120]	; (3878 <binarization+0x88>)
    3800:	68fb      	ldr	r3, [r7, #12]
    3802:	18d3      	adds	r3, r2, r3
    3804:	781b      	ldrb	r3, [r3, #0]
    3806:	1c18      	adds	r0, r3, #0
    3808:	f7fd fe1a 	bl	1440 <__aeabi_ui2f>
    380c:	1c04      	adds	r4, r0, #0
    380e:	4a1b      	ldr	r2, [pc, #108]	; (387c <binarization+0x8c>)
    3810:	68fb      	ldr	r3, [r7, #12]
    3812:	18d3      	adds	r3, r2, r3
    3814:	781b      	ldrb	r3, [r3, #0]
    3816:	b2db      	uxtb	r3, r3
    3818:	1c18      	adds	r0, r3, #0
    381a:	f7fd fe11 	bl	1440 <__aeabi_ui2f>
    381e:	1c03      	adds	r3, r0, #0
    3820:	1c20      	adds	r0, r4, #0
    3822:	1c19      	adds	r1, r3, #0
    3824:	f7fd f90c 	bl	a40 <__aeabi_fdiv>
    3828:	1c03      	adds	r3, r0, #0
    382a:	60bb      	str	r3, [r7, #8]
/home/guilherme/Documents/GER-SDP/KDS/SDP-2016/Debug/../Sources/ImageProcessing.c:26
		if (light < 0.6)
    382c:	68b8      	ldr	r0, [r7, #8]
    382e:	f7ff fc19 	bl	3064 <__aeabi_f2d>
    3832:	1c03      	adds	r3, r0, #0
    3834:	1c0c      	adds	r4, r1, #0
    3836:	1c18      	adds	r0, r3, #0
    3838:	1c21      	adds	r1, r4, #0
    383a:	4b0e      	ldr	r3, [pc, #56]	; (3874 <binarization+0x84>)
    383c:	4a0c      	ldr	r2, [pc, #48]	; (3870 <binarization+0x80>)
    383e:	f7fc ff19 	bl	674 <__aeabi_dcmplt>
    3842:	1c03      	adds	r3, r0, #0
    3844:	2b00      	cmp	r3, #0
    3846:	d005      	beq.n	3854 <binarization+0x64>
/home/guilherme/Documents/GER-SDP/KDS/SDP-2016/Debug/../Sources/ImageProcessing.c:28
		{
			binarizedImage[border] = 0;
    3848:	68fb      	ldr	r3, [r7, #12]
    384a:	687a      	ldr	r2, [r7, #4]
    384c:	18d3      	adds	r3, r2, r3
    384e:	2200      	movs	r2, #0
    3850:	701a      	strb	r2, [r3, #0]
    3852:	e004      	b.n	385e <binarization+0x6e>
/home/guilherme/Documents/GER-SDP/KDS/SDP-2016/Debug/../Sources/ImageProcessing.c:32
		}
		else
		{
			binarizedImage[border] = 255;
    3854:	68fb      	ldr	r3, [r7, #12]
    3856:	687a      	ldr	r2, [r7, #4]
    3858:	18d3      	adds	r3, r2, r3
    385a:	22ff      	movs	r2, #255	; 0xff
    385c:	701a      	strb	r2, [r3, #0]
/home/guilherme/Documents/GER-SDP/KDS/SDP-2016/Debug/../Sources/ImageProcessing.c:23

void binarization(uint8 binarizedImage[])
{
	float light;

	for (int border = 0; border < 128; border++)
    385e:	68fb      	ldr	r3, [r7, #12]
    3860:	3301      	adds	r3, #1
    3862:	60fb      	str	r3, [r7, #12]
/home/guilherme/Documents/GER-SDP/KDS/SDP-2016/Debug/../Sources/ImageProcessing.c:23 (discriminator 1)
    3864:	68fb      	ldr	r3, [r7, #12]
    3866:	2b7f      	cmp	r3, #127	; 0x7f
    3868:	ddc9      	ble.n	37fe <binarization+0xe>
/home/guilherme/Documents/GER-SDP/KDS/SDP-2016/Debug/../Sources/ImageProcessing.c:35
		else
		{
			binarizedImage[border] = 255;
		}
	}
}
    386a:	46bd      	mov	sp, r7
    386c:	b005      	add	sp, #20
    386e:	bd90      	pop	{r4, r7, pc}
    3870:	33333333 	.word	0x33333333
    3874:	3fe33333 	.word	0x3fe33333
    3878:	1ffff1e0 	.word	0x1ffff1e0
    387c:	1ffff2e0 	.word	0x1ffff2e0

00003880 <set_borders>:
set_borders():
/home/guilherme/Documents/GER-SDP/KDS/SDP-2016/Debug/../Sources/ImageProcessing.c:46

	return left_border + right_border;
}

void set_borders(uint8 image[], uint8 *leftBorder, uint8 *rightBorder)
{
    3880:	b580      	push	{r7, lr}
    3882:	b086      	sub	sp, #24
    3884:	af00      	add	r7, sp, #0
    3886:	60f8      	str	r0, [r7, #12]
    3888:	60b9      	str	r1, [r7, #8]
    388a:	607a      	str	r2, [r7, #4]
/home/guilherme/Documents/GER-SDP/KDS/SDP-2016/Debug/../Sources/ImageProcessing.c:48
	int index;
	bool found = FALSE;
    388c:	1c3b      	adds	r3, r7, #0
    388e:	3313      	adds	r3, #19
    3890:	2200      	movs	r2, #0
    3892:	701a      	strb	r2, [r3, #0]
/home/guilherme/Documents/GER-SDP/KDS/SDP-2016/Debug/../Sources/ImageProcessing.c:53
	uint8 border;

	// right side
	// default value
	border = 127;
    3894:	1c3b      	adds	r3, r7, #0
    3896:	3312      	adds	r3, #18
    3898:	227f      	movs	r2, #127	; 0x7f
    389a:	701a      	strb	r2, [r3, #0]
/home/guilherme/Documents/GER-SDP/KDS/SDP-2016/Debug/../Sources/ImageProcessing.c:55
	// Percorre do centro ate o limite direito da camera procurando uma borda
	for (index = 64; index < 127 && !found; index++)
    389c:	2340      	movs	r3, #64	; 0x40
    389e:	617b      	str	r3, [r7, #20]
    38a0:	e010      	b.n	38c4 <set_borders+0x44>
/home/guilherme/Documents/GER-SDP/KDS/SDP-2016/Debug/../Sources/ImageProcessing.c:57
	{
		if (image[index] == 0)
    38a2:	697b      	ldr	r3, [r7, #20]
    38a4:	68fa      	ldr	r2, [r7, #12]
    38a6:	18d3      	adds	r3, r2, r3
    38a8:	781b      	ldrb	r3, [r3, #0]
    38aa:	2b00      	cmp	r3, #0
    38ac:	d107      	bne.n	38be <set_borders+0x3e>
/home/guilherme/Documents/GER-SDP/KDS/SDP-2016/Debug/../Sources/ImageProcessing.c:59
		{
			border = index;
    38ae:	1c3b      	adds	r3, r7, #0
    38b0:	3312      	adds	r3, #18
    38b2:	697a      	ldr	r2, [r7, #20]
    38b4:	701a      	strb	r2, [r3, #0]
/home/guilherme/Documents/GER-SDP/KDS/SDP-2016/Debug/../Sources/ImageProcessing.c:60
			found = TRUE;
    38b6:	1c3b      	adds	r3, r7, #0
    38b8:	3313      	adds	r3, #19
    38ba:	2201      	movs	r2, #1
    38bc:	701a      	strb	r2, [r3, #0]
/home/guilherme/Documents/GER-SDP/KDS/SDP-2016/Debug/../Sources/ImageProcessing.c:55

	// right side
	// default value
	border = 127;
	// Percorre do centro ate o limite direito da camera procurando uma borda
	for (index = 64; index < 127 && !found; index++)
    38be:	697b      	ldr	r3, [r7, #20]
    38c0:	3301      	adds	r3, #1
    38c2:	617b      	str	r3, [r7, #20]
/home/guilherme/Documents/GER-SDP/KDS/SDP-2016/Debug/../Sources/ImageProcessing.c:55 (discriminator 1)
    38c4:	697b      	ldr	r3, [r7, #20]
    38c6:	2b7e      	cmp	r3, #126	; 0x7e
    38c8:	dc04      	bgt.n	38d4 <set_borders+0x54>
/home/guilherme/Documents/GER-SDP/KDS/SDP-2016/Debug/../Sources/ImageProcessing.c:55 (discriminator 2)
    38ca:	1c3b      	adds	r3, r7, #0
    38cc:	3313      	adds	r3, #19
    38ce:	781b      	ldrb	r3, [r3, #0]
    38d0:	2b00      	cmp	r3, #0
    38d2:	d0e6      	beq.n	38a2 <set_borders+0x22>
/home/guilherme/Documents/GER-SDP/KDS/SDP-2016/Debug/../Sources/ImageProcessing.c:63
		{
			border = index;
			found = TRUE;
		}
	}
	*rightBorder = border - 64;
    38d4:	1c3b      	adds	r3, r7, #0
    38d6:	3312      	adds	r3, #18
    38d8:	781b      	ldrb	r3, [r3, #0]
    38da:	3b40      	subs	r3, #64	; 0x40
    38dc:	b2da      	uxtb	r2, r3
    38de:	687b      	ldr	r3, [r7, #4]
    38e0:	701a      	strb	r2, [r3, #0]
/home/guilherme/Documents/GER-SDP/KDS/SDP-2016/Debug/../Sources/ImageProcessing.c:65

	found = FALSE;
    38e2:	1c3b      	adds	r3, r7, #0
    38e4:	3313      	adds	r3, #19
    38e6:	2200      	movs	r2, #0
    38e8:	701a      	strb	r2, [r3, #0]
/home/guilherme/Documents/GER-SDP/KDS/SDP-2016/Debug/../Sources/ImageProcessing.c:69

	// left side
	// default value
	border = 0;
    38ea:	1c3b      	adds	r3, r7, #0
    38ec:	3312      	adds	r3, #18
    38ee:	2200      	movs	r2, #0
    38f0:	701a      	strb	r2, [r3, #0]
/home/guilherme/Documents/GER-SDP/KDS/SDP-2016/Debug/../Sources/ImageProcessing.c:71
	// Percorre do centro ate o limite esquerdo da camera procurando uma borda
	for (index = 63; index >= 0 && !found; index--)
    38f2:	233f      	movs	r3, #63	; 0x3f
    38f4:	617b      	str	r3, [r7, #20]
    38f6:	e010      	b.n	391a <set_borders+0x9a>
/home/guilherme/Documents/GER-SDP/KDS/SDP-2016/Debug/../Sources/ImageProcessing.c:73
	{
		if (image[index] == 0)
    38f8:	697b      	ldr	r3, [r7, #20]
    38fa:	68fa      	ldr	r2, [r7, #12]
    38fc:	18d3      	adds	r3, r2, r3
    38fe:	781b      	ldrb	r3, [r3, #0]
    3900:	2b00      	cmp	r3, #0
    3902:	d107      	bne.n	3914 <set_borders+0x94>
/home/guilherme/Documents/GER-SDP/KDS/SDP-2016/Debug/../Sources/ImageProcessing.c:75
		{
			border = index;
    3904:	1c3b      	adds	r3, r7, #0
    3906:	3312      	adds	r3, #18
    3908:	697a      	ldr	r2, [r7, #20]
    390a:	701a      	strb	r2, [r3, #0]
/home/guilherme/Documents/GER-SDP/KDS/SDP-2016/Debug/../Sources/ImageProcessing.c:76
			found = TRUE;
    390c:	1c3b      	adds	r3, r7, #0
    390e:	3313      	adds	r3, #19
    3910:	2201      	movs	r2, #1
    3912:	701a      	strb	r2, [r3, #0]
/home/guilherme/Documents/GER-SDP/KDS/SDP-2016/Debug/../Sources/ImageProcessing.c:71

	// left side
	// default value
	border = 0;
	// Percorre do centro ate o limite esquerdo da camera procurando uma borda
	for (index = 63; index >= 0 && !found; index--)
    3914:	697b      	ldr	r3, [r7, #20]
    3916:	3b01      	subs	r3, #1
    3918:	617b      	str	r3, [r7, #20]
/home/guilherme/Documents/GER-SDP/KDS/SDP-2016/Debug/../Sources/ImageProcessing.c:71 (discriminator 1)
    391a:	697b      	ldr	r3, [r7, #20]
    391c:	2b00      	cmp	r3, #0
    391e:	db04      	blt.n	392a <set_borders+0xaa>
/home/guilherme/Documents/GER-SDP/KDS/SDP-2016/Debug/../Sources/ImageProcessing.c:71 (discriminator 2)
    3920:	1c3b      	adds	r3, r7, #0
    3922:	3313      	adds	r3, #19
    3924:	781b      	ldrb	r3, [r3, #0]
    3926:	2b00      	cmp	r3, #0
    3928:	d0e6      	beq.n	38f8 <set_borders+0x78>
/home/guilherme/Documents/GER-SDP/KDS/SDP-2016/Debug/../Sources/ImageProcessing.c:79
		{
			border = index;
			found = TRUE;
		}
	}
	*leftBorder = 63 - border;
    392a:	1c3b      	adds	r3, r7, #0
    392c:	3312      	adds	r3, #18
    392e:	781b      	ldrb	r3, [r3, #0]
    3930:	223f      	movs	r2, #63	; 0x3f
    3932:	1ad3      	subs	r3, r2, r3
    3934:	b2da      	uxtb	r2, r3
    3936:	68bb      	ldr	r3, [r7, #8]
    3938:	701a      	strb	r2, [r3, #0]
/home/guilherme/Documents/GER-SDP/KDS/SDP-2016/Debug/../Sources/ImageProcessing.c:80
}
    393a:	46bd      	mov	sp, r7
    393c:	b006      	add	sp, #24
    393e:	bd80      	pop	{r7, pc}

00003940 <setMotorsSpeed>:
setMotorsSpeed():
/home/guilherme/Documents/GER-SDP/KDS/SDP-2016/Debug/../Sources/MotorController.c:17
 * Engine A is the left motor and engine B is the right motor
 * Both parameters allow values between -255 and 255.
 * With positive values the motor turns forward and with negative turns backwards
 */
void setMotorsSpeed(int leftMotorSpeed, int rightMotorSpeed)
{
    3940:	b580      	push	{r7, lr}
    3942:	b082      	sub	sp, #8
    3944:	af00      	add	r7, sp, #0
    3946:	6078      	str	r0, [r7, #4]
    3948:	6039      	str	r1, [r7, #0]
/home/guilherme/Documents/GER-SDP/KDS/SDP-2016/Debug/../Sources/MotorController.c:18
	if (leftMotorSpeed < -255 || leftMotorSpeed > 255)
    394a:	687b      	ldr	r3, [r7, #4]
    394c:	1c1a      	adds	r2, r3, #0
    394e:	32ff      	adds	r2, #255	; 0xff
    3950:	db02      	blt.n	3958 <setMotorsSpeed+0x18>
/home/guilherme/Documents/GER-SDP/KDS/SDP-2016/Debug/../Sources/MotorController.c:18 (discriminator 1)
    3952:	687b      	ldr	r3, [r7, #4]
    3954:	2bff      	cmp	r3, #255	; 0xff
    3956:	dd00      	ble.n	395a <setMotorsSpeed+0x1a>
/home/guilherme/Documents/GER-SDP/KDS/SDP-2016/Debug/../Sources/MotorController.c:20
	{
		return;
    3958:	e04f      	b.n	39fa <setMotorsSpeed+0xba>
/home/guilherme/Documents/GER-SDP/KDS/SDP-2016/Debug/../Sources/MotorController.c:23
	}

	if (rightMotorSpeed < -255 || rightMotorSpeed > 255)
    395a:	683b      	ldr	r3, [r7, #0]
    395c:	1c1a      	adds	r2, r3, #0
    395e:	32ff      	adds	r2, #255	; 0xff
    3960:	db02      	blt.n	3968 <setMotorsSpeed+0x28>
/home/guilherme/Documents/GER-SDP/KDS/SDP-2016/Debug/../Sources/MotorController.c:23 (discriminator 1)
    3962:	683b      	ldr	r3, [r7, #0]
    3964:	2bff      	cmp	r3, #255	; 0xff
    3966:	dd00      	ble.n	396a <setMotorsSpeed+0x2a>
/home/guilherme/Documents/GER-SDP/KDS/SDP-2016/Debug/../Sources/MotorController.c:25
	{
		return;
    3968:	e047      	b.n	39fa <setMotorsSpeed+0xba>
/home/guilherme/Documents/GER-SDP/KDS/SDP-2016/Debug/../Sources/MotorController.c:30
	}

	// LeftMotor
	// Forward
	if (leftMotorSpeed >= 0)
    396a:	687b      	ldr	r3, [r7, #4]
    396c:	2b00      	cmp	r3, #0
    396e:	db10      	blt.n	3992 <setMotorsSpeed+0x52>
/home/guilherme/Documents/GER-SDP/KDS/SDP-2016/Debug/../Sources/MotorController.c:32
	{
		Motor_A_In1_SetRatio8(255);
    3970:	4b23      	ldr	r3, [pc, #140]	; (3a00 <setMotorsSpeed+0xc0>)
    3972:	6a1b      	ldr	r3, [r3, #32]
    3974:	1c18      	adds	r0, r3, #0
    3976:	21ff      	movs	r1, #255	; 0xff
    3978:	f001 fcae 	bl	52d8 <PwmLdd1_SetRatio8>
/home/guilherme/Documents/GER-SDP/KDS/SDP-2016/Debug/../Sources/MotorController.c:33
		Motor_A_In2_SetRatio8(255 - leftMotorSpeed);
    397c:	4b20      	ldr	r3, [pc, #128]	; (3a00 <setMotorsSpeed+0xc0>)
    397e:	6a5a      	ldr	r2, [r3, #36]	; 0x24
    3980:	687b      	ldr	r3, [r7, #4]
    3982:	b2db      	uxtb	r3, r3
    3984:	43db      	mvns	r3, r3
    3986:	b2db      	uxtb	r3, r3
    3988:	1c10      	adds	r0, r2, #0
    398a:	1c19      	adds	r1, r3, #0
    398c:	f001 fd1e 	bl	53cc <PwmLdd2_SetRatio8>
    3990:	e00f      	b.n	39b2 <setMotorsSpeed+0x72>
/home/guilherme/Documents/GER-SDP/KDS/SDP-2016/Debug/../Sources/MotorController.c:38
	}
	// Backward
	else
	{
		Motor_A_In1_SetRatio8(255 + leftMotorSpeed);
    3992:	4b1b      	ldr	r3, [pc, #108]	; (3a00 <setMotorsSpeed+0xc0>)
    3994:	6a1a      	ldr	r2, [r3, #32]
    3996:	687b      	ldr	r3, [r7, #4]
    3998:	b2db      	uxtb	r3, r3
    399a:	3b01      	subs	r3, #1
    399c:	b2db      	uxtb	r3, r3
    399e:	1c10      	adds	r0, r2, #0
    39a0:	1c19      	adds	r1, r3, #0
    39a2:	f001 fc99 	bl	52d8 <PwmLdd1_SetRatio8>
/home/guilherme/Documents/GER-SDP/KDS/SDP-2016/Debug/../Sources/MotorController.c:39
		Motor_A_In2_SetRatio8(255);
    39a6:	4b16      	ldr	r3, [pc, #88]	; (3a00 <setMotorsSpeed+0xc0>)
    39a8:	6a5b      	ldr	r3, [r3, #36]	; 0x24
    39aa:	1c18      	adds	r0, r3, #0
    39ac:	21ff      	movs	r1, #255	; 0xff
    39ae:	f001 fd0d 	bl	53cc <PwmLdd2_SetRatio8>
/home/guilherme/Documents/GER-SDP/KDS/SDP-2016/Debug/../Sources/MotorController.c:44
	}

	// Right Motor
	// Forward
	if (rightMotorSpeed >= 0)
    39b2:	683b      	ldr	r3, [r7, #0]
    39b4:	2b00      	cmp	r3, #0
    39b6:	db10      	blt.n	39da <setMotorsSpeed+0x9a>
/home/guilherme/Documents/GER-SDP/KDS/SDP-2016/Debug/../Sources/MotorController.c:46
	{
		Motor_B_In1_SetRatio8(255);
    39b8:	4b11      	ldr	r3, [pc, #68]	; (3a00 <setMotorsSpeed+0xc0>)
    39ba:	6a9b      	ldr	r3, [r3, #40]	; 0x28
    39bc:	1c18      	adds	r0, r3, #0
    39be:	21ff      	movs	r1, #255	; 0xff
    39c0:	f001 fd7e 	bl	54c0 <PwmLdd3_SetRatio8>
/home/guilherme/Documents/GER-SDP/KDS/SDP-2016/Debug/../Sources/MotorController.c:47
		Motor_B_In2_SetRatio8(255 - rightMotorSpeed);
    39c4:	4b0e      	ldr	r3, [pc, #56]	; (3a00 <setMotorsSpeed+0xc0>)
    39c6:	6ada      	ldr	r2, [r3, #44]	; 0x2c
    39c8:	683b      	ldr	r3, [r7, #0]
    39ca:	b2db      	uxtb	r3, r3
    39cc:	43db      	mvns	r3, r3
    39ce:	b2db      	uxtb	r3, r3
    39d0:	1c10      	adds	r0, r2, #0
    39d2:	1c19      	adds	r1, r3, #0
    39d4:	f001 fdee 	bl	55b4 <PwmLdd4_SetRatio8>
    39d8:	e00f      	b.n	39fa <setMotorsSpeed+0xba>
/home/guilherme/Documents/GER-SDP/KDS/SDP-2016/Debug/../Sources/MotorController.c:52
	}
	// Backward
	else
	{
		Motor_B_In1_SetRatio8(255 + rightMotorSpeed);
    39da:	4b09      	ldr	r3, [pc, #36]	; (3a00 <setMotorsSpeed+0xc0>)
    39dc:	6a9a      	ldr	r2, [r3, #40]	; 0x28
    39de:	683b      	ldr	r3, [r7, #0]
    39e0:	b2db      	uxtb	r3, r3
    39e2:	3b01      	subs	r3, #1
    39e4:	b2db      	uxtb	r3, r3
    39e6:	1c10      	adds	r0, r2, #0
    39e8:	1c19      	adds	r1, r3, #0
    39ea:	f001 fd69 	bl	54c0 <PwmLdd3_SetRatio8>
/home/guilherme/Documents/GER-SDP/KDS/SDP-2016/Debug/../Sources/MotorController.c:53
		Motor_B_In2_SetRatio8(255);
    39ee:	4b04      	ldr	r3, [pc, #16]	; (3a00 <setMotorsSpeed+0xc0>)
    39f0:	6adb      	ldr	r3, [r3, #44]	; 0x2c
    39f2:	1c18      	adds	r0, r3, #0
    39f4:	21ff      	movs	r1, #255	; 0xff
    39f6:	f001 fddd 	bl	55b4 <PwmLdd4_SetRatio8>
/home/guilherme/Documents/GER-SDP/KDS/SDP-2016/Debug/../Sources/MotorController.c:57
	}


}
    39fa:	46bd      	mov	sp, r7
    39fc:	b002      	add	sp, #8
    39fe:	bd80      	pop	{r7, pc}
    3a00:	1ffff0d8 	.word	0x1ffff0d8
$d():
    3a04:	00000000 	.word	0x00000000

00003a08 <resetPID>:
resetPID():
/home/guilherme/Documents/GER-SDP/KDS/SDP-2016/Debug/../Sources/PID.c:6
#include "PID.h"

// the setup routine runs once when you press reset:

void resetPID(SPID *pid)
{
    3a08:	b590      	push	{r4, r7, lr}
    3a0a:	b083      	sub	sp, #12
    3a0c:	af00      	add	r7, sp, #0
    3a0e:	6078      	str	r0, [r7, #4]
/home/guilherme/Documents/GER-SDP/KDS/SDP-2016/Debug/../Sources/PID.c:7
	pid->i_state = 0;
    3a10:	687a      	ldr	r2, [r7, #4]
    3a12:	4c0a      	ldr	r4, [pc, #40]	; (3a3c <resetPID+0x34>)
    3a14:	4b08      	ldr	r3, [pc, #32]	; (3a38 <resetPID+0x30>)
    3a16:	6193      	str	r3, [r2, #24]
    3a18:	61d4      	str	r4, [r2, #28]
/home/guilherme/Documents/GER-SDP/KDS/SDP-2016/Debug/../Sources/PID.c:8
	pid->i_max = 1;
    3a1a:	687b      	ldr	r3, [r7, #4]
    3a1c:	2201      	movs	r2, #1
    3a1e:	621a      	str	r2, [r3, #32]
/home/guilherme/Documents/GER-SDP/KDS/SDP-2016/Debug/../Sources/PID.c:9
	pid->i_min = -1;
    3a20:	687b      	ldr	r3, [r7, #4]
    3a22:	2201      	movs	r2, #1
    3a24:	4252      	negs	r2, r2
    3a26:	625a      	str	r2, [r3, #36]	; 0x24
/home/guilherme/Documents/GER-SDP/KDS/SDP-2016/Debug/../Sources/PID.c:11

	pid->last_error = 0;
    3a28:	687a      	ldr	r2, [r7, #4]
    3a2a:	4c04      	ldr	r4, [pc, #16]	; (3a3c <resetPID+0x34>)
    3a2c:	4b02      	ldr	r3, [pc, #8]	; (3a38 <resetPID+0x30>)
    3a2e:	6293      	str	r3, [r2, #40]	; 0x28
    3a30:	62d4      	str	r4, [r2, #44]	; 0x2c
/home/guilherme/Documents/GER-SDP/KDS/SDP-2016/Debug/../Sources/PID.c:12
}
    3a32:	46bd      	mov	sp, r7
    3a34:	b003      	add	sp, #12
    3a36:	bd90      	pop	{r4, r7, pc}
	...

00003a40 <update_pid>:
update_pid():
/home/guilherme/Documents/GER-SDP/KDS/SDP-2016/Debug/../Sources/PID.c:15

double update_pid (SPID * pid, double error)
{
    3a40:	b590      	push	{r4, r7, lr}
    3a42:	b08d      	sub	sp, #52	; 0x34
    3a44:	af00      	add	r7, sp, #0
    3a46:	60f8      	str	r0, [r7, #12]
    3a48:	603a      	str	r2, [r7, #0]
    3a4a:	607b      	str	r3, [r7, #4]
/home/guilherme/Documents/GER-SDP/KDS/SDP-2016/Debug/../Sources/PID.c:19
	double output;

	// Termo proporcionao, integrativo e derivativo.
	double p_term = 0, i_term = 0, d_term = 0;
    3a4c:	4c37      	ldr	r4, [pc, #220]	; (3b2c <update_pid+0xec>)
    3a4e:	4b36      	ldr	r3, [pc, #216]	; (3b28 <update_pid+0xe8>)
    3a50:	623b      	str	r3, [r7, #32]
    3a52:	627c      	str	r4, [r7, #36]	; 0x24
    3a54:	4c35      	ldr	r4, [pc, #212]	; (3b2c <update_pid+0xec>)
    3a56:	4b34      	ldr	r3, [pc, #208]	; (3b28 <update_pid+0xe8>)
    3a58:	61bb      	str	r3, [r7, #24]
    3a5a:	61fc      	str	r4, [r7, #28]
    3a5c:	4c33      	ldr	r4, [pc, #204]	; (3b2c <update_pid+0xec>)
    3a5e:	4b32      	ldr	r3, [pc, #200]	; (3b28 <update_pid+0xe8>)
    3a60:	613b      	str	r3, [r7, #16]
    3a62:	617c      	str	r4, [r7, #20]
/home/guilherme/Documents/GER-SDP/KDS/SDP-2016/Debug/../Sources/PID.c:23


	// Verify how controls is been used.
	update_gains(pid);
    3a64:	68fb      	ldr	r3, [r7, #12]
    3a66:	1c18      	adds	r0, r3, #0
    3a68:	f000 f906 	bl	3c78 <update_gains>
/home/guilherme/Documents/GER-SDP/KDS/SDP-2016/Debug/../Sources/PID.c:26

	// Proportional term
	p_term = error * pid->p_gain;
    3a6c:	68fb      	ldr	r3, [r7, #12]
    3a6e:	685c      	ldr	r4, [r3, #4]
    3a70:	681b      	ldr	r3, [r3, #0]
    3a72:	1c18      	adds	r0, r3, #0
    3a74:	1c21      	adds	r1, r4, #0
    3a76:	683a      	ldr	r2, [r7, #0]
    3a78:	687b      	ldr	r3, [r7, #4]
    3a7a:	f7fe fcbd 	bl	23f8 <__aeabi_dmul>
    3a7e:	1c03      	adds	r3, r0, #0
    3a80:	1c0c      	adds	r4, r1, #0
    3a82:	623b      	str	r3, [r7, #32]
    3a84:	627c      	str	r4, [r7, #36]	; 0x24
/home/guilherme/Documents/GER-SDP/KDS/SDP-2016/Debug/../Sources/PID.c:29

	// integral term
	i_term = get_integral_term(pid, error);
    3a86:	68fa      	ldr	r2, [r7, #12]
    3a88:	683b      	ldr	r3, [r7, #0]
    3a8a:	687c      	ldr	r4, [r7, #4]
    3a8c:	1c10      	adds	r0, r2, #0
    3a8e:	1c1a      	adds	r2, r3, #0
    3a90:	1c23      	adds	r3, r4, #0
    3a92:	f000 f879 	bl	3b88 <get_integral_term>
    3a96:	1c03      	adds	r3, r0, #0
    3a98:	1c0c      	adds	r4, r1, #0
    3a9a:	61bb      	str	r3, [r7, #24]
    3a9c:	61fc      	str	r4, [r7, #28]
/home/guilherme/Documents/GER-SDP/KDS/SDP-2016/Debug/../Sources/PID.c:32

	// derivative term
	d_term = get_derivative_state(pid, error);
    3a9e:	68fa      	ldr	r2, [r7, #12]
    3aa0:	683b      	ldr	r3, [r7, #0]
    3aa2:	687c      	ldr	r4, [r7, #4]
    3aa4:	1c10      	adds	r0, r2, #0
    3aa6:	1c1a      	adds	r2, r3, #0
    3aa8:	1c23      	adds	r3, r4, #0
    3aaa:	f000 f849 	bl	3b40 <get_derivative_state>
    3aae:	1c03      	adds	r3, r0, #0
    3ab0:	1c0c      	adds	r4, r1, #0
    3ab2:	613b      	str	r3, [r7, #16]
    3ab4:	617c      	str	r4, [r7, #20]
/home/guilherme/Documents/GER-SDP/KDS/SDP-2016/Debug/../Sources/PID.c:34

	pid->last_error = error;
    3ab6:	68fa      	ldr	r2, [r7, #12]
    3ab8:	683b      	ldr	r3, [r7, #0]
    3aba:	687c      	ldr	r4, [r7, #4]
    3abc:	6293      	str	r3, [r2, #40]	; 0x28
    3abe:	62d4      	str	r4, [r2, #44]	; 0x2c
/home/guilherme/Documents/GER-SDP/KDS/SDP-2016/Debug/../Sources/PID.c:36

	output = p_term + i_term + d_term;
    3ac0:	6a38      	ldr	r0, [r7, #32]
    3ac2:	6a79      	ldr	r1, [r7, #36]	; 0x24
    3ac4:	69ba      	ldr	r2, [r7, #24]
    3ac6:	69fb      	ldr	r3, [r7, #28]
    3ac8:	f7fd fd0a 	bl	14e0 <__aeabi_dadd>
    3acc:	1c03      	adds	r3, r0, #0
    3ace:	1c0c      	adds	r4, r1, #0
    3ad0:	1c18      	adds	r0, r3, #0
    3ad2:	1c21      	adds	r1, r4, #0
    3ad4:	693a      	ldr	r2, [r7, #16]
    3ad6:	697b      	ldr	r3, [r7, #20]
    3ad8:	f7fd fd02 	bl	14e0 <__aeabi_dadd>
    3adc:	1c03      	adds	r3, r0, #0
    3ade:	1c0c      	adds	r4, r1, #0
    3ae0:	62bb      	str	r3, [r7, #40]	; 0x28
    3ae2:	62fc      	str	r4, [r7, #44]	; 0x2c
/home/guilherme/Documents/GER-SDP/KDS/SDP-2016/Debug/../Sources/PID.c:39


	if (output < -1)
    3ae4:	6ab8      	ldr	r0, [r7, #40]	; 0x28
    3ae6:	6af9      	ldr	r1, [r7, #44]	; 0x2c
    3ae8:	4a11      	ldr	r2, [pc, #68]	; (3b30 <update_pid+0xf0>)
    3aea:	4b12      	ldr	r3, [pc, #72]	; (3b34 <update_pid+0xf4>)
    3aec:	f7fc fdc2 	bl	674 <__aeabi_dcmplt>
    3af0:	1c03      	adds	r3, r0, #0
    3af2:	2b00      	cmp	r3, #0
    3af4:	d004      	beq.n	3b00 <update_pid+0xc0>
/home/guilherme/Documents/GER-SDP/KDS/SDP-2016/Debug/../Sources/PID.c:41
	{
		output = -1;
    3af6:	4b0e      	ldr	r3, [pc, #56]	; (3b30 <update_pid+0xf0>)
    3af8:	4c0e      	ldr	r4, [pc, #56]	; (3b34 <update_pid+0xf4>)
    3afa:	62bb      	str	r3, [r7, #40]	; 0x28
    3afc:	62fc      	str	r4, [r7, #44]	; 0x2c
    3afe:	e00c      	b.n	3b1a <update_pid+0xda>
/home/guilherme/Documents/GER-SDP/KDS/SDP-2016/Debug/../Sources/PID.c:43
	}
	else if (output > 1)
    3b00:	6ab8      	ldr	r0, [r7, #40]	; 0x28
    3b02:	6af9      	ldr	r1, [r7, #44]	; 0x2c
    3b04:	4a0c      	ldr	r2, [pc, #48]	; (3b38 <update_pid+0xf8>)
    3b06:	4b0d      	ldr	r3, [pc, #52]	; (3b3c <update_pid+0xfc>)
    3b08:	f7fc fdc8 	bl	69c <__aeabi_dcmpgt>
    3b0c:	1c03      	adds	r3, r0, #0
    3b0e:	2b00      	cmp	r3, #0
    3b10:	d003      	beq.n	3b1a <update_pid+0xda>
/home/guilherme/Documents/GER-SDP/KDS/SDP-2016/Debug/../Sources/PID.c:45
	{
		output = 1;
    3b12:	4b09      	ldr	r3, [pc, #36]	; (3b38 <update_pid+0xf8>)
    3b14:	4c09      	ldr	r4, [pc, #36]	; (3b3c <update_pid+0xfc>)
    3b16:	62bb      	str	r3, [r7, #40]	; 0x28
    3b18:	62fc      	str	r4, [r7, #44]	; 0x2c
/home/guilherme/Documents/GER-SDP/KDS/SDP-2016/Debug/../Sources/PID.c:48
	}

	return output;
    3b1a:	6abb      	ldr	r3, [r7, #40]	; 0x28
    3b1c:	6afc      	ldr	r4, [r7, #44]	; 0x2c
/home/guilherme/Documents/GER-SDP/KDS/SDP-2016/Debug/../Sources/PID.c:49
}
    3b1e:	1c18      	adds	r0, r3, #0
    3b20:	1c21      	adds	r1, r4, #0
    3b22:	46bd      	mov	sp, r7
    3b24:	b00d      	add	sp, #52	; 0x34
    3b26:	bd90      	pop	{r4, r7, pc}
	...
    3b34:	bff00000 	.word	0xbff00000
    3b38:	00000000 	.word	0x00000000
    3b3c:	3ff00000 	.word	0x3ff00000

00003b40 <get_derivative_state>:
get_derivative_state():
/home/guilherme/Documents/GER-SDP/KDS/SDP-2016/Debug/../Sources/PID.c:52

double get_derivative_state(SPID *pid, double error)
{
    3b40:	b590      	push	{r4, r7, lr}
    3b42:	b085      	sub	sp, #20
    3b44:	af00      	add	r7, sp, #0
    3b46:	60f8      	str	r0, [r7, #12]
    3b48:	603a      	str	r2, [r7, #0]
    3b4a:	607b      	str	r3, [r7, #4]
/home/guilherme/Documents/GER-SDP/KDS/SDP-2016/Debug/../Sources/PID.c:53
	return (error - pid->last_error) * pid->d_gain;
    3b4c:	68fb      	ldr	r3, [r7, #12]
    3b4e:	6adc      	ldr	r4, [r3, #44]	; 0x2c
    3b50:	6a9b      	ldr	r3, [r3, #40]	; 0x28
    3b52:	6838      	ldr	r0, [r7, #0]
    3b54:	6879      	ldr	r1, [r7, #4]
    3b56:	1c1a      	adds	r2, r3, #0
    3b58:	1c23      	adds	r3, r4, #0
    3b5a:	f7fe fedd 	bl	2918 <__aeabi_dsub>
    3b5e:	1c03      	adds	r3, r0, #0
    3b60:	1c0c      	adds	r4, r1, #0
    3b62:	1c19      	adds	r1, r3, #0
    3b64:	1c22      	adds	r2, r4, #0
    3b66:	68fb      	ldr	r3, [r7, #12]
    3b68:	68dc      	ldr	r4, [r3, #12]
    3b6a:	689b      	ldr	r3, [r3, #8]
    3b6c:	1c08      	adds	r0, r1, #0
    3b6e:	1c11      	adds	r1, r2, #0
    3b70:	1c1a      	adds	r2, r3, #0
    3b72:	1c23      	adds	r3, r4, #0
    3b74:	f7fe fc40 	bl	23f8 <__aeabi_dmul>
    3b78:	1c03      	adds	r3, r0, #0
    3b7a:	1c0c      	adds	r4, r1, #0
/home/guilherme/Documents/GER-SDP/KDS/SDP-2016/Debug/../Sources/PID.c:54
}
    3b7c:	1c18      	adds	r0, r3, #0
    3b7e:	1c21      	adds	r1, r4, #0
    3b80:	46bd      	mov	sp, r7
    3b82:	b005      	add	sp, #20
    3b84:	bd90      	pop	{r4, r7, pc}
    3b86:	46c0      	nop			; (mov r8, r8)

00003b88 <get_integral_term>:
get_integral_term():
/home/guilherme/Documents/GER-SDP/KDS/SDP-2016/Debug/../Sources/PID.c:57

double get_integral_term(SPID * pid, double error)
{
    3b88:	b5f0      	push	{r4, r5, r6, r7, lr}
    3b8a:	b085      	sub	sp, #20
    3b8c:	af00      	add	r7, sp, #0
    3b8e:	60f8      	str	r0, [r7, #12]
    3b90:	603a      	str	r2, [r7, #0]
    3b92:	607b      	str	r3, [r7, #4]
/home/guilherme/Documents/GER-SDP/KDS/SDP-2016/Debug/../Sources/PID.c:59
	// Reset of i_state
	if (error < LIMIT_ERROR)
    3b94:	6838      	ldr	r0, [r7, #0]
    3b96:	6879      	ldr	r1, [r7, #4]
    3b98:	4b34      	ldr	r3, [pc, #208]	; (3c6c <get_integral_term+0xe4>)
    3b9a:	4a33      	ldr	r2, [pc, #204]	; (3c68 <get_integral_term+0xe0>)
    3b9c:	f7fc fd6a 	bl	674 <__aeabi_dcmplt>
    3ba0:	1c03      	adds	r3, r0, #0
    3ba2:	2b00      	cmp	r3, #0
    3ba4:	d004      	beq.n	3bb0 <get_integral_term+0x28>
/home/guilherme/Documents/GER-SDP/KDS/SDP-2016/Debug/../Sources/PID.c:61
	{
		pid->i_state = 0;
    3ba6:	68fa      	ldr	r2, [r7, #12]
    3ba8:	4b31      	ldr	r3, [pc, #196]	; (3c70 <get_integral_term+0xe8>)
    3baa:	4c32      	ldr	r4, [pc, #200]	; (3c74 <get_integral_term+0xec>)
    3bac:	6193      	str	r3, [r2, #24]
    3bae:	61d4      	str	r4, [r2, #28]
/home/guilherme/Documents/GER-SDP/KDS/SDP-2016/Debug/../Sources/PID.c:65
	}

	// calculate the integrator state
	pid->i_state += error;
    3bb0:	68fb      	ldr	r3, [r7, #12]
    3bb2:	69dc      	ldr	r4, [r3, #28]
    3bb4:	699b      	ldr	r3, [r3, #24]
    3bb6:	1c18      	adds	r0, r3, #0
    3bb8:	1c21      	adds	r1, r4, #0
    3bba:	683a      	ldr	r2, [r7, #0]
    3bbc:	687b      	ldr	r3, [r7, #4]
    3bbe:	f7fd fc8f 	bl	14e0 <__aeabi_dadd>
    3bc2:	1c03      	adds	r3, r0, #0
    3bc4:	1c0c      	adds	r4, r1, #0
    3bc6:	68fa      	ldr	r2, [r7, #12]
    3bc8:	6193      	str	r3, [r2, #24]
    3bca:	61d4      	str	r4, [r2, #28]
/home/guilherme/Documents/GER-SDP/KDS/SDP-2016/Debug/../Sources/PID.c:68

	// applies anti-windup
	if(pid->i_state > pid->i_max)
    3bcc:	68fb      	ldr	r3, [r7, #12]
    3bce:	699d      	ldr	r5, [r3, #24]
    3bd0:	69de      	ldr	r6, [r3, #28]
    3bd2:	68fb      	ldr	r3, [r7, #12]
    3bd4:	6a1b      	ldr	r3, [r3, #32]
    3bd6:	1c18      	adds	r0, r3, #0
    3bd8:	f7ff fa06 	bl	2fe8 <__aeabi_i2d>
    3bdc:	1c03      	adds	r3, r0, #0
    3bde:	1c0c      	adds	r4, r1, #0
    3be0:	1c28      	adds	r0, r5, #0
    3be2:	1c31      	adds	r1, r6, #0
    3be4:	1c1a      	adds	r2, r3, #0
    3be6:	1c23      	adds	r3, r4, #0
    3be8:	f7fc fd58 	bl	69c <__aeabi_dcmpgt>
    3bec:	1c03      	adds	r3, r0, #0
    3bee:	2b00      	cmp	r3, #0
    3bf0:	d00a      	beq.n	3c08 <get_integral_term+0x80>
/home/guilherme/Documents/GER-SDP/KDS/SDP-2016/Debug/../Sources/PID.c:70
	{
		pid->i_state = pid->i_max;
    3bf2:	68fb      	ldr	r3, [r7, #12]
    3bf4:	6a1b      	ldr	r3, [r3, #32]
    3bf6:	1c18      	adds	r0, r3, #0
    3bf8:	f7ff f9f6 	bl	2fe8 <__aeabi_i2d>
    3bfc:	1c03      	adds	r3, r0, #0
    3bfe:	1c0c      	adds	r4, r1, #0
    3c00:	68fa      	ldr	r2, [r7, #12]
    3c02:	6193      	str	r3, [r2, #24]
    3c04:	61d4      	str	r4, [r2, #28]
    3c06:	e01c      	b.n	3c42 <get_integral_term+0xba>
/home/guilherme/Documents/GER-SDP/KDS/SDP-2016/Debug/../Sources/PID.c:73
	}

	else if(pid->i_state < pid->i_min)
    3c08:	68fb      	ldr	r3, [r7, #12]
    3c0a:	699d      	ldr	r5, [r3, #24]
    3c0c:	69de      	ldr	r6, [r3, #28]
    3c0e:	68fb      	ldr	r3, [r7, #12]
    3c10:	6a5b      	ldr	r3, [r3, #36]	; 0x24
    3c12:	1c18      	adds	r0, r3, #0
    3c14:	f7ff f9e8 	bl	2fe8 <__aeabi_i2d>
    3c18:	1c03      	adds	r3, r0, #0
    3c1a:	1c0c      	adds	r4, r1, #0
    3c1c:	1c28      	adds	r0, r5, #0
    3c1e:	1c31      	adds	r1, r6, #0
    3c20:	1c1a      	adds	r2, r3, #0
    3c22:	1c23      	adds	r3, r4, #0
    3c24:	f7fc fd26 	bl	674 <__aeabi_dcmplt>
    3c28:	1c03      	adds	r3, r0, #0
    3c2a:	2b00      	cmp	r3, #0
    3c2c:	d009      	beq.n	3c42 <get_integral_term+0xba>
/home/guilherme/Documents/GER-SDP/KDS/SDP-2016/Debug/../Sources/PID.c:75
	{
		pid->i_state = pid->i_min;
    3c2e:	68fb      	ldr	r3, [r7, #12]
    3c30:	6a5b      	ldr	r3, [r3, #36]	; 0x24
    3c32:	1c18      	adds	r0, r3, #0
    3c34:	f7ff f9d8 	bl	2fe8 <__aeabi_i2d>
    3c38:	1c03      	adds	r3, r0, #0
    3c3a:	1c0c      	adds	r4, r1, #0
    3c3c:	68fa      	ldr	r2, [r7, #12]
    3c3e:	6193      	str	r3, [r2, #24]
    3c40:	61d4      	str	r4, [r2, #28]
/home/guilherme/Documents/GER-SDP/KDS/SDP-2016/Debug/../Sources/PID.c:78
	}
	// Return the integrative error.
	return pid->i_state * pid->i_gain;
    3c42:	68fb      	ldr	r3, [r7, #12]
    3c44:	6999      	ldr	r1, [r3, #24]
    3c46:	69da      	ldr	r2, [r3, #28]
    3c48:	68fb      	ldr	r3, [r7, #12]
    3c4a:	695c      	ldr	r4, [r3, #20]
    3c4c:	691b      	ldr	r3, [r3, #16]
    3c4e:	1c08      	adds	r0, r1, #0
    3c50:	1c11      	adds	r1, r2, #0
    3c52:	1c1a      	adds	r2, r3, #0
    3c54:	1c23      	adds	r3, r4, #0
    3c56:	f7fe fbcf 	bl	23f8 <__aeabi_dmul>
    3c5a:	1c03      	adds	r3, r0, #0
    3c5c:	1c0c      	adds	r4, r1, #0
/home/guilherme/Documents/GER-SDP/KDS/SDP-2016/Debug/../Sources/PID.c:79
}
    3c5e:	1c18      	adds	r0, r3, #0
    3c60:	1c21      	adds	r1, r4, #0
    3c62:	46bd      	mov	sp, r7
    3c64:	b005      	add	sp, #20
    3c66:	bdf0      	pop	{r4, r5, r6, r7, pc}
    3c68:	9999999a 	.word	0x9999999a
    3c6c:	3fb99999 	.word	0x3fb99999
	...

00003c78 <update_gains>:
update_gains():
/home/guilherme/Documents/GER-SDP/KDS/SDP-2016/Debug/../Sources/PID.c:82

void update_gains(SPID *pid)
{
    3c78:	b590      	push	{r4, r7, lr}
    3c7a:	b083      	sub	sp, #12
    3c7c:	af00      	add	r7, sp, #0
    3c7e:	6078      	str	r0, [r7, #4]
/home/guilherme/Documents/GER-SDP/KDS/SDP-2016/Debug/../Sources/PID.c:84
	// Proportional gain
	if (Switch1_GetVal())
    3c80:	4b25      	ldr	r3, [pc, #148]	; (3d18 <update_gains+0xa0>)
    3c82:	6d9b      	ldr	r3, [r3, #88]	; 0x58
    3c84:	1c18      	adds	r0, r3, #0
    3c86:	f000 feb1 	bl	49ec <BitIoLdd12_GetVal>
    3c8a:	1c03      	adds	r3, r0, #0
    3c8c:	2b00      	cmp	r3, #0
    3c8e:	d005      	beq.n	3c9c <update_gains+0x24>
/home/guilherme/Documents/GER-SDP/KDS/SDP-2016/Debug/../Sources/PID.c:86
	{
		pid->p_gain = P_DEFAUT_GAIN;
    3c90:	687a      	ldr	r2, [r7, #4]
    3c92:	4c1a      	ldr	r4, [pc, #104]	; (3cfc <update_gains+0x84>)
    3c94:	4b18      	ldr	r3, [pc, #96]	; (3cf8 <update_gains+0x80>)
    3c96:	6013      	str	r3, [r2, #0]
    3c98:	6054      	str	r4, [r2, #4]
    3c9a:	e004      	b.n	3ca6 <update_gains+0x2e>
/home/guilherme/Documents/GER-SDP/KDS/SDP-2016/Debug/../Sources/PID.c:90
	}
	else
	{
		pid->p_gain = 0;
    3c9c:	687a      	ldr	r2, [r7, #4]
    3c9e:	4b18      	ldr	r3, [pc, #96]	; (3d00 <update_gains+0x88>)
    3ca0:	4c18      	ldr	r4, [pc, #96]	; (3d04 <update_gains+0x8c>)
    3ca2:	6013      	str	r3, [r2, #0]
    3ca4:	6054      	str	r4, [r2, #4]
/home/guilherme/Documents/GER-SDP/KDS/SDP-2016/Debug/../Sources/PID.c:94
	}

	// Integrative gain
	if (Switch2_GetVal())
    3ca6:	4b1c      	ldr	r3, [pc, #112]	; (3d18 <update_gains+0xa0>)
    3ca8:	6ddb      	ldr	r3, [r3, #92]	; 0x5c
    3caa:	1c18      	adds	r0, r3, #0
    3cac:	f000 fedc 	bl	4a68 <BitIoLdd13_GetVal>
    3cb0:	1c03      	adds	r3, r0, #0
    3cb2:	2b00      	cmp	r3, #0
    3cb4:	d005      	beq.n	3cc2 <update_gains+0x4a>
/home/guilherme/Documents/GER-SDP/KDS/SDP-2016/Debug/../Sources/PID.c:96
	{
		pid->i_gain = I_DEFAUT_GAIN;
    3cb6:	687a      	ldr	r2, [r7, #4]
    3cb8:	4b13      	ldr	r3, [pc, #76]	; (3d08 <update_gains+0x90>)
    3cba:	4c14      	ldr	r4, [pc, #80]	; (3d0c <update_gains+0x94>)
    3cbc:	6113      	str	r3, [r2, #16]
    3cbe:	6154      	str	r4, [r2, #20]
    3cc0:	e004      	b.n	3ccc <update_gains+0x54>
/home/guilherme/Documents/GER-SDP/KDS/SDP-2016/Debug/../Sources/PID.c:100
	}
	else
	{
		pid->i_gain = 0;
    3cc2:	687a      	ldr	r2, [r7, #4]
    3cc4:	4b0e      	ldr	r3, [pc, #56]	; (3d00 <update_gains+0x88>)
    3cc6:	4c0f      	ldr	r4, [pc, #60]	; (3d04 <update_gains+0x8c>)
    3cc8:	6113      	str	r3, [r2, #16]
    3cca:	6154      	str	r4, [r2, #20]
/home/guilherme/Documents/GER-SDP/KDS/SDP-2016/Debug/../Sources/PID.c:104
	}

	// Derivative gain
	if (Switch3_GetVal())
    3ccc:	4b12      	ldr	r3, [pc, #72]	; (3d18 <update_gains+0xa0>)
    3cce:	6e1b      	ldr	r3, [r3, #96]	; 0x60
    3cd0:	1c18      	adds	r0, r3, #0
    3cd2:	f000 ff07 	bl	4ae4 <BitIoLdd14_GetVal>
    3cd6:	1c03      	adds	r3, r0, #0
    3cd8:	2b00      	cmp	r3, #0
    3cda:	d005      	beq.n	3ce8 <update_gains+0x70>
/home/guilherme/Documents/GER-SDP/KDS/SDP-2016/Debug/../Sources/PID.c:106
	{
		pid->d_gain = D_DEFAUT_GAIN;
    3cdc:	687a      	ldr	r2, [r7, #4]
    3cde:	4b0c      	ldr	r3, [pc, #48]	; (3d10 <update_gains+0x98>)
    3ce0:	4c0c      	ldr	r4, [pc, #48]	; (3d14 <update_gains+0x9c>)
    3ce2:	6093      	str	r3, [r2, #8]
    3ce4:	60d4      	str	r4, [r2, #12]
    3ce6:	e004      	b.n	3cf2 <update_gains+0x7a>
/home/guilherme/Documents/GER-SDP/KDS/SDP-2016/Debug/../Sources/PID.c:110
	}
	else
	{
		pid->d_gain = 0;
    3ce8:	687a      	ldr	r2, [r7, #4]
    3cea:	4b05      	ldr	r3, [pc, #20]	; (3d00 <update_gains+0x88>)
    3cec:	4c05      	ldr	r4, [pc, #20]	; (3d04 <update_gains+0x8c>)
    3cee:	6093      	str	r3, [r2, #8]
    3cf0:	60d4      	str	r4, [r2, #12]
/home/guilherme/Documents/GER-SDP/KDS/SDP-2016/Debug/../Sources/PID.c:114
	}


}
    3cf2:	46bd      	mov	sp, r7
    3cf4:	b003      	add	sp, #12
    3cf6:	bd90      	pop	{r4, r7, pc}
    3cf8:	9999999a 	.word	0x9999999a
    3cfc:	3fe99999 	.word	0x3fe99999
	...
    3d08:	33333333 	.word	0x33333333
    3d0c:	3fe33333 	.word	0x3fe33333
    3d10:	9999999a 	.word	0x9999999a
    3d14:	3fd99999 	.word	0x3fd99999
    3d18:	1ffff0d8 	.word	0x1ffff0d8
$t():
    3d1c:	46c0      	nop			; (mov r8, r8)
    3d1e:	46c0      	nop			; (mov r8, r8)

00003d20 <init_Serial>:
init_Serial():
/home/guilherme/Documents/GER-SDP/KDS/SDP-2016/Debug/../Sources/SerialCommunication.c:13
#include "SerialCommunication.h"

static Serial_Device deviceData;

static void init_Serial()
{
    3d20:	b580      	push	{r7, lr}
    3d22:	af00      	add	r7, sp, #0
/home/guilherme/Documents/GER-SDP/KDS/SDP-2016/Debug/../Sources/SerialCommunication.c:14
	deviceData.handle = SerialCom_Init(&deviceData); /* Initialization of serial component */
    3d24:	4b05      	ldr	r3, [pc, #20]	; (3d3c <init_Serial+0x1c>)
    3d26:	1c18      	adds	r0, r3, #0
    3d28:	f001 fd48 	bl	57bc <SerialCom_Init>
    3d2c:	1c02      	adds	r2, r0, #0
    3d2e:	4b03      	ldr	r3, [pc, #12]	; (3d3c <init_Serial+0x1c>)
    3d30:	601a      	str	r2, [r3, #0]
/home/guilherme/Documents/GER-SDP/KDS/SDP-2016/Debug/../Sources/SerialCommunication.c:15
	deviceData.isSent = FALSE;
    3d32:	4b02      	ldr	r3, [pc, #8]	; (3d3c <init_Serial+0x1c>)
    3d34:	2200      	movs	r2, #0
    3d36:	711a      	strb	r2, [r3, #4]
/home/guilherme/Documents/GER-SDP/KDS/SDP-2016/Debug/../Sources/SerialCommunication.c:16
}
    3d38:	46bd      	mov	sp, r7
    3d3a:	bd80      	pop	{r7, pc}
    3d3c:	1ffff07c 	.word	0x1ffff07c

00003d40 <sendAChar>:
sendAChar():
/home/guilherme/Documents/GER-SDP/KDS/SDP-2016/Debug/../Sources/SerialCommunication.c:19

static int sendAChar(unsigned char ch)
{
    3d40:	b580      	push	{r7, lr}
    3d42:	b082      	sub	sp, #8
    3d44:	af00      	add	r7, sp, #0
    3d46:	1c02      	adds	r2, r0, #0
    3d48:	1dfb      	adds	r3, r7, #7
    3d4a:	701a      	strb	r2, [r3, #0]
/home/guilherme/Documents/GER-SDP/KDS/SDP-2016/Debug/../Sources/SerialCommunication.c:20
	deviceData.isSent = FALSE;
    3d4c:	4b0c      	ldr	r3, [pc, #48]	; (3d80 <sendAChar+0x40>)
    3d4e:	2200      	movs	r2, #0
    3d50:	711a      	strb	r2, [r3, #4]
/home/guilherme/Documents/GER-SDP/KDS/SDP-2016/Debug/../Sources/SerialCommunication.c:21
	while(SerialCom_SendBlock(deviceData.handle, (LDD_TData*)&ch, 1)!= ERR_OK) {} /* Send char */
    3d52:	46c0      	nop			; (mov r8, r8)
/home/guilherme/Documents/GER-SDP/KDS/SDP-2016/Debug/../Sources/SerialCommunication.c:21 (discriminator 1)
    3d54:	4b0a      	ldr	r3, [pc, #40]	; (3d80 <sendAChar+0x40>)
    3d56:	681a      	ldr	r2, [r3, #0]
    3d58:	1dfb      	adds	r3, r7, #7
    3d5a:	1c10      	adds	r0, r2, #0
    3d5c:	1c19      	adds	r1, r3, #0
    3d5e:	2201      	movs	r2, #1
    3d60:	f001 fe04 	bl	596c <SerialCom_SendBlock>
    3d64:	1c03      	adds	r3, r0, #0
    3d66:	2b00      	cmp	r3, #0
    3d68:	d1f4      	bne.n	3d54 <sendAChar+0x14>
/home/guilherme/Documents/GER-SDP/KDS/SDP-2016/Debug/../Sources/SerialCommunication.c:22
	while(!deviceData.isSent) {} /* wait until we get the green flag from the TX interrupt */
    3d6a:	46c0      	nop			; (mov r8, r8)
/home/guilherme/Documents/GER-SDP/KDS/SDP-2016/Debug/../Sources/SerialCommunication.c:22 (discriminator 1)
    3d6c:	4b04      	ldr	r3, [pc, #16]	; (3d80 <sendAChar+0x40>)
    3d6e:	791b      	ldrb	r3, [r3, #4]
    3d70:	b2db      	uxtb	r3, r3
    3d72:	2b00      	cmp	r3, #0
    3d74:	d0fa      	beq.n	3d6c <sendAChar+0x2c>
/home/guilherme/Documents/GER-SDP/KDS/SDP-2016/Debug/../Sources/SerialCommunication.c:23
}
    3d76:	1c18      	adds	r0, r3, #0
    3d78:	46bd      	mov	sp, r7
    3d7a:	b002      	add	sp, #8
    3d7c:	bd80      	pop	{r7, pc}
    3d7e:	46c0      	nop			; (mov r8, r8)
    3d80:	1ffff07c 	.word	0x1ffff07c

00003d84 <itoa_8_bit>:
itoa_8_bit():
/home/guilherme/Documents/GER-SDP/KDS/SDP-2016/Debug/../Sources/SerialCommunication.c:43
		sendAChar(string[index++]);
	}
}

void itoa_8_bit(uint8 sample)
{
    3d84:	b580      	push	{r7, lr}
    3d86:	b088      	sub	sp, #32
    3d88:	af00      	add	r7, sp, #0
    3d8a:	1c02      	adds	r2, r0, #0
    3d8c:	1dfb      	adds	r3, r7, #7
    3d8e:	701a      	strb	r2, [r3, #0]
/home/guilherme/Documents/GER-SDP/KDS/SDP-2016/Debug/../Sources/SerialCommunication.c:53
	{
		sendAChar('E');
		return;
	}

	R1 = (unsigned char) (sample % 10) + '0';
    3d90:	1dfb      	adds	r3, r7, #7
    3d92:	781b      	ldrb	r3, [r3, #0]
    3d94:	1c18      	adds	r0, r3, #0
    3d96:	210a      	movs	r1, #10
    3d98:	f7fc fbea 	bl	570 <__aeabi_uidivmod>
    3d9c:	1c0b      	adds	r3, r1, #0
    3d9e:	b2da      	uxtb	r2, r3
    3da0:	1c3b      	adds	r3, r7, #0
    3da2:	331f      	adds	r3, #31
    3da4:	3230      	adds	r2, #48	; 0x30
    3da6:	701a      	strb	r2, [r3, #0]
/home/guilherme/Documents/GER-SDP/KDS/SDP-2016/Debug/../Sources/SerialCommunication.c:54
	Q1 = sample / 10;
    3da8:	1dfb      	adds	r3, r7, #7
    3daa:	781b      	ldrb	r3, [r3, #0]
    3dac:	1c18      	adds	r0, r3, #0
    3dae:	210a      	movs	r1, #10
    3db0:	f7fc fb9a 	bl	4e8 <__aeabi_uidiv>
    3db4:	1c03      	adds	r3, r0, #0
    3db6:	b2db      	uxtb	r3, r3
    3db8:	61bb      	str	r3, [r7, #24]
/home/guilherme/Documents/GER-SDP/KDS/SDP-2016/Debug/../Sources/SerialCommunication.c:56

	R2 = (unsigned char) (Q1 % 10) + '0';
    3dba:	69bb      	ldr	r3, [r7, #24]
    3dbc:	1c18      	adds	r0, r3, #0
    3dbe:	210a      	movs	r1, #10
    3dc0:	f7fc fc36 	bl	630 <__aeabi_idivmod>
    3dc4:	1c0b      	adds	r3, r1, #0
    3dc6:	b2da      	uxtb	r2, r3
    3dc8:	1c3b      	adds	r3, r7, #0
    3dca:	3317      	adds	r3, #23
    3dcc:	3230      	adds	r2, #48	; 0x30
    3dce:	701a      	strb	r2, [r3, #0]
/home/guilherme/Documents/GER-SDP/KDS/SDP-2016/Debug/../Sources/SerialCommunication.c:57
	Q2 = Q1 / 10;
    3dd0:	69bb      	ldr	r3, [r7, #24]
    3dd2:	1c18      	adds	r0, r3, #0
    3dd4:	210a      	movs	r1, #10
    3dd6:	f7fc fbd5 	bl	584 <__aeabi_idiv>
    3dda:	1c03      	adds	r3, r0, #0
    3ddc:	613b      	str	r3, [r7, #16]
/home/guilherme/Documents/GER-SDP/KDS/SDP-2016/Debug/../Sources/SerialCommunication.c:59

	R3 = (unsigned char) (Q2 % 10) + '0';
    3dde:	693b      	ldr	r3, [r7, #16]
    3de0:	1c18      	adds	r0, r3, #0
    3de2:	210a      	movs	r1, #10
    3de4:	f7fc fc24 	bl	630 <__aeabi_idivmod>
    3de8:	1c0b      	adds	r3, r1, #0
    3dea:	b2da      	uxtb	r2, r3
    3dec:	1c3b      	adds	r3, r7, #0
    3dee:	330f      	adds	r3, #15
    3df0:	3230      	adds	r2, #48	; 0x30
    3df2:	701a      	strb	r2, [r3, #0]
/home/guilherme/Documents/GER-SDP/KDS/SDP-2016/Debug/../Sources/SerialCommunication.c:61

	sendAChar(R3);
    3df4:	1c3b      	adds	r3, r7, #0
    3df6:	330f      	adds	r3, #15
    3df8:	781b      	ldrb	r3, [r3, #0]
    3dfa:	1c18      	adds	r0, r3, #0
    3dfc:	f7ff ffa0 	bl	3d40 <sendAChar>
/home/guilherme/Documents/GER-SDP/KDS/SDP-2016/Debug/../Sources/SerialCommunication.c:62
	sendAChar(R2);
    3e00:	1c3b      	adds	r3, r7, #0
    3e02:	3317      	adds	r3, #23
    3e04:	781b      	ldrb	r3, [r3, #0]
    3e06:	1c18      	adds	r0, r3, #0
    3e08:	f7ff ff9a 	bl	3d40 <sendAChar>
/home/guilherme/Documents/GER-SDP/KDS/SDP-2016/Debug/../Sources/SerialCommunication.c:63
	sendAChar(R1);
    3e0c:	1c3b      	adds	r3, r7, #0
    3e0e:	331f      	adds	r3, #31
    3e10:	781b      	ldrb	r3, [r3, #0]
    3e12:	1c18      	adds	r0, r3, #0
    3e14:	f7ff ff94 	bl	3d40 <sendAChar>
/home/guilherme/Documents/GER-SDP/KDS/SDP-2016/Debug/../Sources/SerialCommunication.c:64
}
    3e18:	46bd      	mov	sp, r7
    3e1a:	b008      	add	sp, #32
    3e1c:	bd80      	pop	{r7, pc}
    3e1e:	46c0      	nop			; (mov r8, r8)

00003e20 <sendArrayOfPixels>:
sendArrayOfPixels():
/home/guilherme/Documents/GER-SDP/KDS/SDP-2016/Debug/../Sources/SerialCommunication.c:67

void sendArrayOfPixels(uint8 array[])
{
    3e20:	b580      	push	{r7, lr}
    3e22:	b084      	sub	sp, #16
    3e24:	af00      	add	r7, sp, #0
    3e26:	6078      	str	r0, [r7, #4]
/home/guilherme/Documents/GER-SDP/KDS/SDP-2016/Debug/../Sources/SerialCommunication.c:68
	init_Serial();
    3e28:	f7ff ff7a 	bl	3d20 <init_Serial>
/home/guilherme/Documents/GER-SDP/KDS/SDP-2016/Debug/../Sources/SerialCommunication.c:70

	for (int pixel = 0; pixel < 128; pixel++)
    3e2c:	2300      	movs	r3, #0
    3e2e:	60fb      	str	r3, [r7, #12]
    3e30:	e00c      	b.n	3e4c <sendArrayOfPixels+0x2c>
/home/guilherme/Documents/GER-SDP/KDS/SDP-2016/Debug/../Sources/SerialCommunication.c:72 (discriminator 2)
	{
		itoa_8_bit(array[pixel]);
    3e32:	68fb      	ldr	r3, [r7, #12]
    3e34:	687a      	ldr	r2, [r7, #4]
    3e36:	18d3      	adds	r3, r2, r3
    3e38:	781b      	ldrb	r3, [r3, #0]
    3e3a:	1c18      	adds	r0, r3, #0
    3e3c:	f7ff ffa2 	bl	3d84 <itoa_8_bit>
/home/guilherme/Documents/GER-SDP/KDS/SDP-2016/Debug/../Sources/SerialCommunication.c:73 (discriminator 2)
		sendAChar(' ');
    3e40:	2020      	movs	r0, #32
    3e42:	f7ff ff7d 	bl	3d40 <sendAChar>
/home/guilherme/Documents/GER-SDP/KDS/SDP-2016/Debug/../Sources/SerialCommunication.c:70 (discriminator 2)

void sendArrayOfPixels(uint8 array[])
{
	init_Serial();

	for (int pixel = 0; pixel < 128; pixel++)
    3e46:	68fb      	ldr	r3, [r7, #12]
    3e48:	3301      	adds	r3, #1
    3e4a:	60fb      	str	r3, [r7, #12]
/home/guilherme/Documents/GER-SDP/KDS/SDP-2016/Debug/../Sources/SerialCommunication.c:70 (discriminator 1)
    3e4c:	68fb      	ldr	r3, [r7, #12]
    3e4e:	2b7f      	cmp	r3, #127	; 0x7f
    3e50:	ddef      	ble.n	3e32 <sendArrayOfPixels+0x12>
/home/guilherme/Documents/GER-SDP/KDS/SDP-2016/Debug/../Sources/SerialCommunication.c:76
	{
		itoa_8_bit(array[pixel]);
		sendAChar(' ');
	}

	sendAChar('\n');
    3e52:	200a      	movs	r0, #10
    3e54:	f7ff ff74 	bl	3d40 <sendAChar>
/home/guilherme/Documents/GER-SDP/KDS/SDP-2016/Debug/../Sources/SerialCommunication.c:77
	sendAChar('\r');
    3e58:	200d      	movs	r0, #13
    3e5a:	f7ff ff71 	bl	3d40 <sendAChar>
/home/guilherme/Documents/GER-SDP/KDS/SDP-2016/Debug/../Sources/SerialCommunication.c:79

	serialFinished = TRUE;
    3e5e:	4b03      	ldr	r3, [pc, #12]	; (3e6c <sendArrayOfPixels+0x4c>)
    3e60:	2201      	movs	r2, #1
    3e62:	701a      	strb	r2, [r3, #0]
/home/guilherme/Documents/GER-SDP/KDS/SDP-2016/Debug/../Sources/SerialCommunication.c:80
}
    3e64:	46bd      	mov	sp, r7
    3e66:	b004      	add	sp, #16
    3e68:	bd80      	pop	{r7, pc}
    3e6a:	46c0      	nop			; (mov r8, r8)
    3e6c:	1ffff1c8 	.word	0x1ffff1c8

00003e70 <setServoDirection>:
setServoDirection():
/home/guilherme/Documents/GER-SDP/KDS/SDP-2016/Debug/../Sources/ServoController.c:19
 *    Positive values: Turn right (max: 350)
 *
 *    Wait 480 ms between two calls of this function
 */
void setServoDirection(int direction)
{
    3e70:	b580      	push	{r7, lr}
    3e72:	b082      	sub	sp, #8
    3e74:	af00      	add	r7, sp, #0
    3e76:	6078      	str	r0, [r7, #4]
/home/guilherme/Documents/GER-SDP/KDS/SDP-2016/Debug/../Sources/ServoController.c:20
	if (direction < -RATE || direction > RATE)
    3e78:	687a      	ldr	r2, [r7, #4]
    3e7a:	4b0b      	ldr	r3, [pc, #44]	; (3ea8 <setServoDirection+0x38>)
    3e7c:	429a      	cmp	r2, r3
    3e7e:	db04      	blt.n	3e8a <setServoDirection+0x1a>
/home/guilherme/Documents/GER-SDP/KDS/SDP-2016/Debug/../Sources/ServoController.c:20 (discriminator 1)
    3e80:	687a      	ldr	r2, [r7, #4]
    3e82:	23af      	movs	r3, #175	; 0xaf
    3e84:	005b      	lsls	r3, r3, #1
    3e86:	429a      	cmp	r2, r3
    3e88:	dd00      	ble.n	3e8c <setServoDirection+0x1c>
/home/guilherme/Documents/GER-SDP/KDS/SDP-2016/Debug/../Sources/ServoController.c:22
	{
		return;
    3e8a:	e00a      	b.n	3ea2 <setServoDirection+0x32>
/home/guilherme/Documents/GER-SDP/KDS/SDP-2016/Debug/../Sources/ServoController.c:25
	}

	Servomotor_SetDutyUS(CENTER - direction);
    3e8c:	4b07      	ldr	r3, [pc, #28]	; (3eac <setServoDirection+0x3c>)
    3e8e:	6b5a      	ldr	r2, [r3, #52]	; 0x34
    3e90:	687b      	ldr	r3, [r7, #4]
    3e92:	b29b      	uxth	r3, r3
    3e94:	4906      	ldr	r1, [pc, #24]	; (3eb0 <setServoDirection+0x40>)
    3e96:	1acb      	subs	r3, r1, r3
    3e98:	b29b      	uxth	r3, r3
    3e9a:	1c10      	adds	r0, r2, #0
    3e9c:	1c19      	adds	r1, r3, #0
    3e9e:	f001 fc1b 	bl	56d8 <PwmLdd5_SetDutyUS>
/home/guilherme/Documents/GER-SDP/KDS/SDP-2016/Debug/../Sources/ServoController.c:26
}
    3ea2:	46bd      	mov	sp, r7
    3ea4:	b002      	add	sp, #8
    3ea6:	bd80      	pop	{r7, pc}
    3ea8:	fffffea2 	.word	0xfffffea2
    3eac:	1ffff0d8 	.word	0x1ffff0d8
    3eb0:	00004876 	.word	0x00004876
$d():
    3eb4:	00000000 	.word	0x00000000

00003eb8 <advancedControl>:
advancedControl():
/home/guilherme/Documents/GER-SDP/KDS/SDP-2016/Debug/../Sources/SystemController.c:14
#include "GreenLED.h"

#define MAX_PWM 80

void advancedControl(double pid_output)
{
    3eb8:	b5b0      	push	{r4, r5, r7, lr}
    3eba:	b088      	sub	sp, #32
    3ebc:	af00      	add	r7, sp, #0
    3ebe:	6038      	str	r0, [r7, #0]
    3ec0:	6079      	str	r1, [r7, #4]
/home/guilherme/Documents/GER-SDP/KDS/SDP-2016/Debug/../Sources/SystemController.c:17
	int pwm_left, pwm_right;

	int servo_parameter = (int) (pid_output * 350.0);
    3ec2:	6838      	ldr	r0, [r7, #0]
    3ec4:	6879      	ldr	r1, [r7, #4]
    3ec6:	4b15      	ldr	r3, [pc, #84]	; (3f1c <advancedControl+0x64>)
    3ec8:	4a13      	ldr	r2, [pc, #76]	; (3f18 <advancedControl+0x60>)
    3eca:	f7fe fa95 	bl	23f8 <__aeabi_dmul>
    3ece:	1c03      	adds	r3, r0, #0
    3ed0:	1c0c      	adds	r4, r1, #0
    3ed2:	1c18      	adds	r0, r3, #0
    3ed4:	1c21      	adds	r1, r4, #0
    3ed6:	f7ff f853 	bl	2f80 <__aeabi_d2iz>
    3eda:	1c03      	adds	r3, r0, #0
    3edc:	61fb      	str	r3, [r7, #28]
/home/guilherme/Documents/GER-SDP/KDS/SDP-2016/Debug/../Sources/SystemController.c:18
	dc_motors_normalization(pid_output, &pwm_left, &pwm_right);
    3ede:	683b      	ldr	r3, [r7, #0]
    3ee0:	687c      	ldr	r4, [r7, #4]
    3ee2:	1c3a      	adds	r2, r7, #0
    3ee4:	3210      	adds	r2, #16
    3ee6:	1c3d      	adds	r5, r7, #0
    3ee8:	350c      	adds	r5, #12
    3eea:	1c18      	adds	r0, r3, #0
    3eec:	1c21      	adds	r1, r4, #0
    3eee:	1c2b      	adds	r3, r5, #0
    3ef0:	f000 f816 	bl	3f20 <dc_motors_normalization>
/home/guilherme/Documents/GER-SDP/KDS/SDP-2016/Debug/../Sources/SystemController.c:19
	int left_motor_parameter = pwm_left;
    3ef4:	693b      	ldr	r3, [r7, #16]
    3ef6:	61bb      	str	r3, [r7, #24]
/home/guilherme/Documents/GER-SDP/KDS/SDP-2016/Debug/../Sources/SystemController.c:20
	int right_motor_parameter = pwm_right;
    3ef8:	68fb      	ldr	r3, [r7, #12]
    3efa:	617b      	str	r3, [r7, #20]
/home/guilherme/Documents/GER-SDP/KDS/SDP-2016/Debug/../Sources/SystemController.c:22

	setServoDirection(servo_parameter);
    3efc:	69fb      	ldr	r3, [r7, #28]
    3efe:	1c18      	adds	r0, r3, #0
    3f00:	f7ff ffb6 	bl	3e70 <setServoDirection>
/home/guilherme/Documents/GER-SDP/KDS/SDP-2016/Debug/../Sources/SystemController.c:23
	setMotorsSpeed(left_motor_parameter, right_motor_parameter);
    3f04:	69ba      	ldr	r2, [r7, #24]
    3f06:	697b      	ldr	r3, [r7, #20]
    3f08:	1c10      	adds	r0, r2, #0
    3f0a:	1c19      	adds	r1, r3, #0
    3f0c:	f7ff fd18 	bl	3940 <setMotorsSpeed>
/home/guilherme/Documents/GER-SDP/KDS/SDP-2016/Debug/../Sources/SystemController.c:25

}
    3f10:	46bd      	mov	sp, r7
    3f12:	b008      	add	sp, #32
    3f14:	bdb0      	pop	{r4, r5, r7, pc}
    3f16:	46c0      	nop			; (mov r8, r8)
    3f18:	00000000 	.word	0x00000000
    3f1c:	4075e000 	.word	0x4075e000

00003f20 <dc_motors_normalization>:
dc_motors_normalization():
/home/guilherme/Documents/GER-SDP/KDS/SDP-2016/Debug/../Sources/SystemController.c:28

void dc_motors_normalization(double pid_output, int * pwm_left, int * pwm_right)
{
    3f20:	b590      	push	{r4, r7, lr}
    3f22:	b085      	sub	sp, #20
    3f24:	af00      	add	r7, sp, #0
    3f26:	60b8      	str	r0, [r7, #8]
    3f28:	60f9      	str	r1, [r7, #12]
    3f2a:	607a      	str	r2, [r7, #4]
    3f2c:	603b      	str	r3, [r7, #0]
/home/guilherme/Documents/GER-SDP/KDS/SDP-2016/Debug/../Sources/SystemController.c:30

    if(pid_output <= 0)
    3f2e:	68b8      	ldr	r0, [r7, #8]
    3f30:	68f9      	ldr	r1, [r7, #12]
    3f32:	4b20      	ldr	r3, [pc, #128]	; (3fb4 <dc_motors_normalization+0x94>)
    3f34:	4a1e      	ldr	r2, [pc, #120]	; (3fb0 <dc_motors_normalization+0x90>)
    3f36:	f7fc fba7 	bl	688 <__aeabi_dcmple>
    3f3a:	1c03      	adds	r3, r0, #0
    3f3c:	2b00      	cmp	r3, #0
    3f3e:	d01a      	beq.n	3f76 <dc_motors_normalization+0x56>
/home/guilherme/Documents/GER-SDP/KDS/SDP-2016/Debug/../Sources/SystemController.c:33
    {

        (* pwm_right) =  MAX_PWM;
    3f40:	683b      	ldr	r3, [r7, #0]
    3f42:	2250      	movs	r2, #80	; 0x50
    3f44:	601a      	str	r2, [r3, #0]
/home/guilherme/Documents/GER-SDP/KDS/SDP-2016/Debug/../Sources/SystemController.c:34
        (* pwm_left) = (int)((pid_output + 1) * MAX_PWM);
    3f46:	68b8      	ldr	r0, [r7, #8]
    3f48:	68f9      	ldr	r1, [r7, #12]
    3f4a:	4a1b      	ldr	r2, [pc, #108]	; (3fb8 <dc_motors_normalization+0x98>)
    3f4c:	4b1b      	ldr	r3, [pc, #108]	; (3fbc <dc_motors_normalization+0x9c>)
    3f4e:	f7fd fac7 	bl	14e0 <__aeabi_dadd>
    3f52:	1c03      	adds	r3, r0, #0
    3f54:	1c0c      	adds	r4, r1, #0
    3f56:	1c18      	adds	r0, r3, #0
    3f58:	1c21      	adds	r1, r4, #0
    3f5a:	4a19      	ldr	r2, [pc, #100]	; (3fc0 <dc_motors_normalization+0xa0>)
    3f5c:	4b19      	ldr	r3, [pc, #100]	; (3fc4 <dc_motors_normalization+0xa4>)
    3f5e:	f7fe fa4b 	bl	23f8 <__aeabi_dmul>
    3f62:	1c03      	adds	r3, r0, #0
    3f64:	1c0c      	adds	r4, r1, #0
    3f66:	1c18      	adds	r0, r3, #0
    3f68:	1c21      	adds	r1, r4, #0
    3f6a:	f7ff f809 	bl	2f80 <__aeabi_d2iz>
    3f6e:	1c02      	adds	r2, r0, #0
    3f70:	687b      	ldr	r3, [r7, #4]
    3f72:	601a      	str	r2, [r3, #0]
    3f74:	e019      	b.n	3faa <dc_motors_normalization+0x8a>
/home/guilherme/Documents/GER-SDP/KDS/SDP-2016/Debug/../Sources/SystemController.c:40

    }
    else
    {

        (* pwm_left) = MAX_PWM;
    3f76:	687b      	ldr	r3, [r7, #4]
    3f78:	2250      	movs	r2, #80	; 0x50
    3f7a:	601a      	str	r2, [r3, #0]
/home/guilherme/Documents/GER-SDP/KDS/SDP-2016/Debug/../Sources/SystemController.c:41
        (* pwm_right) = (int)((1 - pid_output) * MAX_PWM);
    3f7c:	480e      	ldr	r0, [pc, #56]	; (3fb8 <dc_motors_normalization+0x98>)
    3f7e:	490f      	ldr	r1, [pc, #60]	; (3fbc <dc_motors_normalization+0x9c>)
    3f80:	68ba      	ldr	r2, [r7, #8]
    3f82:	68fb      	ldr	r3, [r7, #12]
    3f84:	f7fe fcc8 	bl	2918 <__aeabi_dsub>
    3f88:	1c03      	adds	r3, r0, #0
    3f8a:	1c0c      	adds	r4, r1, #0
    3f8c:	1c18      	adds	r0, r3, #0
    3f8e:	1c21      	adds	r1, r4, #0
    3f90:	4a0b      	ldr	r2, [pc, #44]	; (3fc0 <dc_motors_normalization+0xa0>)
    3f92:	4b0c      	ldr	r3, [pc, #48]	; (3fc4 <dc_motors_normalization+0xa4>)
    3f94:	f7fe fa30 	bl	23f8 <__aeabi_dmul>
    3f98:	1c03      	adds	r3, r0, #0
    3f9a:	1c0c      	adds	r4, r1, #0
    3f9c:	1c18      	adds	r0, r3, #0
    3f9e:	1c21      	adds	r1, r4, #0
    3fa0:	f7fe ffee 	bl	2f80 <__aeabi_d2iz>
    3fa4:	1c02      	adds	r2, r0, #0
    3fa6:	683b      	ldr	r3, [r7, #0]
    3fa8:	601a      	str	r2, [r3, #0]
/home/guilherme/Documents/GER-SDP/KDS/SDP-2016/Debug/../Sources/SystemController.c:44

    }
}
    3faa:	46bd      	mov	sp, r7
    3fac:	b005      	add	sp, #20
    3fae:	bd90      	pop	{r4, r7, pc}
	...
    3fbc:	3ff00000 	.word	0x3ff00000
    3fc0:	00000000 	.word	0x00000000
    3fc4:	40540000 	.word	0x40540000

00003fc8 <main>:
main():
/home/guilherme/Documents/GER-SDP/KDS/SDP-2016/Debug/../Sources/main.c:105


/*lint -save  -e970 Disable MISRA rule (6.3) checking. */
int main(void)
/*lint -restore Enable_Motors MISRA rule (6.3) checking. */
{
    3fc8:	b590      	push	{r4, r7, lr}
    3fca:	b0bb      	sub	sp, #236	; 0xec
    3fcc:	af00      	add	r7, sp, #0
/home/guilherme/Documents/GER-SDP/KDS/SDP-2016/Debug/../Sources/main.c:108
	uint8 image[128];
	uint8 lef, rig;
	char str_lef[] = "\n\rLeft: ";
    3fce:	1c3b      	adds	r3, r7, #0
    3fd0:	3344      	adds	r3, #68	; 0x44
    3fd2:	4a47      	ldr	r2, [pc, #284]	; (40f0 <main+0x128>)
    3fd4:	ca03      	ldmia	r2!, {r0, r1}
    3fd6:	c303      	stmia	r3!, {r0, r1}
    3fd8:	7812      	ldrb	r2, [r2, #0]
    3fda:	701a      	strb	r2, [r3, #0]
/home/guilherme/Documents/GER-SDP/KDS/SDP-2016/Debug/../Sources/main.c:109
	char str_rig[] = "\n\rRig: ";
    3fdc:	1c3b      	adds	r3, r7, #0
    3fde:	333c      	adds	r3, #60	; 0x3c
    3fe0:	4a44      	ldr	r2, [pc, #272]	; (40f4 <main+0x12c>)
    3fe2:	ca03      	ldmia	r2!, {r0, r1}
    3fe4:	c303      	stmia	r3!, {r0, r1}
/home/guilherme/Documents/GER-SDP/KDS/SDP-2016/Debug/../Sources/main.c:115
	SPID pid_controller;
	double pid_error, pid_output;


	/*** Processor Expert internal initialization. DON'T REMOVE THIS CODE!!! ***/
	PE_low_level_init();
    3fe6:	f001 f8a9 	bl	513c <PE_low_level_init>
/home/guilherme/Documents/GER-SDP/KDS/SDP-2016/Debug/../Sources/main.c:119
	/*** End of Processor Expert internal initialization.                    ***/


	Camera_CLK_Interruption_Enable();
    3fea:	4b43      	ldr	r3, [pc, #268]	; (40f8 <main+0x130>)
    3fec:	68db      	ldr	r3, [r3, #12]
    3fee:	1c18      	adds	r0, r3, #0
    3ff0:	f002 f858 	bl	60a4 <TimerIntLdd1_Enable>
/home/guilherme/Documents/GER-SDP/KDS/SDP-2016/Debug/../Sources/main.c:122

	// Enables motors
	Enable_Motors_SetVal();
    3ff4:	4b40      	ldr	r3, [pc, #256]	; (40f8 <main+0x130>)
    3ff6:	699b      	ldr	r3, [r3, #24]
    3ff8:	1c18      	adds	r0, r3, #0
    3ffa:	f000 fe57 	bl	4cac <BitIoLdd4_SetVal>
/home/guilherme/Documents/GER-SDP/KDS/SDP-2016/Debug/../Sources/main.c:124

	Servomotor_Enable();
    3ffe:	4b3e      	ldr	r3, [pc, #248]	; (40f8 <main+0x130>)
    4000:	6b5b      	ldr	r3, [r3, #52]	; 0x34
    4002:	1c18      	adds	r0, r3, #0
    4004:	f001 fb50 	bl	56a8 <PwmLdd5_Enable>
/home/guilherme/Documents/GER-SDP/KDS/SDP-2016/Debug/../Sources/main.c:127

	// Setar as contantes do pid.
	resetPID(&pid_controller);
    4008:	1c3b      	adds	r3, r7, #0
    400a:	1c18      	adds	r0, r3, #0
    400c:	f7ff fcfc 	bl	3a08 <resetPID>
/home/guilherme/Documents/GER-SDP/KDS/SDP-2016/Debug/../Sources/main.c:130

	// Wait for the SW2 button to be pressed
	while (!SW2_Start_Button_GetVal())
    4010:	e008      	b.n	4024 <main+0x5c>
/home/guilherme/Documents/GER-SDP/KDS/SDP-2016/Debug/../Sources/main.c:132
	{
		getRawImageMean(1);
    4012:	2001      	movs	r0, #1
    4014:	f7ff fa64 	bl	34e0 <getRawImageMean>
/home/guilherme/Documents/GER-SDP/KDS/SDP-2016/Debug/../Sources/main.c:133
		sendArrayOfPixels(rawImage);
    4018:	4b38      	ldr	r3, [pc, #224]	; (40fc <main+0x134>)
    401a:	1c18      	adds	r0, r3, #0
    401c:	f7ff ff00 	bl	3e20 <sendArrayOfPixels>
/home/guilherme/Documents/GER-SDP/KDS/SDP-2016/Debug/../Sources/main.c:134
		updateBatteryLevel();
    4020:	f7ff f91c 	bl	325c <updateBatteryLevel>
/home/guilherme/Documents/GER-SDP/KDS/SDP-2016/Debug/../Sources/main.c:130 (discriminator 1)

	// Setar as contantes do pid.
	resetPID(&pid_controller);

	// Wait for the SW2 button to be pressed
	while (!SW2_Start_Button_GetVal())
    4024:	4b34      	ldr	r3, [pc, #208]	; (40f8 <main+0x130>)
    4026:	6b9b      	ldr	r3, [r3, #56]	; 0x38
    4028:	1c18      	adds	r0, r3, #0
    402a:	f000 fdf7 	bl	4c1c <BitIoLdd3_GetVal>
    402e:	1c03      	adds	r3, r0, #0
    4030:	2b00      	cmp	r3, #0
    4032:	d0ee      	beq.n	4012 <main+0x4a>
/home/guilherme/Documents/GER-SDP/KDS/SDP-2016/Debug/../Sources/main.c:137
		getRawImageMean(1);
		sendArrayOfPixels(rawImage);
		updateBatteryLevel();
	}

	while(SW2_Start_Button_GetVal());
    4034:	46c0      	nop			; (mov r8, r8)
/home/guilherme/Documents/GER-SDP/KDS/SDP-2016/Debug/../Sources/main.c:137 (discriminator 1)
    4036:	4b30      	ldr	r3, [pc, #192]	; (40f8 <main+0x130>)
    4038:	6b9b      	ldr	r3, [r3, #56]	; 0x38
    403a:	1c18      	adds	r0, r3, #0
    403c:	f000 fdee 	bl	4c1c <BitIoLdd3_GetVal>
    4040:	1c03      	adds	r3, r0, #0
    4042:	2b00      	cmp	r3, #0
    4044:	d1f7      	bne.n	4036 <main+0x6e>
/home/guilherme/Documents/GER-SDP/KDS/SDP-2016/Debug/../Sources/main.c:139

	calibration();
    4046:	f7ff fbb5 	bl	37b4 <calibration>
/home/guilherme/Documents/GER-SDP/KDS/SDP-2016/Debug/../Sources/main.c:141

	while (!SW2_Start_Button_GetVal());
    404a:	46c0      	nop			; (mov r8, r8)
/home/guilherme/Documents/GER-SDP/KDS/SDP-2016/Debug/../Sources/main.c:141 (discriminator 1)
    404c:	4b2a      	ldr	r3, [pc, #168]	; (40f8 <main+0x130>)
    404e:	6b9b      	ldr	r3, [r3, #56]	; 0x38
    4050:	1c18      	adds	r0, r3, #0
    4052:	f000 fde3 	bl	4c1c <BitIoLdd3_GetVal>
    4056:	1c03      	adds	r3, r0, #0
    4058:	2b00      	cmp	r3, #0
    405a:	d0f7      	beq.n	404c <main+0x84>
/home/guilherme/Documents/GER-SDP/KDS/SDP-2016/Debug/../Sources/main.c:142
	while(SW2_Start_Button_GetVal());
    405c:	46c0      	nop			; (mov r8, r8)
/home/guilherme/Documents/GER-SDP/KDS/SDP-2016/Debug/../Sources/main.c:142 (discriminator 1)
    405e:	4b26      	ldr	r3, [pc, #152]	; (40f8 <main+0x130>)
    4060:	6b9b      	ldr	r3, [r3, #56]	; 0x38
    4062:	1c18      	adds	r0, r3, #0
    4064:	f000 fdda 	bl	4c1c <BitIoLdd3_GetVal>
    4068:	1c03      	adds	r3, r0, #0
    406a:	2b00      	cmp	r3, #0
    406c:	d1f7      	bne.n	405e <main+0x96>
/home/guilherme/Documents/GER-SDP/KDS/SDP-2016/Debug/../Sources/main.c:145

	// test of binarization
	while (0)
    406e:	46c0      	nop			; (mov r8, r8)
/home/guilherme/Documents/GER-SDP/KDS/SDP-2016/Debug/../Sources/main.c:183
	}

	// Program Loop
	while (TRUE)
	{
		getRawImageMean(1);
    4070:	2001      	movs	r0, #1
    4072:	f7ff fa35 	bl	34e0 <getRawImageMean>
/home/guilherme/Documents/GER-SDP/KDS/SDP-2016/Debug/../Sources/main.c:185

		binarization(image);
    4076:	1c3b      	adds	r3, r7, #0
    4078:	3350      	adds	r3, #80	; 0x50
    407a:	1c18      	adds	r0, r3, #0
    407c:	f7ff fbb8 	bl	37f0 <binarization>
/home/guilherme/Documents/GER-SDP/KDS/SDP-2016/Debug/../Sources/main.c:190

		//sendArrayOfPixels(image);

		// obtem o erro atual
		pid_error = get_error(image);
    4080:	1c3b      	adds	r3, r7, #0
    4082:	3350      	adds	r3, #80	; 0x50
    4084:	1c18      	adds	r0, r3, #0
    4086:	f7ff fa9d 	bl	35c4 <get_error>
    408a:	1c03      	adds	r3, r0, #0
    408c:	1c0c      	adds	r4, r1, #0
    408e:	22d8      	movs	r2, #216	; 0xd8
    4090:	19d2      	adds	r2, r2, r7
    4092:	6013      	str	r3, [r2, #0]
    4094:	6054      	str	r4, [r2, #4]
/home/guilherme/Documents/GER-SDP/KDS/SDP-2016/Debug/../Sources/main.c:193

		// obtem a saida do pid
		pid_output = update_pid(&pid_controller, pid_error);
    4096:	1c3a      	adds	r2, r7, #0
    4098:	20d8      	movs	r0, #216	; 0xd8
    409a:	19c0      	adds	r0, r0, r7
    409c:	6803      	ldr	r3, [r0, #0]
    409e:	6844      	ldr	r4, [r0, #4]
    40a0:	1c10      	adds	r0, r2, #0
    40a2:	1c1a      	adds	r2, r3, #0
    40a4:	1c23      	adds	r3, r4, #0
    40a6:	f7ff fccb 	bl	3a40 <update_pid>
    40aa:	1c03      	adds	r3, r0, #0
    40ac:	1c0c      	adds	r4, r1, #0
    40ae:	21d0      	movs	r1, #208	; 0xd0
    40b0:	19c9      	adds	r1, r1, r7
    40b2:	600b      	str	r3, [r1, #0]
    40b4:	604c      	str	r4, [r1, #4]
/home/guilherme/Documents/GER-SDP/KDS/SDP-2016/Debug/../Sources/main.c:196

		// atua sobre a resposta do pid
		advancedControl(pid_output);
    40b6:	22d0      	movs	r2, #208	; 0xd0
    40b8:	19d2      	adds	r2, r2, r7
    40ba:	6813      	ldr	r3, [r2, #0]
    40bc:	6854      	ldr	r4, [r2, #4]
    40be:	1c18      	adds	r0, r3, #0
    40c0:	1c21      	adds	r1, r4, #0
    40c2:	f7ff fef9 	bl	3eb8 <advancedControl>
/home/guilherme/Documents/GER-SDP/KDS/SDP-2016/Debug/../Sources/main.c:199

		// delay for the servo// Melhorar isso
		for (int i = 0; i < 50000; i++);
    40c6:	2300      	movs	r3, #0
    40c8:	20e4      	movs	r0, #228	; 0xe4
    40ca:	19c0      	adds	r0, r0, r7
    40cc:	6003      	str	r3, [r0, #0]
    40ce:	e006      	b.n	40de <main+0x116>
/home/guilherme/Documents/GER-SDP/KDS/SDP-2016/Debug/../Sources/main.c:199 (discriminator 2)
    40d0:	21e4      	movs	r1, #228	; 0xe4
    40d2:	19c9      	adds	r1, r1, r7
    40d4:	680b      	ldr	r3, [r1, #0]
    40d6:	3301      	adds	r3, #1
    40d8:	22e4      	movs	r2, #228	; 0xe4
    40da:	19d2      	adds	r2, r2, r7
    40dc:	6013      	str	r3, [r2, #0]
/home/guilherme/Documents/GER-SDP/KDS/SDP-2016/Debug/../Sources/main.c:199 (discriminator 1)
    40de:	23e4      	movs	r3, #228	; 0xe4
    40e0:	19db      	adds	r3, r3, r7
    40e2:	681a      	ldr	r2, [r3, #0]
    40e4:	4b06      	ldr	r3, [pc, #24]	; (4100 <main+0x138>)
    40e6:	429a      	cmp	r2, r3
    40e8:	ddf2      	ble.n	40d0 <main+0x108>
/home/guilherme/Documents/GER-SDP/KDS/SDP-2016/Debug/../Sources/main.c:202

		// Update the battery indicator LED
		updateBatteryLevel();
    40ea:	f7ff f8b7 	bl	325c <updateBatteryLevel>
/home/guilherme/Documents/GER-SDP/KDS/SDP-2016/Debug/../Sources/main.c:204
		//sendBatteryLevel();
	}
    40ee:	e7bf      	b.n	4070 <main+0xa8>
    40f0:	000061c4 	.word	0x000061c4
    40f4:	000061d0 	.word	0x000061d0
    40f8:	1ffff0d8 	.word	0x1ffff0d8
    40fc:	1ffff1e0 	.word	0x1ffff1e0
    4100:	0000c34f 	.word	0x0000c34f

00004104 <__copy_rom_section>:
__copy_rom_section():
/home/guilherme/Documents/GER-SDP/KDS/SDP-2016/Debug/../Project_Settings/Startup_Code/startup.c:44

/*
 *	Routine to copy a single section from ROM to RAM ...
 */
void __copy_rom_section(unsigned long dst, unsigned long src, unsigned long size)
{
    4104:	b580      	push	{r7, lr}
    4106:	b08a      	sub	sp, #40	; 0x28
    4108:	af00      	add	r7, sp, #0
    410a:	60f8      	str	r0, [r7, #12]
    410c:	60b9      	str	r1, [r7, #8]
    410e:	607a      	str	r2, [r7, #4]
/home/guilherme/Documents/GER-SDP/KDS/SDP-2016/Debug/../Project_Settings/Startup_Code/startup.c:45
	unsigned long len = size;
    4110:	687b      	ldr	r3, [r7, #4]
    4112:	627b      	str	r3, [r7, #36]	; 0x24
/home/guilherme/Documents/GER-SDP/KDS/SDP-2016/Debug/../Project_Settings/Startup_Code/startup.c:47

	const unsigned int size_int = sizeof(int);
    4114:	2304      	movs	r3, #4
    4116:	623b      	str	r3, [r7, #32]
/home/guilherme/Documents/GER-SDP/KDS/SDP-2016/Debug/../Project_Settings/Startup_Code/startup.c:48
	const unsigned int mask_int = sizeof(int)-1;
    4118:	2303      	movs	r3, #3
    411a:	61fb      	str	r3, [r7, #28]
/home/guilherme/Documents/GER-SDP/KDS/SDP-2016/Debug/../Project_Settings/Startup_Code/startup.c:50

	const unsigned int size_short = sizeof(short);
    411c:	2302      	movs	r3, #2
    411e:	61bb      	str	r3, [r7, #24]
/home/guilherme/Documents/GER-SDP/KDS/SDP-2016/Debug/../Project_Settings/Startup_Code/startup.c:51
	const unsigned int mask_short = sizeof(short)-1;
    4120:	2301      	movs	r3, #1
    4122:	617b      	str	r3, [r7, #20]
/home/guilherme/Documents/GER-SDP/KDS/SDP-2016/Debug/../Project_Settings/Startup_Code/startup.c:53

	const unsigned int size_char = sizeof(char);
    4124:	2301      	movs	r3, #1
    4126:	613b      	str	r3, [r7, #16]
/home/guilherme/Documents/GER-SDP/KDS/SDP-2016/Debug/../Project_Settings/Startup_Code/startup.c:55

	if( dst == src || size == 0)
    4128:	68fa      	ldr	r2, [r7, #12]
    412a:	68bb      	ldr	r3, [r7, #8]
    412c:	429a      	cmp	r2, r3
    412e:	d002      	beq.n	4136 <__copy_rom_section+0x32>
/home/guilherme/Documents/GER-SDP/KDS/SDP-2016/Debug/../Project_Settings/Startup_Code/startup.c:55 (discriminator 1)
    4130:	687b      	ldr	r3, [r7, #4]
    4132:	2b00      	cmp	r3, #0
    4134:	d100      	bne.n	4138 <__copy_rom_section+0x34>
/home/guilherme/Documents/GER-SDP/KDS/SDP-2016/Debug/../Project_Settings/Startup_Code/startup.c:57
	{
		return;
    4136:	e04d      	b.n	41d4 <__copy_rom_section+0xd0>
/home/guilherme/Documents/GER-SDP/KDS/SDP-2016/Debug/../Project_Settings/Startup_Code/startup.c:61
	}


	while( len > 0)
    4138:	e049      	b.n	41ce <__copy_rom_section+0xca>
/home/guilherme/Documents/GER-SDP/KDS/SDP-2016/Debug/../Project_Settings/Startup_Code/startup.c:64
	{

		if( !(src & mask_int) && !(dst & mask_int) && len >= size_int)
    413a:	68bb      	ldr	r3, [r7, #8]
    413c:	69fa      	ldr	r2, [r7, #28]
    413e:	4013      	ands	r3, r2
    4140:	d118      	bne.n	4174 <__copy_rom_section+0x70>
/home/guilherme/Documents/GER-SDP/KDS/SDP-2016/Debug/../Project_Settings/Startup_Code/startup.c:64 (discriminator 1)
    4142:	68fb      	ldr	r3, [r7, #12]
    4144:	69fa      	ldr	r2, [r7, #28]
    4146:	4013      	ands	r3, r2
    4148:	d114      	bne.n	4174 <__copy_rom_section+0x70>
    414a:	6a7a      	ldr	r2, [r7, #36]	; 0x24
    414c:	6a3b      	ldr	r3, [r7, #32]
    414e:	429a      	cmp	r2, r3
    4150:	d310      	bcc.n	4174 <__copy_rom_section+0x70>
/home/guilherme/Documents/GER-SDP/KDS/SDP-2016/Debug/../Project_Settings/Startup_Code/startup.c:66
		{
			*((int *)dst)  = *((int*)src);
    4152:	68fb      	ldr	r3, [r7, #12]
    4154:	68ba      	ldr	r2, [r7, #8]
    4156:	6812      	ldr	r2, [r2, #0]
    4158:	601a      	str	r2, [r3, #0]
/home/guilherme/Documents/GER-SDP/KDS/SDP-2016/Debug/../Project_Settings/Startup_Code/startup.c:67
			dst += size_int;
    415a:	68fa      	ldr	r2, [r7, #12]
    415c:	6a3b      	ldr	r3, [r7, #32]
    415e:	18d3      	adds	r3, r2, r3
    4160:	60fb      	str	r3, [r7, #12]
/home/guilherme/Documents/GER-SDP/KDS/SDP-2016/Debug/../Project_Settings/Startup_Code/startup.c:68
			src += size_int;
    4162:	68ba      	ldr	r2, [r7, #8]
    4164:	6a3b      	ldr	r3, [r7, #32]
    4166:	18d3      	adds	r3, r2, r3
    4168:	60bb      	str	r3, [r7, #8]
/home/guilherme/Documents/GER-SDP/KDS/SDP-2016/Debug/../Project_Settings/Startup_Code/startup.c:69
			len -= size_int;
    416a:	6a7a      	ldr	r2, [r7, #36]	; 0x24
    416c:	6a3b      	ldr	r3, [r7, #32]
    416e:	1ad3      	subs	r3, r2, r3
    4170:	627b      	str	r3, [r7, #36]	; 0x24
    4172:	e02c      	b.n	41ce <__copy_rom_section+0xca>
/home/guilherme/Documents/GER-SDP/KDS/SDP-2016/Debug/../Project_Settings/Startup_Code/startup.c:71
		}
		else if( !(src & mask_short) && !(dst & mask_short) && len >= size_short)
    4174:	68bb      	ldr	r3, [r7, #8]
    4176:	697a      	ldr	r2, [r7, #20]
    4178:	4013      	ands	r3, r2
    417a:	d118      	bne.n	41ae <__copy_rom_section+0xaa>
/home/guilherme/Documents/GER-SDP/KDS/SDP-2016/Debug/../Project_Settings/Startup_Code/startup.c:71 (discriminator 1)
    417c:	68fb      	ldr	r3, [r7, #12]
    417e:	697a      	ldr	r2, [r7, #20]
    4180:	4013      	ands	r3, r2
    4182:	d114      	bne.n	41ae <__copy_rom_section+0xaa>
    4184:	6a7a      	ldr	r2, [r7, #36]	; 0x24
    4186:	69bb      	ldr	r3, [r7, #24]
    4188:	429a      	cmp	r2, r3
    418a:	d310      	bcc.n	41ae <__copy_rom_section+0xaa>
/home/guilherme/Documents/GER-SDP/KDS/SDP-2016/Debug/../Project_Settings/Startup_Code/startup.c:73
		{
			*((short *)dst)  = *((short*)src);
    418c:	68fb      	ldr	r3, [r7, #12]
    418e:	68ba      	ldr	r2, [r7, #8]
    4190:	8812      	ldrh	r2, [r2, #0]
    4192:	801a      	strh	r2, [r3, #0]
/home/guilherme/Documents/GER-SDP/KDS/SDP-2016/Debug/../Project_Settings/Startup_Code/startup.c:74
			dst += size_short;
    4194:	68fa      	ldr	r2, [r7, #12]
    4196:	69bb      	ldr	r3, [r7, #24]
    4198:	18d3      	adds	r3, r2, r3
    419a:	60fb      	str	r3, [r7, #12]
/home/guilherme/Documents/GER-SDP/KDS/SDP-2016/Debug/../Project_Settings/Startup_Code/startup.c:75
			src += size_short;
    419c:	68ba      	ldr	r2, [r7, #8]
    419e:	69bb      	ldr	r3, [r7, #24]
    41a0:	18d3      	adds	r3, r2, r3
    41a2:	60bb      	str	r3, [r7, #8]
/home/guilherme/Documents/GER-SDP/KDS/SDP-2016/Debug/../Project_Settings/Startup_Code/startup.c:76
			len -= size_short;
    41a4:	6a7a      	ldr	r2, [r7, #36]	; 0x24
    41a6:	69bb      	ldr	r3, [r7, #24]
    41a8:	1ad3      	subs	r3, r2, r3
    41aa:	627b      	str	r3, [r7, #36]	; 0x24
    41ac:	e00f      	b.n	41ce <__copy_rom_section+0xca>
/home/guilherme/Documents/GER-SDP/KDS/SDP-2016/Debug/../Project_Settings/Startup_Code/startup.c:80
		}
		else
		{
			*((char *)dst)  = *((char*)src);
    41ae:	68fb      	ldr	r3, [r7, #12]
    41b0:	68ba      	ldr	r2, [r7, #8]
    41b2:	7812      	ldrb	r2, [r2, #0]
    41b4:	701a      	strb	r2, [r3, #0]
/home/guilherme/Documents/GER-SDP/KDS/SDP-2016/Debug/../Project_Settings/Startup_Code/startup.c:81
			dst += size_char;
    41b6:	68fa      	ldr	r2, [r7, #12]
    41b8:	693b      	ldr	r3, [r7, #16]
    41ba:	18d3      	adds	r3, r2, r3
    41bc:	60fb      	str	r3, [r7, #12]
/home/guilherme/Documents/GER-SDP/KDS/SDP-2016/Debug/../Project_Settings/Startup_Code/startup.c:82
			src += size_char;
    41be:	68ba      	ldr	r2, [r7, #8]
    41c0:	693b      	ldr	r3, [r7, #16]
    41c2:	18d3      	adds	r3, r2, r3
    41c4:	60bb      	str	r3, [r7, #8]
/home/guilherme/Documents/GER-SDP/KDS/SDP-2016/Debug/../Project_Settings/Startup_Code/startup.c:83
			len -= size_char;
    41c6:	6a7a      	ldr	r2, [r7, #36]	; 0x24
    41c8:	693b      	ldr	r3, [r7, #16]
    41ca:	1ad3      	subs	r3, r2, r3
    41cc:	627b      	str	r3, [r7, #36]	; 0x24
/home/guilherme/Documents/GER-SDP/KDS/SDP-2016/Debug/../Project_Settings/Startup_Code/startup.c:61 (discriminator 1)
	{
		return;
	}


	while( len > 0)
    41ce:	6a7b      	ldr	r3, [r7, #36]	; 0x24
    41d0:	2b00      	cmp	r3, #0
    41d2:	d1b2      	bne.n	413a <__copy_rom_section+0x36>
/home/guilherme/Documents/GER-SDP/KDS/SDP-2016/Debug/../Project_Settings/Startup_Code/startup.c:86
			dst += size_char;
			src += size_char;
			len -= size_char;
		}
	}
}
    41d4:	46bd      	mov	sp, r7
    41d6:	b00a      	add	sp, #40	; 0x28
    41d8:	bd80      	pop	{r7, pc}
    41da:	46c0      	nop			; (mov r8, r8)

000041dc <__copy_rom_sections_to_ram>:
__copy_rom_sections_to_ram():
/home/guilherme/Documents/GER-SDP/KDS/SDP-2016/Debug/../Project_Settings/Startup_Code/startup.c:98
 *  It is a table of RomInfo
 *	structures.  The final entry in the table has all-zero
 *	fields.
 */
void __copy_rom_sections_to_ram(void)
{
    41dc:	b590      	push	{r4, r7, lr}
    41de:	b083      	sub	sp, #12
    41e0:	af00      	add	r7, sp, #0
/home/guilherme/Documents/GER-SDP/KDS/SDP-2016/Debug/../Project_Settings/Startup_Code/startup.c:102

	int				index;

	if (__S_romp == 0L) return;
    41e2:	4b23      	ldr	r3, [pc, #140]	; (4270 <__copy_rom_sections_to_ram+0x94>)
    41e4:	2b00      	cmp	r3, #0
    41e6:	d100      	bne.n	41ea <__copy_rom_sections_to_ram+0xe>
/home/guilherme/Documents/GER-SDP/KDS/SDP-2016/Debug/../Project_Settings/Startup_Code/startup.c:102 (discriminator 1)
    41e8:	e03e      	b.n	4268 <__copy_rom_sections_to_ram+0x8c>
/home/guilherme/Documents/GER-SDP/KDS/SDP-2016/Debug/../Project_Settings/Startup_Code/startup.c:107

	/*
	 *	Go through the entire table, copying sections from ROM to RAM.
	 */
	for (index = 0;
    41ea:	2300      	movs	r3, #0
    41ec:	607b      	str	r3, [r7, #4]
    41ee:	e01d      	b.n	422c <__copy_rom_sections_to_ram+0x50>
/home/guilherme/Documents/GER-SDP/KDS/SDP-2016/Debug/../Project_Settings/Startup_Code/startup.c:113
		 __S_romp[index].Source != 0 ||
		 __S_romp[index].Target != 0 ||
		 __S_romp[index].Size != 0;
		 ++index)
	{
		__copy_rom_section( __S_romp[index].Target,
    41f0:	491f      	ldr	r1, [pc, #124]	; (4270 <__copy_rom_sections_to_ram+0x94>)
    41f2:	687a      	ldr	r2, [r7, #4]
    41f4:	1c13      	adds	r3, r2, #0
    41f6:	005b      	lsls	r3, r3, #1
    41f8:	189b      	adds	r3, r3, r2
    41fa:	009b      	lsls	r3, r3, #2
    41fc:	18cb      	adds	r3, r1, r3
    41fe:	6858      	ldr	r0, [r3, #4]
    4200:	491b      	ldr	r1, [pc, #108]	; (4270 <__copy_rom_sections_to_ram+0x94>)
    4202:	687a      	ldr	r2, [r7, #4]
    4204:	1c13      	adds	r3, r2, #0
    4206:	005b      	lsls	r3, r3, #1
    4208:	189b      	adds	r3, r3, r2
    420a:	009b      	lsls	r3, r3, #2
    420c:	5859      	ldr	r1, [r3, r1]
    420e:	4c18      	ldr	r4, [pc, #96]	; (4270 <__copy_rom_sections_to_ram+0x94>)
    4210:	687a      	ldr	r2, [r7, #4]
    4212:	1c13      	adds	r3, r2, #0
    4214:	005b      	lsls	r3, r3, #1
    4216:	189b      	adds	r3, r3, r2
    4218:	009b      	lsls	r3, r3, #2
    421a:	18e3      	adds	r3, r4, r3
    421c:	3308      	adds	r3, #8
    421e:	681b      	ldr	r3, [r3, #0]
    4220:	1c1a      	adds	r2, r3, #0
    4222:	f7ff ff6f 	bl	4104 <__copy_rom_section>
/home/guilherme/Documents/GER-SDP/KDS/SDP-2016/Debug/../Project_Settings/Startup_Code/startup.c:111
	 */
	for (index = 0;
		 __S_romp[index].Source != 0 ||
		 __S_romp[index].Target != 0 ||
		 __S_romp[index].Size != 0;
		 ++index)
    4226:	687b      	ldr	r3, [r7, #4]
    4228:	3301      	adds	r3, #1
    422a:	607b      	str	r3, [r7, #4]
/home/guilherme/Documents/GER-SDP/KDS/SDP-2016/Debug/../Project_Settings/Startup_Code/startup.c:108 (discriminator 1)

	/*
	 *	Go through the entire table, copying sections from ROM to RAM.
	 */
	for (index = 0;
		 __S_romp[index].Source != 0 ||
    422c:	4910      	ldr	r1, [pc, #64]	; (4270 <__copy_rom_sections_to_ram+0x94>)
    422e:	687a      	ldr	r2, [r7, #4]
    4230:	1c13      	adds	r3, r2, #0
    4232:	005b      	lsls	r3, r3, #1
    4234:	189b      	adds	r3, r3, r2
    4236:	009b      	lsls	r3, r3, #2
    4238:	585b      	ldr	r3, [r3, r1]
/home/guilherme/Documents/GER-SDP/KDS/SDP-2016/Debug/../Project_Settings/Startup_Code/startup.c:107 (discriminator 1)
	if (__S_romp == 0L) return;

	/*
	 *	Go through the entire table, copying sections from ROM to RAM.
	 */
	for (index = 0;
    423a:	2b00      	cmp	r3, #0
    423c:	d1d8      	bne.n	41f0 <__copy_rom_sections_to_ram+0x14>
/home/guilherme/Documents/GER-SDP/KDS/SDP-2016/Debug/../Project_Settings/Startup_Code/startup.c:109
		 __S_romp[index].Source != 0 ||
		 __S_romp[index].Target != 0 ||
    423e:	490c      	ldr	r1, [pc, #48]	; (4270 <__copy_rom_sections_to_ram+0x94>)
    4240:	687a      	ldr	r2, [r7, #4]
    4242:	1c13      	adds	r3, r2, #0
    4244:	005b      	lsls	r3, r3, #1
    4246:	189b      	adds	r3, r3, r2
    4248:	009b      	lsls	r3, r3, #2
    424a:	18cb      	adds	r3, r1, r3
    424c:	685b      	ldr	r3, [r3, #4]
/home/guilherme/Documents/GER-SDP/KDS/SDP-2016/Debug/../Project_Settings/Startup_Code/startup.c:108

	/*
	 *	Go through the entire table, copying sections from ROM to RAM.
	 */
	for (index = 0;
		 __S_romp[index].Source != 0 ||
    424e:	2b00      	cmp	r3, #0
    4250:	d1ce      	bne.n	41f0 <__copy_rom_sections_to_ram+0x14>
/home/guilherme/Documents/GER-SDP/KDS/SDP-2016/Debug/../Project_Settings/Startup_Code/startup.c:110
		 __S_romp[index].Target != 0 ||
		 __S_romp[index].Size != 0;
    4252:	4907      	ldr	r1, [pc, #28]	; (4270 <__copy_rom_sections_to_ram+0x94>)
    4254:	687a      	ldr	r2, [r7, #4]
    4256:	1c13      	adds	r3, r2, #0
    4258:	005b      	lsls	r3, r3, #1
    425a:	189b      	adds	r3, r3, r2
    425c:	009b      	lsls	r3, r3, #2
    425e:	18cb      	adds	r3, r1, r3
    4260:	3308      	adds	r3, #8
    4262:	681b      	ldr	r3, [r3, #0]
/home/guilherme/Documents/GER-SDP/KDS/SDP-2016/Debug/../Project_Settings/Startup_Code/startup.c:109
	/*
	 *	Go through the entire table, copying sections from ROM to RAM.
	 */
	for (index = 0;
		 __S_romp[index].Source != 0 ||
		 __S_romp[index].Target != 0 ||
    4264:	2b00      	cmp	r3, #0
    4266:	d1c3      	bne.n	41f0 <__copy_rom_sections_to_ram+0x14>
/home/guilherme/Documents/GER-SDP/KDS/SDP-2016/Debug/../Project_Settings/Startup_Code/startup.c:118
		__copy_rom_section( __S_romp[index].Target,
							__S_romp[index].Source,
							__S_romp[index].Size );

	}
}
    4268:	46bd      	mov	sp, r7
    426a:	b003      	add	sp, #12
    426c:	bd90      	pop	{r4, r7, pc}
    426e:	46c0      	nop			; (mov r8, r8)
    4270:	0000638c 	.word	0x0000638c

00004274 <__init_registers>:
__init_registers():
/home/guilherme/Documents/GER-SDP/KDS/SDP-2016/Debug/../Project_Settings/Startup_Code/startup.c:168
  }
}
#endif

void __attribute__ ((weak)) __init_registers(void)
{
    4274:	b580      	push	{r7, lr}
    4276:	af00      	add	r7, sp, #0
/home/guilherme/Documents/GER-SDP/KDS/SDP-2016/Debug/../Project_Settings/Startup_Code/startup.c:174
  #if defined(SCB_CPACR)
  /* Initialize FPU */
  SCB_CPACR |= SCB_CPACR_CP10(3U) | SCB_CPACR_CP11(3U); 
  #endif

}
    4278:	46bd      	mov	sp, r7
    427a:	bd80      	pop	{r7, pc}

0000427c <__init_user>:
__init_user():
/home/guilherme/Documents/GER-SDP/KDS/SDP-2016/Debug/../Project_Settings/Startup_Code/startup.c:182
{

}

void __attribute__ ((weak)) __init_user(void)
{
    427c:	b580      	push	{r7, lr}
    427e:	af00      	add	r7, sp, #0
/home/guilherme/Documents/GER-SDP/KDS/SDP-2016/Debug/../Project_Settings/Startup_Code/startup.c:184

}
    4280:	46bd      	mov	sp, r7
    4282:	bd80      	pop	{r7, pc}

00004284 <__thumb_startup>:
__thumb_startup():
/home/guilherme/Documents/GER-SDP/KDS/SDP-2016/Debug/../Project_Settings/Startup_Code/startup.c:197
	__thumb_startup();
}

__attribute__((naked)) void __thumb_startup(void)
{
int addr = (int)__SP_INIT;
    4284:	4c0a      	ldr	r4, [pc, #40]	; (42b0 <skip_sp+0x18>)
/home/guilherme/Documents/GER-SDP/KDS/SDP-2016/Debug/../Project_Settings/Startup_Code/startup.c:202

    /* setup the stack before we attempt anything else
       skip stack setup if __SP_INIT is 0
       assume sp is already setup. */
    __asm (
    4286:	1c20      	adds	r0, r4, #0
    4288:	2800      	cmp	r0, #0
    428a:	d005      	beq.n	4298 <skip_sp>
    428c:	4685      	mov	sp, r0
    428e:	b081      	sub	sp, #4
    4290:	2000      	movs	r0, #0
    4292:	43c0      	mvns	r0, r0
    4294:	9000      	str	r0, [sp, #0]
    4296:	b001      	add	sp, #4

00004298 <skip_sp>:
/home/guilherme/Documents/GER-SDP/KDS/SDP-2016/Debug/../Project_Settings/Startup_Code/startup.c:216
    "add  sp,#4\n\t"
    "skip_sp:\n\t"
    ::"r"(addr));

    /* Setup registers */
    __init_registers();
    4298:	f7ff ffec 	bl	4274 <__init_registers>
/home/guilherme/Documents/GER-SDP/KDS/SDP-2016/Debug/../Project_Settings/Startup_Code/startup.c:219
    
    /* setup hardware */
    __init_hardware();
    429c:	f000 fec6 	bl	502c <__init_hardware>
/home/guilherme/Documents/GER-SDP/KDS/SDP-2016/Debug/../Project_Settings/Startup_Code/startup.c:222
    
    /* SUPPORT_ROM_TO_RAM */
    __copy_rom_sections_to_ram();
    42a0:	f7ff ff9c 	bl	41dc <__copy_rom_sections_to_ram>
/home/guilherme/Documents/GER-SDP/KDS/SDP-2016/Debug/../Project_Settings/Startup_Code/startup.c:225
    
    /* initializations before main, user specific */
    __init_user();
    42a4:	f7ff ffea 	bl	427c <__init_user>
/home/guilherme/Documents/GER-SDP/KDS/SDP-2016/Debug/../Project_Settings/Startup_Code/startup.c:228

#ifndef __ATOLLIC__
    _start();
    42a8:	f7fc f8e2 	bl	470 <_mainCRTStartup>
/home/guilherme/Documents/GER-SDP/KDS/SDP-2016/Debug/../Project_Settings/Startup_Code/startup.c:238 (discriminator 1)
    __libc_init_array();
    main();
#endif

    /*	should never get here */
    while (1);
    42ac:	e7fe      	b.n	42ac <skip_sp+0x14>
    42ae:	46c0      	nop			; (mov r8, r8)
    42b0:	20003000 	.word	0x20003000

000042b4 <ClrSumV>:
ClrSumV():
/home/guilherme/Documents/GER-SDP/KDS/SDP-2016/Debug/../Generated_Code/AD_Converter.c:133
**         number of last conversions.
**         This method is internal. It is used by Processor Expert only.
** ===================================================================
*/
static void ClrSumV(void)
{
    42b4:	b580      	push	{r7, lr}
    42b6:	af00      	add	r7, sp, #0
/home/guilherme/Documents/GER-SDP/KDS/SDP-2016/Debug/../Generated_Code/AD_Converter.c:134
  AD_Converter_OutV[0] = 0U;           /* Set variable for storing measured values to 0 */
    42b8:	4b03      	ldr	r3, [pc, #12]	; (42c8 <ClrSumV+0x14>)
    42ba:	2200      	movs	r2, #0
    42bc:	701a      	strb	r2, [r3, #0]
/home/guilherme/Documents/GER-SDP/KDS/SDP-2016/Debug/../Generated_Code/AD_Converter.c:135
  AD_Converter_OutV[1] = 0U;           /* Set variable for storing measured values to 0 */
    42be:	4b02      	ldr	r3, [pc, #8]	; (42c8 <ClrSumV+0x14>)
    42c0:	2200      	movs	r2, #0
    42c2:	705a      	strb	r2, [r3, #1]
/home/guilherme/Documents/GER-SDP/KDS/SDP-2016/Debug/../Generated_Code/AD_Converter.c:136
}
    42c4:	46bd      	mov	sp, r7
    42c6:	bd80      	pop	{r7, pc}
    42c8:	1ffff364 	.word	0x1ffff364

000042cc <AD_Converter_HWEnDi>:
AD_Converter_HWEnDi():
/home/guilherme/Documents/GER-SDP/KDS/SDP-2016/Debug/../Generated_Code/AD_Converter.c:150
**         Enable and Disable methods and several internal methods.
**         This method is internal. It is used by Processor Expert only.
** ===================================================================
*/
void AD_Converter_HWEnDi(void)
{
    42cc:	b580      	push	{r7, lr}
    42ce:	af00      	add	r7, sp, #0
/home/guilherme/Documents/GER-SDP/KDS/SDP-2016/Debug/../Generated_Code/AD_Converter.c:151
  if (ModeFlg) {                       /* Start or stop measurement? */
    42d0:	4b1e      	ldr	r3, [pc, #120]	; (434c <AD_Converter_HWEnDi+0x80>)
    42d2:	781b      	ldrb	r3, [r3, #0]
    42d4:	b2db      	uxtb	r3, r3
    42d6:	2b00      	cmp	r3, #0
    42d8:	d036      	beq.n	4348 <AD_Converter_HWEnDi+0x7c>
/home/guilherme/Documents/GER-SDP/KDS/SDP-2016/Debug/../Generated_Code/AD_Converter.c:152
    if (ModeFlg != SINGLE) {
    42da:	4b1c      	ldr	r3, [pc, #112]	; (434c <AD_Converter_HWEnDi+0x80>)
    42dc:	781b      	ldrb	r3, [r3, #0]
    42de:	b2db      	uxtb	r3, r3
    42e0:	2b03      	cmp	r3, #3
    42e2:	d00b      	beq.n	42fc <AD_Converter_HWEnDi+0x30>
/home/guilherme/Documents/GER-SDP/KDS/SDP-2016/Debug/../Generated_Code/AD_Converter.c:153
      OutFlg = 0U;                     /* Output values aren't available */
    42e4:	4b1a      	ldr	r3, [pc, #104]	; (4350 <AD_Converter_HWEnDi+0x84>)
    42e6:	2200      	movs	r2, #0
    42e8:	701a      	strb	r2, [r3, #0]
/home/guilherme/Documents/GER-SDP/KDS/SDP-2016/Debug/../Generated_Code/AD_Converter.c:154
      SumChan = 0U;                    /* Set the counter of measured channels to 0 */
    42ea:	4b1a      	ldr	r3, [pc, #104]	; (4354 <AD_Converter_HWEnDi+0x88>)
    42ec:	2200      	movs	r2, #0
    42ee:	701a      	strb	r2, [r3, #0]
/home/guilherme/Documents/GER-SDP/KDS/SDP-2016/Debug/../Generated_Code/AD_Converter.c:155
      ClrSumV();                       /* Clear measured values */
    42f0:	f7ff ffe0 	bl	42b4 <ClrSumV>
/home/guilherme/Documents/GER-SDP/KDS/SDP-2016/Debug/../Generated_Code/AD_Converter.c:156
      SampleGroup[0].ChannelIdx = 0U;
    42f4:	4b18      	ldr	r3, [pc, #96]	; (4358 <AD_Converter_HWEnDi+0x8c>)
    42f6:	2200      	movs	r2, #0
    42f8:	701a      	strb	r2, [r3, #0]
    42fa:	e018      	b.n	432e <AD_Converter_HWEnDi+0x62>
/home/guilherme/Documents/GER-SDP/KDS/SDP-2016/Debug/../Generated_Code/AD_Converter.c:159
    }
    else {
      OutFlg &= (byte)(~(byte)Table[SumChan]); /* Output value isn't available */
    42fc:	4b15      	ldr	r3, [pc, #84]	; (4354 <AD_Converter_HWEnDi+0x88>)
    42fe:	781b      	ldrb	r3, [r3, #0]
    4300:	b2db      	uxtb	r3, r3
    4302:	4a16      	ldr	r2, [pc, #88]	; (435c <AD_Converter_HWEnDi+0x90>)
    4304:	5cd3      	ldrb	r3, [r2, r3]
    4306:	43db      	mvns	r3, r3
    4308:	b2db      	uxtb	r3, r3
    430a:	4a11      	ldr	r2, [pc, #68]	; (4350 <AD_Converter_HWEnDi+0x84>)
    430c:	7812      	ldrb	r2, [r2, #0]
    430e:	b2d2      	uxtb	r2, r2
    4310:	4013      	ands	r3, r2
    4312:	b2da      	uxtb	r2, r3
    4314:	4b0e      	ldr	r3, [pc, #56]	; (4350 <AD_Converter_HWEnDi+0x84>)
    4316:	701a      	strb	r2, [r3, #0]
/home/guilherme/Documents/GER-SDP/KDS/SDP-2016/Debug/../Generated_Code/AD_Converter.c:160
      AD_Converter_OutV[SumChan] = 0U; /* Set variable for storing measured values to 0 */
    4318:	4b0e      	ldr	r3, [pc, #56]	; (4354 <AD_Converter_HWEnDi+0x88>)
    431a:	781b      	ldrb	r3, [r3, #0]
    431c:	b2db      	uxtb	r3, r3
    431e:	4a10      	ldr	r2, [pc, #64]	; (4360 <AD_Converter_HWEnDi+0x94>)
    4320:	2100      	movs	r1, #0
    4322:	54d1      	strb	r1, [r2, r3]
/home/guilherme/Documents/GER-SDP/KDS/SDP-2016/Debug/../Generated_Code/AD_Converter.c:161
      SampleGroup[0].ChannelIdx = SumChan;
    4324:	4b0b      	ldr	r3, [pc, #44]	; (4354 <AD_Converter_HWEnDi+0x88>)
    4326:	781b      	ldrb	r3, [r3, #0]
    4328:	b2da      	uxtb	r2, r3
    432a:	4b0b      	ldr	r3, [pc, #44]	; (4358 <AD_Converter_HWEnDi+0x8c>)
    432c:	701a      	strb	r2, [r3, #0]
/home/guilherme/Documents/GER-SDP/KDS/SDP-2016/Debug/../Generated_Code/AD_Converter.c:163
    }
    (void)AdcLdd1_CreateSampleGroup(AdcLdd1_DeviceDataPtr, (LDD_ADC_TSample *)SampleGroup, 1U); /* Configure sample group */
    432e:	4b0d      	ldr	r3, [pc, #52]	; (4364 <AD_Converter_HWEnDi+0x98>)
    4330:	681a      	ldr	r2, [r3, #0]
    4332:	4b09      	ldr	r3, [pc, #36]	; (4358 <AD_Converter_HWEnDi+0x8c>)
    4334:	1c10      	adds	r0, r2, #0
    4336:	1c19      	adds	r1, r3, #0
    4338:	2201      	movs	r2, #1
    433a:	f000 f997 	bl	466c <AdcLdd1_CreateSampleGroup>
/home/guilherme/Documents/GER-SDP/KDS/SDP-2016/Debug/../Generated_Code/AD_Converter.c:164
    (void)AdcLdd1_StartSingleMeasurement(AdcLdd1_DeviceDataPtr);
    433e:	4b09      	ldr	r3, [pc, #36]	; (4364 <AD_Converter_HWEnDi+0x98>)
    4340:	681b      	ldr	r3, [r3, #0]
    4342:	1c18      	adds	r0, r3, #0
    4344:	f000 f970 	bl	4628 <AdcLdd1_StartSingleMeasurement>
/home/guilherme/Documents/GER-SDP/KDS/SDP-2016/Debug/../Generated_Code/AD_Converter.c:166
  }
}
    4348:	46bd      	mov	sp, r7
    434a:	bd80      	pop	{r7, pc}
    434c:	1ffff085 	.word	0x1ffff085
    4350:	1ffff08c 	.word	0x1ffff08c
    4354:	1ffff084 	.word	0x1ffff084
    4358:	1ffff088 	.word	0x1ffff088
    435c:	000062ec 	.word	0x000062ec
    4360:	1ffff364 	.word	0x1ffff364
    4364:	1ffff360 	.word	0x1ffff360

00004368 <AD_Converter_MeasureChan>:
AD_Converter_MeasureChan():
/home/guilherme/Documents/GER-SDP/KDS/SDP-2016/Debug/../Generated_Code/AD_Converter.c:252
byte AD_Converter_MeasureChan(bool WaitForResult, byte Channel)
was optimised based on the current component setting. An appropriate macro has been defined 
in the AD1.h to maintain API compatibility.
*/
byte AD_Converter_MeasureChan(bool WaitForResult,byte Channel)
{
    4368:	b580      	push	{r7, lr}
    436a:	b082      	sub	sp, #8
    436c:	af00      	add	r7, sp, #0
    436e:	1c0a      	adds	r2, r1, #0
    4370:	1dfb      	adds	r3, r7, #7
    4372:	1c01      	adds	r1, r0, #0
    4374:	7019      	strb	r1, [r3, #0]
    4376:	1dbb      	adds	r3, r7, #6
    4378:	701a      	strb	r2, [r3, #0]
/home/guilherme/Documents/GER-SDP/KDS/SDP-2016/Debug/../Generated_Code/AD_Converter.c:253
  if (Channel >= 2U) {                 /* Is channel number greater than or equal to 2 */
    437a:	1dbb      	adds	r3, r7, #6
    437c:	781b      	ldrb	r3, [r3, #0]
    437e:	2b01      	cmp	r3, #1
    4380:	d901      	bls.n	4386 <AD_Converter_MeasureChan+0x1e>
/home/guilherme/Documents/GER-SDP/KDS/SDP-2016/Debug/../Generated_Code/AD_Converter.c:254
    return ERR_RANGE;                  /* If yes then error */
    4382:	2302      	movs	r3, #2
    4384:	e01a      	b.n	43bc <AD_Converter_MeasureChan+0x54>
/home/guilherme/Documents/GER-SDP/KDS/SDP-2016/Debug/../Generated_Code/AD_Converter.c:256
  }
  if (ModeFlg != STOP) {               /* Is the device in different mode than "stop"? */
    4386:	4b0f      	ldr	r3, [pc, #60]	; (43c4 <AD_Converter_MeasureChan+0x5c>)
    4388:	781b      	ldrb	r3, [r3, #0]
    438a:	b2db      	uxtb	r3, r3
    438c:	2b00      	cmp	r3, #0
    438e:	d001      	beq.n	4394 <AD_Converter_MeasureChan+0x2c>
/home/guilherme/Documents/GER-SDP/KDS/SDP-2016/Debug/../Generated_Code/AD_Converter.c:257
    return ERR_BUSY;                   /* If yes then error */
    4390:	2308      	movs	r3, #8
    4392:	e013      	b.n	43bc <AD_Converter_MeasureChan+0x54>
/home/guilherme/Documents/GER-SDP/KDS/SDP-2016/Debug/../Generated_Code/AD_Converter.c:259
  }
  ModeFlg = SINGLE;                    /* Set state of device to the measure mode */
    4394:	4b0b      	ldr	r3, [pc, #44]	; (43c4 <AD_Converter_MeasureChan+0x5c>)
    4396:	2203      	movs	r2, #3
    4398:	701a      	strb	r2, [r3, #0]
/home/guilherme/Documents/GER-SDP/KDS/SDP-2016/Debug/../Generated_Code/AD_Converter.c:260
  SumChan = Channel;                   /* Set required channel */
    439a:	4b0b      	ldr	r3, [pc, #44]	; (43c8 <AD_Converter_MeasureChan+0x60>)
    439c:	1dba      	adds	r2, r7, #6
    439e:	7812      	ldrb	r2, [r2, #0]
    43a0:	701a      	strb	r2, [r3, #0]
/home/guilherme/Documents/GER-SDP/KDS/SDP-2016/Debug/../Generated_Code/AD_Converter.c:261
  AD_Converter_HWEnDi();               /* Enable the device */
    43a2:	f7ff ff93 	bl	42cc <AD_Converter_HWEnDi>
/home/guilherme/Documents/GER-SDP/KDS/SDP-2016/Debug/../Generated_Code/AD_Converter.c:262
  if (WaitForResult) {                 /* Is WaitForResult TRUE? */
    43a6:	1dfb      	adds	r3, r7, #7
    43a8:	781b      	ldrb	r3, [r3, #0]
    43aa:	2b00      	cmp	r3, #0
    43ac:	d005      	beq.n	43ba <AD_Converter_MeasureChan+0x52>
/home/guilherme/Documents/GER-SDP/KDS/SDP-2016/Debug/../Generated_Code/AD_Converter.c:263
    while (ModeFlg == SINGLE) {}       /* If yes then wait for end of measurement */
    43ae:	46c0      	nop			; (mov r8, r8)
/home/guilherme/Documents/GER-SDP/KDS/SDP-2016/Debug/../Generated_Code/AD_Converter.c:263 (discriminator 1)
    43b0:	4b04      	ldr	r3, [pc, #16]	; (43c4 <AD_Converter_MeasureChan+0x5c>)
    43b2:	781b      	ldrb	r3, [r3, #0]
    43b4:	b2db      	uxtb	r3, r3
    43b6:	2b03      	cmp	r3, #3
    43b8:	d0fa      	beq.n	43b0 <AD_Converter_MeasureChan+0x48>
/home/guilherme/Documents/GER-SDP/KDS/SDP-2016/Debug/../Generated_Code/AD_Converter.c:265
  }
  return ERR_OK;                       /* OK */
    43ba:	2300      	movs	r3, #0
/home/guilherme/Documents/GER-SDP/KDS/SDP-2016/Debug/../Generated_Code/AD_Converter.c:266
}
    43bc:	1c18      	adds	r0, r3, #0
    43be:	46bd      	mov	sp, r7
    43c0:	b002      	add	sp, #8
    43c2:	bd80      	pop	{r7, pc}
    43c4:	1ffff085 	.word	0x1ffff085
    43c8:	1ffff084 	.word	0x1ffff084

000043cc <AD_Converter_GetChanValue>:
AD_Converter_GetChanValue():
/home/guilherme/Documents/GER-SDP/KDS/SDP-2016/Debug/../Generated_Code/AD_Converter.c:352
byte AD_Converter_GetChanValue(byte Channel, void* Value)
was optimised based on the current component setting. An appropriate macro has been defined 
in the AD1.h to maintain API compatibility.
*/
byte AD_Converter_GetChanValue(byte Channel, void* Value)
{
    43cc:	b580      	push	{r7, lr}
    43ce:	b082      	sub	sp, #8
    43d0:	af00      	add	r7, sp, #0
    43d2:	1c02      	adds	r2, r0, #0
    43d4:	6039      	str	r1, [r7, #0]
    43d6:	1dfb      	adds	r3, r7, #7
    43d8:	701a      	strb	r2, [r3, #0]
/home/guilherme/Documents/GER-SDP/KDS/SDP-2016/Debug/../Generated_Code/AD_Converter.c:353
  if (Channel >= 2U) {                 /* Is channel number greater than or equal to 2 */
    43da:	1dfb      	adds	r3, r7, #7
    43dc:	781b      	ldrb	r3, [r3, #0]
    43de:	2b01      	cmp	r3, #1
    43e0:	d901      	bls.n	43e6 <AD_Converter_GetChanValue+0x1a>
/home/guilherme/Documents/GER-SDP/KDS/SDP-2016/Debug/../Generated_Code/AD_Converter.c:354
    return ERR_RANGE;                  /* If yes then error */
    43e2:	2302      	movs	r3, #2
    43e4:	e014      	b.n	4410 <AD_Converter_GetChanValue+0x44>
/home/guilherme/Documents/GER-SDP/KDS/SDP-2016/Debug/../Generated_Code/AD_Converter.c:356
  }
  if ((OutFlg & Table[Channel]) == 0U) { /* Is output flag set? */
    43e6:	1dfb      	adds	r3, r7, #7
    43e8:	781b      	ldrb	r3, [r3, #0]
    43ea:	4a0b      	ldr	r2, [pc, #44]	; (4418 <AD_Converter_GetChanValue+0x4c>)
    43ec:	5cd3      	ldrb	r3, [r2, r3]
    43ee:	4a0b      	ldr	r2, [pc, #44]	; (441c <AD_Converter_GetChanValue+0x50>)
    43f0:	7812      	ldrb	r2, [r2, #0]
    43f2:	b2d2      	uxtb	r2, r2
    43f4:	4013      	ands	r3, r2
    43f6:	b2db      	uxtb	r3, r3
    43f8:	2b00      	cmp	r3, #0
    43fa:	d101      	bne.n	4400 <AD_Converter_GetChanValue+0x34>
/home/guilherme/Documents/GER-SDP/KDS/SDP-2016/Debug/../Generated_Code/AD_Converter.c:357
    return ERR_NOTAVAIL;               /* If no then error */
    43fc:	2309      	movs	r3, #9
    43fe:	e007      	b.n	4410 <AD_Converter_GetChanValue+0x44>
/home/guilherme/Documents/GER-SDP/KDS/SDP-2016/Debug/../Generated_Code/AD_Converter.c:360
  }
  /* Copy value from temporary buffer */
  *(AdcLdd1_TResultData *)Value = AD_Converter_OutV[Channel];
    4400:	1dfb      	adds	r3, r7, #7
    4402:	781b      	ldrb	r3, [r3, #0]
    4404:	4a06      	ldr	r2, [pc, #24]	; (4420 <AD_Converter_GetChanValue+0x54>)
    4406:	5cd3      	ldrb	r3, [r2, r3]
    4408:	b2da      	uxtb	r2, r3
    440a:	683b      	ldr	r3, [r7, #0]
    440c:	701a      	strb	r2, [r3, #0]
/home/guilherme/Documents/GER-SDP/KDS/SDP-2016/Debug/../Generated_Code/AD_Converter.c:361
  return ERR_OK;
    440e:	2300      	movs	r3, #0
/home/guilherme/Documents/GER-SDP/KDS/SDP-2016/Debug/../Generated_Code/AD_Converter.c:362
}
    4410:	1c18      	adds	r0, r3, #0
    4412:	46bd      	mov	sp, r7
    4414:	b002      	add	sp, #8
    4416:	bd80      	pop	{r7, pc}
    4418:	000062ec 	.word	0x000062ec
    441c:	1ffff08c 	.word	0x1ffff08c
    4420:	1ffff364 	.word	0x1ffff364

00004424 <AdcLdd1_OnMeasurementComplete>:
AdcLdd1_OnMeasurementComplete():
/home/guilherme/Documents/GER-SDP/KDS/SDP-2016/Debug/../Generated_Code/AD_Converter.c:420
**         event(s).
**         This method is internal. It is used by Processor Expert only.
** ===================================================================
*/
void AdcLdd1_OnMeasurementComplete(LDD_TUserData *UserDataPtr)
{
    4424:	b580      	push	{r7, lr}
    4426:	b082      	sub	sp, #8
    4428:	af00      	add	r7, sp, #0
    442a:	6078      	str	r0, [r7, #4]
/home/guilherme/Documents/GER-SDP/KDS/SDP-2016/Debug/../Generated_Code/AD_Converter.c:422
  (void)UserDataPtr;                   /* Parameter is not used, suppress unused argument warning */
  if (ModeFlg == CALIBRATING) {        /* If the driver is in CALIBRATING mode */
    442c:	4b34      	ldr	r3, [pc, #208]	; (4500 <AdcLdd1_OnMeasurementComplete+0xdc>)
    442e:	781b      	ldrb	r3, [r3, #0]
    4430:	b2db      	uxtb	r3, r3
    4432:	2b04      	cmp	r3, #4
    4434:	d108      	bne.n	4448 <AdcLdd1_OnMeasurementComplete+0x24>
/home/guilherme/Documents/GER-SDP/KDS/SDP-2016/Debug/../Generated_Code/AD_Converter.c:423
    (void)AdcLdd1_GetCalibrationResultStatus(AdcLdd1_DeviceDataPtr);
    4436:	4b33      	ldr	r3, [pc, #204]	; (4504 <AdcLdd1_OnMeasurementComplete+0xe0>)
    4438:	681b      	ldr	r3, [r3, #0]
    443a:	1c18      	adds	r0, r3, #0
    443c:	f000 f97c 	bl	4738 <AdcLdd1_GetCalibrationResultStatus>
/home/guilherme/Documents/GER-SDP/KDS/SDP-2016/Debug/../Generated_Code/AD_Converter.c:424
    ModeFlg = STOP;                    /* Set the device to the stop mode */
    4440:	4b2f      	ldr	r3, [pc, #188]	; (4500 <AdcLdd1_OnMeasurementComplete+0xdc>)
    4442:	2200      	movs	r2, #0
    4444:	701a      	strb	r2, [r3, #0]
/home/guilherme/Documents/GER-SDP/KDS/SDP-2016/Debug/../Generated_Code/AD_Converter.c:425
    return;                            /* Return from interrupt */
    4446:	e058      	b.n	44fa <AdcLdd1_OnMeasurementComplete+0xd6>
/home/guilherme/Documents/GER-SDP/KDS/SDP-2016/Debug/../Generated_Code/AD_Converter.c:427
  }
  if (ModeFlg != SINGLE) {
    4448:	4b2d      	ldr	r3, [pc, #180]	; (4500 <AdcLdd1_OnMeasurementComplete+0xdc>)
    444a:	781b      	ldrb	r3, [r3, #0]
    444c:	b2db      	uxtb	r3, r3
    444e:	2b03      	cmp	r3, #3
    4450:	d036      	beq.n	44c0 <AdcLdd1_OnMeasurementComplete+0x9c>
/home/guilherme/Documents/GER-SDP/KDS/SDP-2016/Debug/../Generated_Code/AD_Converter.c:428
    AdcLdd1_GetMeasuredValues(AdcLdd1_DeviceDataPtr, (LDD_TData *)&AD_Converter_OutV[SumChan]);
    4452:	4b2c      	ldr	r3, [pc, #176]	; (4504 <AdcLdd1_OnMeasurementComplete+0xe0>)
    4454:	681a      	ldr	r2, [r3, #0]
    4456:	4b2c      	ldr	r3, [pc, #176]	; (4508 <AdcLdd1_OnMeasurementComplete+0xe4>)
    4458:	781b      	ldrb	r3, [r3, #0]
    445a:	b2db      	uxtb	r3, r3
    445c:	1c19      	adds	r1, r3, #0
    445e:	4b2b      	ldr	r3, [pc, #172]	; (450c <AdcLdd1_OnMeasurementComplete+0xe8>)
    4460:	18cb      	adds	r3, r1, r3
    4462:	1c10      	adds	r0, r2, #0
    4464:	1c19      	adds	r1, r3, #0
    4466:	f000 f937 	bl	46d8 <AdcLdd1_GetMeasuredValues>
/home/guilherme/Documents/GER-SDP/KDS/SDP-2016/Debug/../Generated_Code/AD_Converter.c:429
    SumChan++;                         /* Increase counter of measured channels*/
    446a:	4b27      	ldr	r3, [pc, #156]	; (4508 <AdcLdd1_OnMeasurementComplete+0xe4>)
    446c:	781b      	ldrb	r3, [r3, #0]
    446e:	b2db      	uxtb	r3, r3
    4470:	3301      	adds	r3, #1
    4472:	b2da      	uxtb	r2, r3
    4474:	4b24      	ldr	r3, [pc, #144]	; (4508 <AdcLdd1_OnMeasurementComplete+0xe4>)
    4476:	701a      	strb	r2, [r3, #0]
/home/guilherme/Documents/GER-SDP/KDS/SDP-2016/Debug/../Generated_Code/AD_Converter.c:430
    if (SumChan == 2U) {               /* Is number of measured channels equal to the number of channels used in the component? */
    4478:	4b23      	ldr	r3, [pc, #140]	; (4508 <AdcLdd1_OnMeasurementComplete+0xe4>)
    447a:	781b      	ldrb	r3, [r3, #0]
    447c:	b2db      	uxtb	r3, r3
    447e:	2b02      	cmp	r3, #2
    4480:	d10b      	bne.n	449a <AdcLdd1_OnMeasurementComplete+0x76>
/home/guilherme/Documents/GER-SDP/KDS/SDP-2016/Debug/../Generated_Code/AD_Converter.c:431
      SumChan = 0U;                    /* If yes then set the counter of measured channels to 0 */
    4482:	4b21      	ldr	r3, [pc, #132]	; (4508 <AdcLdd1_OnMeasurementComplete+0xe4>)
    4484:	2200      	movs	r2, #0
    4486:	701a      	strb	r2, [r3, #0]
/home/guilherme/Documents/GER-SDP/KDS/SDP-2016/Debug/../Generated_Code/AD_Converter.c:432
      OutFlg = 0x03U;                  /* Measured values are available */
    4488:	4b21      	ldr	r3, [pc, #132]	; (4510 <AdcLdd1_OnMeasurementComplete+0xec>)
    448a:	2203      	movs	r2, #3
    448c:	701a      	strb	r2, [r3, #0]
/home/guilherme/Documents/GER-SDP/KDS/SDP-2016/Debug/../Generated_Code/AD_Converter.c:433
      AD_Converter_OnEnd();            /* If yes then invoke user event */
    448e:	f7ff f96b 	bl	3768 <AD_Converter_OnEnd>
/home/guilherme/Documents/GER-SDP/KDS/SDP-2016/Debug/../Generated_Code/AD_Converter.c:434
      ModeFlg = STOP;                  /* Set the device to the stop mode */
    4492:	4b1b      	ldr	r3, [pc, #108]	; (4500 <AdcLdd1_OnMeasurementComplete+0xdc>)
    4494:	2200      	movs	r2, #0
    4496:	701a      	strb	r2, [r3, #0]
/home/guilherme/Documents/GER-SDP/KDS/SDP-2016/Debug/../Generated_Code/AD_Converter.c:435
      return;                          /* Return from interrupt */
    4498:	e02f      	b.n	44fa <AdcLdd1_OnMeasurementComplete+0xd6>
/home/guilherme/Documents/GER-SDP/KDS/SDP-2016/Debug/../Generated_Code/AD_Converter.c:437
    }
    SampleGroup[0].ChannelIdx = SumChan; /* Start measurement of next channel */
    449a:	4b1b      	ldr	r3, [pc, #108]	; (4508 <AdcLdd1_OnMeasurementComplete+0xe4>)
    449c:	781b      	ldrb	r3, [r3, #0]
    449e:	b2da      	uxtb	r2, r3
    44a0:	4b1c      	ldr	r3, [pc, #112]	; (4514 <AdcLdd1_OnMeasurementComplete+0xf0>)
    44a2:	701a      	strb	r2, [r3, #0]
/home/guilherme/Documents/GER-SDP/KDS/SDP-2016/Debug/../Generated_Code/AD_Converter.c:438
    (void)AdcLdd1_CreateSampleGroup(AdcLdd1_DeviceDataPtr, (LDD_ADC_TSample *)SampleGroup, 1U); /* Configure sample group */
    44a4:	4b17      	ldr	r3, [pc, #92]	; (4504 <AdcLdd1_OnMeasurementComplete+0xe0>)
    44a6:	681a      	ldr	r2, [r3, #0]
    44a8:	4b1a      	ldr	r3, [pc, #104]	; (4514 <AdcLdd1_OnMeasurementComplete+0xf0>)
    44aa:	1c10      	adds	r0, r2, #0
    44ac:	1c19      	adds	r1, r3, #0
    44ae:	2201      	movs	r2, #1
    44b0:	f000 f8dc 	bl	466c <AdcLdd1_CreateSampleGroup>
/home/guilherme/Documents/GER-SDP/KDS/SDP-2016/Debug/../Generated_Code/AD_Converter.c:439
    (void)AdcLdd1_StartSingleMeasurement(AdcLdd1_DeviceDataPtr);
    44b4:	4b13      	ldr	r3, [pc, #76]	; (4504 <AdcLdd1_OnMeasurementComplete+0xe0>)
    44b6:	681b      	ldr	r3, [r3, #0]
    44b8:	1c18      	adds	r0, r3, #0
    44ba:	f000 f8b5 	bl	4628 <AdcLdd1_StartSingleMeasurement>
    44be:	e01c      	b.n	44fa <AdcLdd1_OnMeasurementComplete+0xd6>
/home/guilherme/Documents/GER-SDP/KDS/SDP-2016/Debug/../Generated_Code/AD_Converter.c:442
  }
  else {
    AdcLdd1_GetMeasuredValues(AdcLdd1_DeviceDataPtr, (LDD_TData *)&AD_Converter_OutV[SumChan]);
    44c0:	4b10      	ldr	r3, [pc, #64]	; (4504 <AdcLdd1_OnMeasurementComplete+0xe0>)
    44c2:	681a      	ldr	r2, [r3, #0]
    44c4:	4b10      	ldr	r3, [pc, #64]	; (4508 <AdcLdd1_OnMeasurementComplete+0xe4>)
    44c6:	781b      	ldrb	r3, [r3, #0]
    44c8:	b2db      	uxtb	r3, r3
    44ca:	1c19      	adds	r1, r3, #0
    44cc:	4b0f      	ldr	r3, [pc, #60]	; (450c <AdcLdd1_OnMeasurementComplete+0xe8>)
    44ce:	18cb      	adds	r3, r1, r3
    44d0:	1c10      	adds	r0, r2, #0
    44d2:	1c19      	adds	r1, r3, #0
    44d4:	f000 f900 	bl	46d8 <AdcLdd1_GetMeasuredValues>
/home/guilherme/Documents/GER-SDP/KDS/SDP-2016/Debug/../Generated_Code/AD_Converter.c:443
    OutFlg |= Table[SumChan];          /* Value of measured channel is available */
    44d8:	4b0b      	ldr	r3, [pc, #44]	; (4508 <AdcLdd1_OnMeasurementComplete+0xe4>)
    44da:	781b      	ldrb	r3, [r3, #0]
    44dc:	b2db      	uxtb	r3, r3
    44de:	4a0e      	ldr	r2, [pc, #56]	; (4518 <AdcLdd1_OnMeasurementComplete+0xf4>)
    44e0:	5cd2      	ldrb	r2, [r2, r3]
    44e2:	4b0b      	ldr	r3, [pc, #44]	; (4510 <AdcLdd1_OnMeasurementComplete+0xec>)
    44e4:	781b      	ldrb	r3, [r3, #0]
    44e6:	b2db      	uxtb	r3, r3
    44e8:	4313      	orrs	r3, r2
    44ea:	b2da      	uxtb	r2, r3
    44ec:	4b08      	ldr	r3, [pc, #32]	; (4510 <AdcLdd1_OnMeasurementComplete+0xec>)
    44ee:	701a      	strb	r2, [r3, #0]
/home/guilherme/Documents/GER-SDP/KDS/SDP-2016/Debug/../Generated_Code/AD_Converter.c:444
    AD_Converter_OnEnd();              /* If yes then invoke user event */
    44f0:	f7ff f93a 	bl	3768 <AD_Converter_OnEnd>
/home/guilherme/Documents/GER-SDP/KDS/SDP-2016/Debug/../Generated_Code/AD_Converter.c:445
    ModeFlg = STOP;                    /* Set the device to the stop mode */
    44f4:	4b02      	ldr	r3, [pc, #8]	; (4500 <AdcLdd1_OnMeasurementComplete+0xdc>)
    44f6:	2200      	movs	r2, #0
    44f8:	701a      	strb	r2, [r3, #0]
/home/guilherme/Documents/GER-SDP/KDS/SDP-2016/Debug/../Generated_Code/AD_Converter.c:447
  }
}
    44fa:	46bd      	mov	sp, r7
    44fc:	b002      	add	sp, #8
    44fe:	bd80      	pop	{r7, pc}
    4500:	1ffff085 	.word	0x1ffff085
    4504:	1ffff360 	.word	0x1ffff360
    4508:	1ffff084 	.word	0x1ffff084
    450c:	1ffff364 	.word	0x1ffff364
    4510:	1ffff08c 	.word	0x1ffff08c
    4514:	1ffff088 	.word	0x1ffff088
    4518:	000062ec 	.word	0x000062ec

0000451c <AD_Converter_Init>:
AD_Converter_Init():
/home/guilherme/Documents/GER-SDP/KDS/SDP-2016/Debug/../Generated_Code/AD_Converter.c:461
**         part of the application initialization code.
**         This method is internal. It is used by Processor Expert only.
** ===================================================================
*/
void AD_Converter_Init(void)
{
    451c:	b580      	push	{r7, lr}
    451e:	af00      	add	r7, sp, #0
/home/guilherme/Documents/GER-SDP/KDS/SDP-2016/Debug/../Generated_Code/AD_Converter.c:462
  OutFlg = 0U;                         /* No measured value */
    4520:	4b06      	ldr	r3, [pc, #24]	; (453c <AD_Converter_Init+0x20>)
    4522:	2200      	movs	r2, #0
    4524:	701a      	strb	r2, [r3, #0]
/home/guilherme/Documents/GER-SDP/KDS/SDP-2016/Debug/../Generated_Code/AD_Converter.c:463
  ModeFlg = STOP;                      /* Device isn't running */
    4526:	4b06      	ldr	r3, [pc, #24]	; (4540 <AD_Converter_Init+0x24>)
    4528:	2200      	movs	r2, #0
    452a:	701a      	strb	r2, [r3, #0]
/home/guilherme/Documents/GER-SDP/KDS/SDP-2016/Debug/../Generated_Code/AD_Converter.c:464
  AdcLdd1_DeviceDataPtr = AdcLdd1_Init(NULL); /* Calling init method of the inherited component */
    452c:	2000      	movs	r0, #0
    452e:	f000 f80b 	bl	4548 <AdcLdd1_Init>
    4532:	1c02      	adds	r2, r0, #0
    4534:	4b03      	ldr	r3, [pc, #12]	; (4544 <AD_Converter_Init+0x28>)
    4536:	601a      	str	r2, [r3, #0]
/home/guilherme/Documents/GER-SDP/KDS/SDP-2016/Debug/../Generated_Code/AD_Converter.c:465
}
    4538:	46bd      	mov	sp, r7
    453a:	bd80      	pop	{r7, pc}
    453c:	1ffff08c 	.word	0x1ffff08c
    4540:	1ffff085 	.word	0x1ffff085
    4544:	1ffff360 	.word	0x1ffff360

00004548 <AdcLdd1_Init>:
AdcLdd1_Init():
/home/guilherme/Documents/GER-SDP/KDS/SDP-2016/Debug/../Generated_Code/AdcLdd1.c:183
**     @return
**                         - Device data structure pointer.
*/
/* ===================================================================*/
LDD_TDeviceData* AdcLdd1_Init(LDD_TUserData *UserDataPtr)
{
    4548:	b580      	push	{r7, lr}
    454a:	b084      	sub	sp, #16
    454c:	af00      	add	r7, sp, #0
    454e:	6078      	str	r0, [r7, #4]
/home/guilherme/Documents/GER-SDP/KDS/SDP-2016/Debug/../Generated_Code/AdcLdd1.c:188
  /* Allocate LDD device structure */
  AdcLdd1_TDeviceDataPtr DeviceDataPrv;

  /* {Default RTOS Adapter} Driver memory allocation: Dynamic allocation is simulated by a pointer to the static object */
  DeviceDataPrv = &DeviceDataPrv__DEFAULT_RTOS_ALLOC;
    4550:	4b2b      	ldr	r3, [pc, #172]	; (4600 <AdcLdd1_Init+0xb8>)
    4552:	60fb      	str	r3, [r7, #12]
/home/guilherme/Documents/GER-SDP/KDS/SDP-2016/Debug/../Generated_Code/AdcLdd1.c:189
  DeviceDataPrv->UserData = UserDataPtr; /* Store the RTOS device structure */
    4554:	68fb      	ldr	r3, [r7, #12]
    4556:	687a      	ldr	r2, [r7, #4]
    4558:	605a      	str	r2, [r3, #4]
/home/guilherme/Documents/GER-SDP/KDS/SDP-2016/Debug/../Generated_Code/AdcLdd1.c:192
  /* Interrupt vector(s) allocation */
  /* {Default RTOS Adapter} Set interrupt vector: IVT is static, ISR parameter is passed by the global variable */
  INT_ADC0__DEFAULT_RTOS_ISRPARAM = DeviceDataPrv;
    455a:	4b2a      	ldr	r3, [pc, #168]	; (4604 <AdcLdd1_Init+0xbc>)
    455c:	68fa      	ldr	r2, [r7, #12]
    455e:	601a      	str	r2, [r3, #0]
/home/guilherme/Documents/GER-SDP/KDS/SDP-2016/Debug/../Generated_Code/AdcLdd1.c:193
  DeviceDataPrv->SampleCount = 0U;     /* Initializing SampleCount for right access of some methods to SC1n registers before first conversion is done */
    4560:	68fb      	ldr	r3, [r7, #12]
    4562:	2200      	movs	r2, #0
    4564:	701a      	strb	r2, [r3, #0]
/home/guilherme/Documents/GER-SDP/KDS/SDP-2016/Debug/../Generated_Code/AdcLdd1.c:194
  DeviceDataPrv->CompleteStatus = FALSE; /* Clear measurement complete status flag */
    4566:	68fb      	ldr	r3, [r7, #12]
    4568:	2200      	movs	r2, #0
    456a:	709a      	strb	r2, [r3, #2]
/home/guilherme/Documents/GER-SDP/KDS/SDP-2016/Debug/../Generated_Code/AdcLdd1.c:196
  /* SIM_SCGC6: ADC0=1 */
  SIM_SCGC6 |= SIM_SCGC6_ADC0_MASK;
    456c:	4a26      	ldr	r2, [pc, #152]	; (4608 <AdcLdd1_Init+0xc0>)
    456e:	4926      	ldr	r1, [pc, #152]	; (4608 <AdcLdd1_Init+0xc0>)
    4570:	4b26      	ldr	r3, [pc, #152]	; (460c <AdcLdd1_Init+0xc4>)
    4572:	58cb      	ldr	r3, [r1, r3]
    4574:	2180      	movs	r1, #128	; 0x80
    4576:	0509      	lsls	r1, r1, #20
    4578:	4319      	orrs	r1, r3
    457a:	4b24      	ldr	r3, [pc, #144]	; (460c <AdcLdd1_Init+0xc4>)
    457c:	50d1      	str	r1, [r2, r3]
/home/guilherme/Documents/GER-SDP/KDS/SDP-2016/Debug/../Generated_Code/AdcLdd1.c:199
  /* Interrupt vector(s) priority setting */
  /* NVIC_IPR3: PRI_15=0x80 */
  NVIC_IPR3 = (uint32_t)((NVIC_IPR3 & (uint32_t)~(uint32_t)(
    457e:	4a24      	ldr	r2, [pc, #144]	; (4610 <AdcLdd1_Init+0xc8>)
    4580:	4923      	ldr	r1, [pc, #140]	; (4610 <AdcLdd1_Init+0xc8>)
    4582:	23c3      	movs	r3, #195	; 0xc3
    4584:	009b      	lsls	r3, r3, #2
    4586:	58cb      	ldr	r3, [r1, r3]
    4588:	009b      	lsls	r3, r3, #2
    458a:	0899      	lsrs	r1, r3, #2
    458c:	23c3      	movs	r3, #195	; 0xc3
    458e:	009b      	lsls	r3, r3, #2
    4590:	50d1      	str	r1, [r2, r3]
/home/guilherme/Documents/GER-SDP/KDS/SDP-2016/Debug/../Generated_Code/AdcLdd1.c:205
               NVIC_IP_PRI_15(0x7F)
              )) | (uint32_t)(
               NVIC_IP_PRI_15(0x80)
              ));
  /* NVIC_ISER: SETENA|=0x8000 */
  NVIC_ISER |= NVIC_ISER_SETENA(0x8000);
    4592:	4b1f      	ldr	r3, [pc, #124]	; (4610 <AdcLdd1_Init+0xc8>)
    4594:	4a1e      	ldr	r2, [pc, #120]	; (4610 <AdcLdd1_Init+0xc8>)
    4596:	6812      	ldr	r2, [r2, #0]
    4598:	2180      	movs	r1, #128	; 0x80
    459a:	0209      	lsls	r1, r1, #8
    459c:	430a      	orrs	r2, r1
    459e:	601a      	str	r2, [r3, #0]
/home/guilherme/Documents/GER-SDP/KDS/SDP-2016/Debug/../Generated_Code/AdcLdd1.c:207
  /* PORTD_PCR5: ISF=0,MUX=0 */
  PORTD_PCR5 &= (uint32_t)~(uint32_t)((PORT_PCR_ISF_MASK | PORT_PCR_MUX(0x07)));
    45a0:	4b1c      	ldr	r3, [pc, #112]	; (4614 <AdcLdd1_Init+0xcc>)
    45a2:	4a1c      	ldr	r2, [pc, #112]	; (4614 <AdcLdd1_Init+0xcc>)
    45a4:	6951      	ldr	r1, [r2, #20]
    45a6:	4a1c      	ldr	r2, [pc, #112]	; (4618 <AdcLdd1_Init+0xd0>)
    45a8:	400a      	ands	r2, r1
    45aa:	615a      	str	r2, [r3, #20]
/home/guilherme/Documents/GER-SDP/KDS/SDP-2016/Debug/../Generated_Code/AdcLdd1.c:209
  /* ADC0_CFG2: MUXSEL=1 */
  ADC0_CFG2 |= ADC_CFG2_MUXSEL_MASK;
    45ac:	4b1b      	ldr	r3, [pc, #108]	; (461c <AdcLdd1_Init+0xd4>)
    45ae:	4a1b      	ldr	r2, [pc, #108]	; (461c <AdcLdd1_Init+0xd4>)
    45b0:	68d2      	ldr	r2, [r2, #12]
    45b2:	2110      	movs	r1, #16
    45b4:	430a      	orrs	r2, r1
    45b6:	60da      	str	r2, [r3, #12]
/home/guilherme/Documents/GER-SDP/KDS/SDP-2016/Debug/../Generated_Code/AdcLdd1.c:211
  /* PORTE_PCR29: ISF=0,MUX=0 */
  PORTE_PCR29 &= (uint32_t)~(uint32_t)((PORT_PCR_ISF_MASK | PORT_PCR_MUX(0x07)));
    45b8:	4b19      	ldr	r3, [pc, #100]	; (4620 <AdcLdd1_Init+0xd8>)
    45ba:	4a19      	ldr	r2, [pc, #100]	; (4620 <AdcLdd1_Init+0xd8>)
    45bc:	6f51      	ldr	r1, [r2, #116]	; 0x74
    45be:	4a16      	ldr	r2, [pc, #88]	; (4618 <AdcLdd1_Init+0xd0>)
    45c0:	400a      	ands	r2, r1
    45c2:	675a      	str	r2, [r3, #116]	; 0x74
/home/guilherme/Documents/GER-SDP/KDS/SDP-2016/Debug/../Generated_Code/AdcLdd1.c:213
  /* ADC0_CFG2: MUXSEL=1 */
  ADC0_CFG2 |= ADC_CFG2_MUXSEL_MASK;
    45c4:	4b15      	ldr	r3, [pc, #84]	; (461c <AdcLdd1_Init+0xd4>)
    45c6:	4a15      	ldr	r2, [pc, #84]	; (461c <AdcLdd1_Init+0xd4>)
    45c8:	68d2      	ldr	r2, [r2, #12]
    45ca:	2110      	movs	r1, #16
    45cc:	430a      	orrs	r2, r1
    45ce:	60da      	str	r2, [r3, #12]
/home/guilherme/Documents/GER-SDP/KDS/SDP-2016/Debug/../Generated_Code/AdcLdd1.c:215
  /* ADC0_CFG1: ??=0,??=0,??=0,??=0,??=0,??=0,??=0,??=0,??=0,??=0,??=0,??=0,??=0,??=0,??=0,??=0,??=0,??=0,??=0,??=0,??=0,??=0,??=0,??=0,ADLPC=0,ADIV=3,ADLSMP=0,MODE=0,ADICLK=1 */
  ADC0_CFG1 = ADC_CFG1_ADIV(0x03) |
    45d0:	4b12      	ldr	r3, [pc, #72]	; (461c <AdcLdd1_Init+0xd4>)
    45d2:	2261      	movs	r2, #97	; 0x61
    45d4:	609a      	str	r2, [r3, #8]
/home/guilherme/Documents/GER-SDP/KDS/SDP-2016/Debug/../Generated_Code/AdcLdd1.c:220
              ADC_CFG1_MODE(0x00) |
              ADC_CFG1_ADICLK(0x01);

  /* ADC0_CFG2: ADACKEN=0,ADHSC=0,ADLSTS=0 */
  ADC0_CFG2 &= (uint32_t)~(uint32_t)(
    45d6:	4b11      	ldr	r3, [pc, #68]	; (461c <AdcLdd1_Init+0xd4>)
    45d8:	4a10      	ldr	r2, [pc, #64]	; (461c <AdcLdd1_Init+0xd4>)
    45da:	68d2      	ldr	r2, [r2, #12]
    45dc:	210f      	movs	r1, #15
    45de:	438a      	bics	r2, r1
    45e0:	60da      	str	r2, [r3, #12]
/home/guilherme/Documents/GER-SDP/KDS/SDP-2016/Debug/../Generated_Code/AdcLdd1.c:226
                ADC_CFG2_ADACKEN_MASK |
                ADC_CFG2_ADHSC_MASK |
                ADC_CFG2_ADLSTS(0x03)
               );
  /* ADC0_SC2: ??=0,??=0,??=0,??=0,??=0,??=0,??=0,??=0,??=0,??=0,??=0,??=0,??=0,??=0,??=0,??=0,??=0,??=0,??=0,??=0,??=0,??=0,??=0,??=0,ADACT=0,ADTRG=0,ACFE=0,ACFGT=0,ACREN=0,DMAEN=0,REFSEL=0 */
  ADC0_SC2 = ADC_SC2_REFSEL(0x00);
    45e2:	4b0e      	ldr	r3, [pc, #56]	; (461c <AdcLdd1_Init+0xd4>)
    45e4:	2200      	movs	r2, #0
    45e6:	621a      	str	r2, [r3, #32]
/home/guilherme/Documents/GER-SDP/KDS/SDP-2016/Debug/../Generated_Code/AdcLdd1.c:228
  /* ADC0_SC3: ??=0,??=0,??=0,??=0,??=0,??=0,??=0,??=0,??=0,??=0,??=0,??=0,??=0,??=0,??=0,??=0,??=0,??=0,??=0,??=0,??=0,??=0,??=0,??=0,CAL=0,CALF=1,??=0,??=0,ADCO=0,AVGE=0,AVGS=0 */
  ADC0_SC3 = (ADC_SC3_CALF_MASK | ADC_SC3_AVGS(0x00));
    45e8:	4b0c      	ldr	r3, [pc, #48]	; (461c <AdcLdd1_Init+0xd4>)
    45ea:	2240      	movs	r2, #64	; 0x40
    45ec:	625a      	str	r2, [r3, #36]	; 0x24
/home/guilherme/Documents/GER-SDP/KDS/SDP-2016/Debug/../Generated_Code/AdcLdd1.c:230
  /* Registration of the device structure */
  PE_LDD_RegisterDeviceStructure(PE_LDD_COMPONENT_AdcLdd1_ID,DeviceDataPrv);
    45ee:	4b0d      	ldr	r3, [pc, #52]	; (4624 <AdcLdd1_Init+0xdc>)
    45f0:	68fa      	ldr	r2, [r7, #12]
    45f2:	611a      	str	r2, [r3, #16]
/home/guilherme/Documents/GER-SDP/KDS/SDP-2016/Debug/../Generated_Code/AdcLdd1.c:231
  return ((LDD_TDeviceData *)DeviceDataPrv); /* Return pointer to the data data structure */
    45f4:	68fb      	ldr	r3, [r7, #12]
/home/guilherme/Documents/GER-SDP/KDS/SDP-2016/Debug/../Generated_Code/AdcLdd1.c:232
}
    45f6:	1c18      	adds	r0, r3, #0
    45f8:	46bd      	mov	sp, r7
    45fa:	b004      	add	sp, #16
    45fc:	bd80      	pop	{r7, pc}
    45fe:	46c0      	nop			; (mov r8, r8)
    4600:	1ffff090 	.word	0x1ffff090
    4604:	1ffff098 	.word	0x1ffff098
    4608:	40047000 	.word	0x40047000
    460c:	0000103c 	.word	0x0000103c
    4610:	e000e100 	.word	0xe000e100
    4614:	4004c000 	.word	0x4004c000
    4618:	fefff8ff 	.word	0xfefff8ff
    461c:	4003b000 	.word	0x4003b000
    4620:	4004d000 	.word	0x4004d000
    4624:	1ffff0d8 	.word	0x1ffff0d8

00004628 <AdcLdd1_StartSingleMeasurement>:
AdcLdd1_StartSingleMeasurement():
/home/guilherme/Documents/GER-SDP/KDS/SDP-2016/Debug/../Generated_Code/AdcLdd1.c:273
**                           ERR_DISABLED - Component is disabled
**                           ERR_BUSY - A measurement is in progress 
*/
/* ===================================================================*/
LDD_TError AdcLdd1_StartSingleMeasurement(LDD_TDeviceData *DeviceDataPtr)
{
    4628:	b580      	push	{r7, lr}
    462a:	b082      	sub	sp, #8
    462c:	af00      	add	r7, sp, #0
    462e:	6078      	str	r0, [r7, #4]
/home/guilherme/Documents/GER-SDP/KDS/SDP-2016/Debug/../Generated_Code/AdcLdd1.c:275
  (void)DeviceDataPtr;                 /* Parameter is not used, suppress unused argument warning */
  if (ADC_PDD_GetConversionActiveFlag(ADC0_BASE_PTR) != 0U) { /* Last measurement still pending? */
    4630:	4b0d      	ldr	r3, [pc, #52]	; (4668 <AdcLdd1_StartSingleMeasurement+0x40>)
    4632:	6a1a      	ldr	r2, [r3, #32]
    4634:	2380      	movs	r3, #128	; 0x80
    4636:	4013      	ands	r3, r2
    4638:	d001      	beq.n	463e <AdcLdd1_StartSingleMeasurement+0x16>
/home/guilherme/Documents/GER-SDP/KDS/SDP-2016/Debug/../Generated_Code/AdcLdd1.c:276
    return ERR_BUSY;                   /* Yes, return ERR_BUSY */
    463a:	2308      	movs	r3, #8
    463c:	e010      	b.n	4660 <AdcLdd1_StartSingleMeasurement+0x38>
/home/guilherme/Documents/GER-SDP/KDS/SDP-2016/Debug/../Generated_Code/AdcLdd1.c:278
  }
  ADC_PDD_SetContinuousMode(ADC0_BASE_PTR, ADC_PDD_ONE_CONVERSION); /* Set one conversion mode */
    463e:	4b0a      	ldr	r3, [pc, #40]	; (4668 <AdcLdd1_StartSingleMeasurement+0x40>)
    4640:	4a09      	ldr	r2, [pc, #36]	; (4668 <AdcLdd1_StartSingleMeasurement+0x40>)
    4642:	6a52      	ldr	r2, [r2, #36]	; 0x24
    4644:	2148      	movs	r1, #72	; 0x48
    4646:	438a      	bics	r2, r1
    4648:	625a      	str	r2, [r3, #36]	; 0x24
/home/guilherme/Documents/GER-SDP/KDS/SDP-2016/Debug/../Generated_Code/AdcLdd1.c:279
  ADC_PDD_SetConversionTriggerType(ADC0_BASE_PTR, ADC_PDD_SW_TRIGGER); /* Select SW triggering */
    464a:	4b07      	ldr	r3, [pc, #28]	; (4668 <AdcLdd1_StartSingleMeasurement+0x40>)
    464c:	4a06      	ldr	r2, [pc, #24]	; (4668 <AdcLdd1_StartSingleMeasurement+0x40>)
    464e:	6a12      	ldr	r2, [r2, #32]
    4650:	2140      	movs	r1, #64	; 0x40
    4652:	438a      	bics	r2, r1
    4654:	621a      	str	r2, [r3, #32]
/home/guilherme/Documents/GER-SDP/KDS/SDP-2016/Debug/../Generated_Code/AdcLdd1.c:280
  ADC_PDD_WriteStatusControl1Reg(ADC0_BASE_PTR, 0U, ((AdcLdd1_TDeviceDataPtr)DeviceDataPtr)->FirstSample); /* Set sample 0 and start conversion */
    4656:	4b04      	ldr	r3, [pc, #16]	; (4668 <AdcLdd1_StartSingleMeasurement+0x40>)
    4658:	687a      	ldr	r2, [r7, #4]
    465a:	7852      	ldrb	r2, [r2, #1]
    465c:	601a      	str	r2, [r3, #0]
/home/guilherme/Documents/GER-SDP/KDS/SDP-2016/Debug/../Generated_Code/AdcLdd1.c:281
  return ERR_OK;                       /* OK */
    465e:	2300      	movs	r3, #0
/home/guilherme/Documents/GER-SDP/KDS/SDP-2016/Debug/../Generated_Code/AdcLdd1.c:282
}
    4660:	1c18      	adds	r0, r3, #0
    4662:	46bd      	mov	sp, r7
    4664:	b002      	add	sp, #8
    4666:	bd80      	pop	{r7, pc}
    4668:	4003b000 	.word	0x4003b000

0000466c <AdcLdd1_CreateSampleGroup>:
AdcLdd1_CreateSampleGroup():
/home/guilherme/Documents/GER-SDP/KDS/SDP-2016/Debug/../Generated_Code/AdcLdd1.c:356
**                           variable value is out of range
**                           ERR_BUSY - Measurement is in progress 
*/
/* ===================================================================*/
LDD_TError AdcLdd1_CreateSampleGroup(LDD_TDeviceData *DeviceDataPtr, LDD_ADC_TSample *SampleGroupPtr, uint8_t SampleCount)
{
    466c:	b580      	push	{r7, lr}
    466e:	b086      	sub	sp, #24
    4670:	af00      	add	r7, sp, #0
    4672:	60f8      	str	r0, [r7, #12]
    4674:	60b9      	str	r1, [r7, #8]
    4676:	1dfb      	adds	r3, r7, #7
    4678:	701a      	strb	r2, [r3, #0]
/home/guilherme/Documents/GER-SDP/KDS/SDP-2016/Debug/../Generated_Code/AdcLdd1.c:357
  AdcLdd1_TDeviceDataPtr DeviceDataPrv = (AdcLdd1_TDeviceDataPtr)DeviceDataPtr;
    467a:	68fb      	ldr	r3, [r7, #12]
    467c:	617b      	str	r3, [r7, #20]
/home/guilherme/Documents/GER-SDP/KDS/SDP-2016/Debug/../Generated_Code/AdcLdd1.c:361

  /* Sample count test - this test can be disabled by setting the "Ignore range checking"
     property to the "yes" value in the "Configuration inspector" */
  if ((SampleCount > AdcLdd1_MAX_HW_SAMPLE_COUNT) || (SampleCount == 0U)) { /* Is number of sample greater then supported by the HW? */
    467e:	1dfb      	adds	r3, r7, #7
    4680:	781b      	ldrb	r3, [r3, #0]
    4682:	2b01      	cmp	r3, #1
    4684:	d803      	bhi.n	468e <AdcLdd1_CreateSampleGroup+0x22>
/home/guilherme/Documents/GER-SDP/KDS/SDP-2016/Debug/../Generated_Code/AdcLdd1.c:361 (discriminator 1)
    4686:	1dfb      	adds	r3, r7, #7
    4688:	781b      	ldrb	r3, [r3, #0]
    468a:	2b00      	cmp	r3, #0
    468c:	d101      	bne.n	4692 <AdcLdd1_CreateSampleGroup+0x26>
/home/guilherme/Documents/GER-SDP/KDS/SDP-2016/Debug/../Generated_Code/AdcLdd1.c:362
    return ERR_PARAM_SAMPLE_COUNT;     /* Yes, return ERR_PARAM_SAMPLE_COUNT */
    468e:	2396      	movs	r3, #150	; 0x96
    4690:	e01a      	b.n	46c8 <AdcLdd1_CreateSampleGroup+0x5c>
/home/guilherme/Documents/GER-SDP/KDS/SDP-2016/Debug/../Generated_Code/AdcLdd1.c:364
  }
  if (ADC_PDD_GetConversionActiveFlag(ADC0_BASE_PTR) != 0U) { /* Last measurement still pending? */
    4692:	4b0f      	ldr	r3, [pc, #60]	; (46d0 <AdcLdd1_CreateSampleGroup+0x64>)
    4694:	6a1a      	ldr	r2, [r3, #32]
    4696:	2380      	movs	r3, #128	; 0x80
    4698:	4013      	ands	r3, r2
    469a:	d001      	beq.n	46a0 <AdcLdd1_CreateSampleGroup+0x34>
/home/guilherme/Documents/GER-SDP/KDS/SDP-2016/Debug/../Generated_Code/AdcLdd1.c:365
    return ERR_BUSY;                   /* Yes, return ERR_BUSY */
    469c:	2308      	movs	r3, #8
    469e:	e013      	b.n	46c8 <AdcLdd1_CreateSampleGroup+0x5c>
/home/guilherme/Documents/GER-SDP/KDS/SDP-2016/Debug/../Generated_Code/AdcLdd1.c:367
  }
  DeviceDataPrv->SampleCount = SampleCount; /* Remember sample count */
    46a0:	697b      	ldr	r3, [r7, #20]
    46a2:	1dfa      	adds	r2, r7, #7
    46a4:	7812      	ldrb	r2, [r2, #0]
    46a6:	701a      	strb	r2, [r3, #0]
/home/guilherme/Documents/GER-SDP/KDS/SDP-2016/Debug/../Generated_Code/AdcLdd1.c:370
  /* Channel index test - this test can be disabled by setting the "Ignore range checking"
     property to the "yes" value in the "Configuration inspector" */
  if (SampleGroupPtr[0].ChannelIdx >= AdcLdd1_CHANNEL_COUNT) { /* Is channel index out of range? */
    46a8:	68bb      	ldr	r3, [r7, #8]
    46aa:	781b      	ldrb	r3, [r3, #0]
    46ac:	2b01      	cmp	r3, #1
    46ae:	d901      	bls.n	46b4 <AdcLdd1_CreateSampleGroup+0x48>
/home/guilherme/Documents/GER-SDP/KDS/SDP-2016/Debug/../Generated_Code/AdcLdd1.c:371
    return ERR_PARAM_INDEX;            /* Yes, return ERR_PARAM_INDEX */
    46b0:	2382      	movs	r3, #130	; 0x82
    46b2:	e009      	b.n	46c8 <AdcLdd1_CreateSampleGroup+0x5c>
/home/guilherme/Documents/GER-SDP/KDS/SDP-2016/Debug/../Generated_Code/AdcLdd1.c:373
  }
  DeviceDataPrv->FirstSample = (ChannelToPin[SampleGroupPtr[0].ChannelIdx]) | (uint8_t)(LDD_ADC_ON_MEASUREMENT_COMPLETE); /* Remember first sample */
    46b4:	68bb      	ldr	r3, [r7, #8]
    46b6:	781b      	ldrb	r3, [r3, #0]
    46b8:	4a06      	ldr	r2, [pc, #24]	; (46d4 <AdcLdd1_CreateSampleGroup+0x68>)
    46ba:	5cd3      	ldrb	r3, [r2, r3]
    46bc:	2240      	movs	r2, #64	; 0x40
    46be:	4313      	orrs	r3, r2
    46c0:	b2da      	uxtb	r2, r3
    46c2:	697b      	ldr	r3, [r7, #20]
    46c4:	705a      	strb	r2, [r3, #1]
/home/guilherme/Documents/GER-SDP/KDS/SDP-2016/Debug/../Generated_Code/AdcLdd1.c:374
  return ERR_OK;                       /* OK */
    46c6:	2300      	movs	r3, #0
/home/guilherme/Documents/GER-SDP/KDS/SDP-2016/Debug/../Generated_Code/AdcLdd1.c:375
}
    46c8:	1c18      	adds	r0, r3, #0
    46ca:	46bd      	mov	sp, r7
    46cc:	b006      	add	sp, #24
    46ce:	bd80      	pop	{r7, pc}
    46d0:	4003b000 	.word	0x4003b000
    46d4:	000062f0 	.word	0x000062f0

000046d8 <AdcLdd1_GetMeasuredValues>:
AdcLdd1_GetMeasuredValues():
/home/guilherme/Documents/GER-SDP/KDS/SDP-2016/Debug/../Generated_Code/AdcLdd1.c:410
**                           active clock configuration
**                           ERR_DISABLED - Component is disabled
*/
/* ===================================================================*/
LDD_TError AdcLdd1_GetMeasuredValues(LDD_TDeviceData *DeviceDataPtr, LDD_TData *BufferPtr)
{
    46d8:	b580      	push	{r7, lr}
    46da:	b084      	sub	sp, #16
    46dc:	af00      	add	r7, sp, #0
    46de:	6078      	str	r0, [r7, #4]
    46e0:	6039      	str	r1, [r7, #0]
/home/guilherme/Documents/GER-SDP/KDS/SDP-2016/Debug/../Generated_Code/AdcLdd1.c:412
  uint8_t Sample;
  AdcLdd1_TResultData *pBuffer = (AdcLdd1_TResultData *)BufferPtr;
    46e2:	683b      	ldr	r3, [r7, #0]
    46e4:	60bb      	str	r3, [r7, #8]
/home/guilherme/Documents/GER-SDP/KDS/SDP-2016/Debug/../Generated_Code/AdcLdd1.c:416

  /* Copy values from result registers defined in the active sample
     group to the user supplied buffer */
  for (Sample = 0U; Sample < ((AdcLdd1_TDeviceDataPtr)DeviceDataPtr)->SampleCount; Sample++) {
    46e6:	1c3b      	adds	r3, r7, #0
    46e8:	330f      	adds	r3, #15
    46ea:	2200      	movs	r2, #0
    46ec:	701a      	strb	r2, [r3, #0]
    46ee:	e014      	b.n	471a <AdcLdd1_GetMeasuredValues+0x42>
/home/guilherme/Documents/GER-SDP/KDS/SDP-2016/Debug/../Generated_Code/AdcLdd1.c:417 (discriminator 2)
    pBuffer[Sample] =(uint8_t)(ADC_PDD_GetResultValueRaw(ADC0_BASE_PTR, Sample));
    46f0:	1c3b      	adds	r3, r7, #0
    46f2:	330f      	adds	r3, #15
    46f4:	781b      	ldrb	r3, [r3, #0]
    46f6:	68ba      	ldr	r2, [r7, #8]
    46f8:	18d3      	adds	r3, r2, r3
    46fa:	4a0e      	ldr	r2, [pc, #56]	; (4734 <AdcLdd1_GetMeasuredValues+0x5c>)
    46fc:	1c39      	adds	r1, r7, #0
    46fe:	310f      	adds	r1, #15
    4700:	7809      	ldrb	r1, [r1, #0]
    4702:	3104      	adds	r1, #4
    4704:	0089      	lsls	r1, r1, #2
    4706:	588a      	ldr	r2, [r1, r2]
    4708:	b2d2      	uxtb	r2, r2
    470a:	701a      	strb	r2, [r3, #0]
/home/guilherme/Documents/GER-SDP/KDS/SDP-2016/Debug/../Generated_Code/AdcLdd1.c:416 (discriminator 2)
  uint8_t Sample;
  AdcLdd1_TResultData *pBuffer = (AdcLdd1_TResultData *)BufferPtr;

  /* Copy values from result registers defined in the active sample
     group to the user supplied buffer */
  for (Sample = 0U; Sample < ((AdcLdd1_TDeviceDataPtr)DeviceDataPtr)->SampleCount; Sample++) {
    470c:	1c3b      	adds	r3, r7, #0
    470e:	330f      	adds	r3, #15
    4710:	781a      	ldrb	r2, [r3, #0]
    4712:	1c3b      	adds	r3, r7, #0
    4714:	330f      	adds	r3, #15
    4716:	3201      	adds	r2, #1
    4718:	701a      	strb	r2, [r3, #0]
/home/guilherme/Documents/GER-SDP/KDS/SDP-2016/Debug/../Generated_Code/AdcLdd1.c:416 (discriminator 1)
    471a:	687b      	ldr	r3, [r7, #4]
    471c:	781b      	ldrb	r3, [r3, #0]
    471e:	1c3a      	adds	r2, r7, #0
    4720:	320f      	adds	r2, #15
    4722:	7812      	ldrb	r2, [r2, #0]
    4724:	429a      	cmp	r2, r3
    4726:	d3e3      	bcc.n	46f0 <AdcLdd1_GetMeasuredValues+0x18>
/home/guilherme/Documents/GER-SDP/KDS/SDP-2016/Debug/../Generated_Code/AdcLdd1.c:419
    pBuffer[Sample] =(uint8_t)(ADC_PDD_GetResultValueRaw(ADC0_BASE_PTR, Sample));
  }
  return ERR_OK;                       /* OK */
    4728:	2300      	movs	r3, #0
/home/guilherme/Documents/GER-SDP/KDS/SDP-2016/Debug/../Generated_Code/AdcLdd1.c:420
}
    472a:	1c18      	adds	r0, r3, #0
    472c:	46bd      	mov	sp, r7
    472e:	b004      	add	sp, #16
    4730:	bd80      	pop	{r7, pc}
    4732:	46c0      	nop			; (mov r8, r8)
    4734:	4003b000 	.word	0x4003b000

00004738 <AdcLdd1_GetCalibrationResultStatus>:
AdcLdd1_GetCalibrationResultStatus():
/home/guilherme/Documents/GER-SDP/KDS/SDP-2016/Debug/../Generated_Code/AdcLdd1.c:508
**                           ERR_FAILED - Last calibration hasn't been
**                           finished correctly
*/
/* ===================================================================*/
LDD_TError AdcLdd1_GetCalibrationResultStatus(LDD_TDeviceData *DeviceDataPtr)
{
    4738:	b580      	push	{r7, lr}
    473a:	b084      	sub	sp, #16
    473c:	af00      	add	r7, sp, #0
    473e:	6078      	str	r0, [r7, #4]
/home/guilherme/Documents/GER-SDP/KDS/SDP-2016/Debug/../Generated_Code/AdcLdd1.c:512
  uint32_t GainValue;

  (void)DeviceDataPtr;                 /* Parameter is not used, suppress unused argument warning */
  if (ADC_PDD_GetCalibrationFailedStatusFlag(ADC0_BASE_PTR)) {
    4740:	4b2a      	ldr	r3, [pc, #168]	; (47ec <AdcLdd1_GetCalibrationResultStatus+0xb4>)
    4742:	6a5a      	ldr	r2, [r3, #36]	; 0x24
    4744:	2340      	movs	r3, #64	; 0x40
    4746:	4013      	ands	r3, r2
    4748:	d001      	beq.n	474e <AdcLdd1_GetCalibrationResultStatus+0x16>
/home/guilherme/Documents/GER-SDP/KDS/SDP-2016/Debug/../Generated_Code/AdcLdd1.c:513
    return ERR_FAILED;
    474a:	231b      	movs	r3, #27
    474c:	e04a      	b.n	47e4 <AdcLdd1_GetCalibrationResultStatus+0xac>
/home/guilherme/Documents/GER-SDP/KDS/SDP-2016/Debug/../Generated_Code/AdcLdd1.c:517
  }
  /* If calibration is successfully passed place calibrated value into gain registers */
  /* Cumulated gradually because of undefined behavior: the order of volatile accesses is undefined in this statement */
  GainValue = ADC_PDD_GetPlus0CalibrationValue(ADC0_BASE_PTR); /* Find plus gain value */
    474e:	4b27      	ldr	r3, [pc, #156]	; (47ec <AdcLdd1_GetCalibrationResultStatus+0xb4>)
    4750:	6cdb      	ldr	r3, [r3, #76]	; 0x4c
    4752:	60fb      	str	r3, [r7, #12]
/home/guilherme/Documents/GER-SDP/KDS/SDP-2016/Debug/../Generated_Code/AdcLdd1.c:518
  GainValue += ADC_PDD_GetPlus1CalibrationValue(ADC0_BASE_PTR);
    4754:	4b25      	ldr	r3, [pc, #148]	; (47ec <AdcLdd1_GetCalibrationResultStatus+0xb4>)
    4756:	6c9b      	ldr	r3, [r3, #72]	; 0x48
    4758:	68fa      	ldr	r2, [r7, #12]
    475a:	18d3      	adds	r3, r2, r3
    475c:	60fb      	str	r3, [r7, #12]
/home/guilherme/Documents/GER-SDP/KDS/SDP-2016/Debug/../Generated_Code/AdcLdd1.c:519
  GainValue += ADC_PDD_GetPlus2CalibrationValue(ADC0_BASE_PTR);
    475e:	4b23      	ldr	r3, [pc, #140]	; (47ec <AdcLdd1_GetCalibrationResultStatus+0xb4>)
    4760:	6c5b      	ldr	r3, [r3, #68]	; 0x44
    4762:	68fa      	ldr	r2, [r7, #12]
    4764:	18d3      	adds	r3, r2, r3
    4766:	60fb      	str	r3, [r7, #12]
/home/guilherme/Documents/GER-SDP/KDS/SDP-2016/Debug/../Generated_Code/AdcLdd1.c:520
  GainValue += ADC_PDD_GetPlus3CalibrationValue(ADC0_BASE_PTR);
    4768:	4b20      	ldr	r3, [pc, #128]	; (47ec <AdcLdd1_GetCalibrationResultStatus+0xb4>)
    476a:	6c1b      	ldr	r3, [r3, #64]	; 0x40
    476c:	68fa      	ldr	r2, [r7, #12]
    476e:	18d3      	adds	r3, r2, r3
    4770:	60fb      	str	r3, [r7, #12]
/home/guilherme/Documents/GER-SDP/KDS/SDP-2016/Debug/../Generated_Code/AdcLdd1.c:521
  GainValue += ADC_PDD_GetPlus4CalibrationValue(ADC0_BASE_PTR);
    4772:	4b1e      	ldr	r3, [pc, #120]	; (47ec <AdcLdd1_GetCalibrationResultStatus+0xb4>)
    4774:	6bdb      	ldr	r3, [r3, #60]	; 0x3c
    4776:	68fa      	ldr	r2, [r7, #12]
    4778:	18d3      	adds	r3, r2, r3
    477a:	60fb      	str	r3, [r7, #12]
/home/guilherme/Documents/GER-SDP/KDS/SDP-2016/Debug/../Generated_Code/AdcLdd1.c:522
  GainValue += ADC_PDD_GetPlusSCalibrationValue(ADC0_BASE_PTR);
    477c:	4b1b      	ldr	r3, [pc, #108]	; (47ec <AdcLdd1_GetCalibrationResultStatus+0xb4>)
    477e:	6b9b      	ldr	r3, [r3, #56]	; 0x38
    4780:	68fa      	ldr	r2, [r7, #12]
    4782:	18d3      	adds	r3, r2, r3
    4784:	60fb      	str	r3, [r7, #12]
/home/guilherme/Documents/GER-SDP/KDS/SDP-2016/Debug/../Generated_Code/AdcLdd1.c:523
  GainValue = (GainValue >> 1U) | 0x8000U;
    4786:	68fb      	ldr	r3, [r7, #12]
    4788:	085b      	lsrs	r3, r3, #1
    478a:	2280      	movs	r2, #128	; 0x80
    478c:	0212      	lsls	r2, r2, #8
    478e:	4313      	orrs	r3, r2
    4790:	60fb      	str	r3, [r7, #12]
/home/guilherme/Documents/GER-SDP/KDS/SDP-2016/Debug/../Generated_Code/AdcLdd1.c:524
  ADC_PDD_SetPlusGainValue(ADC0_BASE_PTR,GainValue); /* Set plus gain value */
    4792:	4b16      	ldr	r3, [pc, #88]	; (47ec <AdcLdd1_GetCalibrationResultStatus+0xb4>)
    4794:	68fa      	ldr	r2, [r7, #12]
    4796:	62da      	str	r2, [r3, #44]	; 0x2c
/home/guilherme/Documents/GER-SDP/KDS/SDP-2016/Debug/../Generated_Code/AdcLdd1.c:525
  GainValue = ADC_PDD_GetMinus0CalibrationValue(ADC0_BASE_PTR); /* Find minus gain value */
    4798:	4b14      	ldr	r3, [pc, #80]	; (47ec <AdcLdd1_GetCalibrationResultStatus+0xb4>)
    479a:	6edb      	ldr	r3, [r3, #108]	; 0x6c
    479c:	60fb      	str	r3, [r7, #12]
/home/guilherme/Documents/GER-SDP/KDS/SDP-2016/Debug/../Generated_Code/AdcLdd1.c:526
  GainValue += ADC_PDD_GetMinus1CalibrationValue(ADC0_BASE_PTR);
    479e:	4b13      	ldr	r3, [pc, #76]	; (47ec <AdcLdd1_GetCalibrationResultStatus+0xb4>)
    47a0:	6e9b      	ldr	r3, [r3, #104]	; 0x68
    47a2:	68fa      	ldr	r2, [r7, #12]
    47a4:	18d3      	adds	r3, r2, r3
    47a6:	60fb      	str	r3, [r7, #12]
/home/guilherme/Documents/GER-SDP/KDS/SDP-2016/Debug/../Generated_Code/AdcLdd1.c:527
  GainValue += ADC_PDD_GetMinus2CalibrationValue(ADC0_BASE_PTR);
    47a8:	4b10      	ldr	r3, [pc, #64]	; (47ec <AdcLdd1_GetCalibrationResultStatus+0xb4>)
    47aa:	6e5b      	ldr	r3, [r3, #100]	; 0x64
    47ac:	68fa      	ldr	r2, [r7, #12]
    47ae:	18d3      	adds	r3, r2, r3
    47b0:	60fb      	str	r3, [r7, #12]
/home/guilherme/Documents/GER-SDP/KDS/SDP-2016/Debug/../Generated_Code/AdcLdd1.c:528
  GainValue += ADC_PDD_GetMinus3CalibrationValue(ADC0_BASE_PTR);
    47b2:	4b0e      	ldr	r3, [pc, #56]	; (47ec <AdcLdd1_GetCalibrationResultStatus+0xb4>)
    47b4:	6e1b      	ldr	r3, [r3, #96]	; 0x60
    47b6:	68fa      	ldr	r2, [r7, #12]
    47b8:	18d3      	adds	r3, r2, r3
    47ba:	60fb      	str	r3, [r7, #12]
/home/guilherme/Documents/GER-SDP/KDS/SDP-2016/Debug/../Generated_Code/AdcLdd1.c:529
  GainValue += ADC_PDD_GetMinus4CalibrationValue(ADC0_BASE_PTR);
    47bc:	4b0b      	ldr	r3, [pc, #44]	; (47ec <AdcLdd1_GetCalibrationResultStatus+0xb4>)
    47be:	6ddb      	ldr	r3, [r3, #92]	; 0x5c
    47c0:	68fa      	ldr	r2, [r7, #12]
    47c2:	18d3      	adds	r3, r2, r3
    47c4:	60fb      	str	r3, [r7, #12]
/home/guilherme/Documents/GER-SDP/KDS/SDP-2016/Debug/../Generated_Code/AdcLdd1.c:530
  GainValue += ADC_PDD_GetMinusSCalibrationValue(ADC0_BASE_PTR);
    47c6:	4b09      	ldr	r3, [pc, #36]	; (47ec <AdcLdd1_GetCalibrationResultStatus+0xb4>)
    47c8:	6d9b      	ldr	r3, [r3, #88]	; 0x58
    47ca:	68fa      	ldr	r2, [r7, #12]
    47cc:	18d3      	adds	r3, r2, r3
    47ce:	60fb      	str	r3, [r7, #12]
/home/guilherme/Documents/GER-SDP/KDS/SDP-2016/Debug/../Generated_Code/AdcLdd1.c:531
  GainValue =  (GainValue >> 1U) | 0x8000U;
    47d0:	68fb      	ldr	r3, [r7, #12]
    47d2:	085b      	lsrs	r3, r3, #1
    47d4:	2280      	movs	r2, #128	; 0x80
    47d6:	0212      	lsls	r2, r2, #8
    47d8:	4313      	orrs	r3, r2
    47da:	60fb      	str	r3, [r7, #12]
/home/guilherme/Documents/GER-SDP/KDS/SDP-2016/Debug/../Generated_Code/AdcLdd1.c:532
  ADC_PDD_SetMinusGainValue(ADC0_BASE_PTR,GainValue); /* Set minus gain value */
    47dc:	4b03      	ldr	r3, [pc, #12]	; (47ec <AdcLdd1_GetCalibrationResultStatus+0xb4>)
    47de:	68fa      	ldr	r2, [r7, #12]
    47e0:	631a      	str	r2, [r3, #48]	; 0x30
/home/guilherme/Documents/GER-SDP/KDS/SDP-2016/Debug/../Generated_Code/AdcLdd1.c:533
  return ERR_OK;
    47e2:	2300      	movs	r3, #0
/home/guilherme/Documents/GER-SDP/KDS/SDP-2016/Debug/../Generated_Code/AdcLdd1.c:534
}
    47e4:	1c18      	adds	r0, r3, #0
    47e6:	46bd      	mov	sp, r7
    47e8:	b004      	add	sp, #16
    47ea:	bd80      	pop	{r7, pc}
    47ec:	4003b000 	.word	0x4003b000

000047f0 <AdcLdd1_MeasurementCompleteInterrupt>:
AdcLdd1_MeasurementCompleteInterrupt():
/home/guilherme/Documents/GER-SDP/KDS/SDP-2016/Debug/../Generated_Code/AdcLdd1.c:546
**         Measurement complete interrupt handler
**         This method is internal. It is used by Processor Expert only.
** ===================================================================
*/
PE_ISR(AdcLdd1_MeasurementCompleteInterrupt)
{
    47f0:	b580      	push	{r7, lr}
    47f2:	b082      	sub	sp, #8
    47f4:	af00      	add	r7, sp, #0
/home/guilherme/Documents/GER-SDP/KDS/SDP-2016/Debug/../Generated_Code/AdcLdd1.c:548
  /* {Default RTOS Adapter} ISR parameter is passed through the global variable */
  AdcLdd1_TDeviceDataPtr DeviceDataPrv = INT_ADC0__DEFAULT_RTOS_ISRPARAM;
    47f6:	4b08      	ldr	r3, [pc, #32]	; (4818 <AdcLdd1_MeasurementCompleteInterrupt+0x28>)
    47f8:	681b      	ldr	r3, [r3, #0]
    47fa:	607b      	str	r3, [r7, #4]
/home/guilherme/Documents/GER-SDP/KDS/SDP-2016/Debug/../Generated_Code/AdcLdd1.c:549
  DeviceDataPrv->CompleteStatus = TRUE; /* Set measurement complete status flag */
    47fc:	687b      	ldr	r3, [r7, #4]
    47fe:	2201      	movs	r2, #1
    4800:	709a      	strb	r2, [r3, #2]
/home/guilherme/Documents/GER-SDP/KDS/SDP-2016/Debug/../Generated_Code/AdcLdd1.c:550
  AdcLdd1_OnMeasurementComplete(DeviceDataPrv->UserData);
    4802:	687b      	ldr	r3, [r7, #4]
    4804:	685b      	ldr	r3, [r3, #4]
    4806:	1c18      	adds	r0, r3, #0
    4808:	f7ff fe0c 	bl	4424 <AdcLdd1_OnMeasurementComplete>
/home/guilherme/Documents/GER-SDP/KDS/SDP-2016/Debug/../Generated_Code/AdcLdd1.c:551
  (void)ADC_PDD_GetResultValueRaw(ADC0_BASE_PTR, 0U); /* Clear conversion complete flag */
    480c:	4b03      	ldr	r3, [pc, #12]	; (481c <AdcLdd1_MeasurementCompleteInterrupt+0x2c>)
    480e:	691b      	ldr	r3, [r3, #16]
/home/guilherme/Documents/GER-SDP/KDS/SDP-2016/Debug/../Generated_Code/AdcLdd1.c:552
}
    4810:	46bd      	mov	sp, r7
    4812:	b002      	add	sp, #8
    4814:	bd80      	pop	{r7, pc}
    4816:	46c0      	nop			; (mov r8, r8)
    4818:	1ffff098 	.word	0x1ffff098
    481c:	4003b000 	.word	0x4003b000

00004820 <BitIoLdd1_Init>:
BitIoLdd1_Init():
/home/guilherme/Documents/GER-SDP/KDS/SDP-2016/Debug/../Generated_Code/BitIoLdd1.c:123
**                         - Pointer to the dynamically allocated private
**                           structure or NULL if there was an error.
*/
/* ===================================================================*/
LDD_TDeviceData* BitIoLdd1_Init(LDD_TUserData *UserDataPtr)
{
    4820:	b580      	push	{r7, lr}
    4822:	b084      	sub	sp, #16
    4824:	af00      	add	r7, sp, #0
    4826:	6078      	str	r0, [r7, #4]
/home/guilherme/Documents/GER-SDP/KDS/SDP-2016/Debug/../Generated_Code/BitIoLdd1.c:128
  /* Allocate device structure */
  BitIoLdd1_TDeviceDataPtr DeviceDataPrv;

  /* {Default RTOS Adapter} Driver memory allocation: Dynamic allocation is simulated by a pointer to the static object */
  DeviceDataPrv = &DeviceDataPrv__DEFAULT_RTOS_ALLOC;
    4828:	4b10      	ldr	r3, [pc, #64]	; (486c <BitIoLdd1_Init+0x4c>)
    482a:	60fb      	str	r3, [r7, #12]
/home/guilherme/Documents/GER-SDP/KDS/SDP-2016/Debug/../Generated_Code/BitIoLdd1.c:129
  DeviceDataPrv->UserDataPtr = UserDataPtr; /* Store the RTOS device structure */
    482c:	68fb      	ldr	r3, [r7, #12]
    482e:	687a      	ldr	r2, [r7, #4]
    4830:	601a      	str	r2, [r3, #0]
/home/guilherme/Documents/GER-SDP/KDS/SDP-2016/Debug/../Generated_Code/BitIoLdd1.c:132
  /* Configure pin as output */
  /* GPIOD_PDDR: PDD|=0x80 */
  GPIOD_PDDR |= GPIO_PDDR_PDD(0x80);
    4832:	4b0f      	ldr	r3, [pc, #60]	; (4870 <BitIoLdd1_Init+0x50>)
    4834:	4a0e      	ldr	r2, [pc, #56]	; (4870 <BitIoLdd1_Init+0x50>)
    4836:	6952      	ldr	r2, [r2, #20]
    4838:	2180      	movs	r1, #128	; 0x80
    483a:	430a      	orrs	r2, r1
    483c:	615a      	str	r2, [r3, #20]
/home/guilherme/Documents/GER-SDP/KDS/SDP-2016/Debug/../Generated_Code/BitIoLdd1.c:135
  /* Set initialization value */
  /* GPIOD_PDOR: PDO&=~0x80 */
  GPIOD_PDOR &= (uint32_t)~(uint32_t)(GPIO_PDOR_PDO(0x80));
    483e:	4b0c      	ldr	r3, [pc, #48]	; (4870 <BitIoLdd1_Init+0x50>)
    4840:	4a0b      	ldr	r2, [pc, #44]	; (4870 <BitIoLdd1_Init+0x50>)
    4842:	6812      	ldr	r2, [r2, #0]
    4844:	2180      	movs	r1, #128	; 0x80
    4846:	438a      	bics	r2, r1
    4848:	601a      	str	r2, [r3, #0]
/home/guilherme/Documents/GER-SDP/KDS/SDP-2016/Debug/../Generated_Code/BitIoLdd1.c:138
  /* Initialization of Port Control register */
  /* PORTD_PCR7: ISF=0,MUX=1 */
  PORTD_PCR7 = (uint32_t)((PORTD_PCR7 & (uint32_t)~(uint32_t)(
    484a:	4b0a      	ldr	r3, [pc, #40]	; (4874 <BitIoLdd1_Init+0x54>)
    484c:	4a09      	ldr	r2, [pc, #36]	; (4874 <BitIoLdd1_Init+0x54>)
    484e:	69d1      	ldr	r1, [r2, #28]
    4850:	4a09      	ldr	r2, [pc, #36]	; (4878 <BitIoLdd1_Init+0x58>)
    4852:	400a      	ands	r2, r1
    4854:	2180      	movs	r1, #128	; 0x80
    4856:	0049      	lsls	r1, r1, #1
    4858:	430a      	orrs	r2, r1
    485a:	61da      	str	r2, [r3, #28]
/home/guilherme/Documents/GER-SDP/KDS/SDP-2016/Debug/../Generated_Code/BitIoLdd1.c:145
                PORT_PCR_MUX(0x06)
               )) | (uint32_t)(
                PORT_PCR_MUX(0x01)
               ));
  /* Registration of the device structure */
  PE_LDD_RegisterDeviceStructure(PE_LDD_COMPONENT_BitIoLdd1_ID,DeviceDataPrv);
    485c:	4b07      	ldr	r3, [pc, #28]	; (487c <BitIoLdd1_Init+0x5c>)
    485e:	68fa      	ldr	r2, [r7, #12]
    4860:	601a      	str	r2, [r3, #0]
/home/guilherme/Documents/GER-SDP/KDS/SDP-2016/Debug/../Generated_Code/BitIoLdd1.c:146
  return ((LDD_TDeviceData *)DeviceDataPrv);
    4862:	68fb      	ldr	r3, [r7, #12]
/home/guilherme/Documents/GER-SDP/KDS/SDP-2016/Debug/../Generated_Code/BitIoLdd1.c:147
}
    4864:	1c18      	adds	r0, r3, #0
    4866:	46bd      	mov	sp, r7
    4868:	b004      	add	sp, #16
    486a:	bd80      	pop	{r7, pc}
    486c:	1ffff09c 	.word	0x1ffff09c
    4870:	400ff0c0 	.word	0x400ff0c0
    4874:	4004c000 	.word	0x4004c000
    4878:	fefff8ff 	.word	0xfefff8ff
    487c:	1ffff0d8 	.word	0x1ffff0d8

00004880 <BitIoLdd1_GetVal>:
BitIoLdd1_GetVal():
/home/guilherme/Documents/GER-SDP/KDS/SDP-2016/Debug/../Generated_Code/BitIoLdd1.c:169
**                           <false> - logical "0" (Low level)
**                           <true> - logical "1" (High level)
*/
/* ===================================================================*/
bool BitIoLdd1_GetVal(LDD_TDeviceData *DeviceDataPtr)
{
    4880:	b580      	push	{r7, lr}
    4882:	b084      	sub	sp, #16
    4884:	af00      	add	r7, sp, #0
    4886:	6078      	str	r0, [r7, #4]
/home/guilherme/Documents/GER-SDP/KDS/SDP-2016/Debug/../Generated_Code/BitIoLdd1.c:173
  uint32_t PortData;                   /* Port data masked according to the bit used */

  (void)DeviceDataPtr;                 /* Parameter is not used, suppress unused argument warning */
  PortData = GPIO_PDD_GetPortDataOutput(BitIoLdd1_MODULE_BASE_ADDRESS) & BitIoLdd1_PORT_MASK;
    4888:	4b06      	ldr	r3, [pc, #24]	; (48a4 <BitIoLdd1_GetVal+0x24>)
    488a:	681a      	ldr	r2, [r3, #0]
    488c:	2380      	movs	r3, #128	; 0x80
    488e:	4013      	ands	r3, r2
    4890:	60fb      	str	r3, [r7, #12]
/home/guilherme/Documents/GER-SDP/KDS/SDP-2016/Debug/../Generated_Code/BitIoLdd1.c:174
  return (PortData != 0U) ? (bool)TRUE : (bool)FALSE;
    4892:	68fb      	ldr	r3, [r7, #12]
    4894:	1e5a      	subs	r2, r3, #1
    4896:	4193      	sbcs	r3, r2
    4898:	b2db      	uxtb	r3, r3
/home/guilherme/Documents/GER-SDP/KDS/SDP-2016/Debug/../Generated_Code/BitIoLdd1.c:175
}
    489a:	1c18      	adds	r0, r3, #0
    489c:	46bd      	mov	sp, r7
    489e:	b004      	add	sp, #16
    48a0:	bd80      	pop	{r7, pc}
    48a2:	46c0      	nop			; (mov r8, r8)
    48a4:	f80ff0c0 	.word	0xf80ff0c0

000048a8 <BitIoLdd1_ClrVal>:
BitIoLdd1_ClrVal():
/home/guilherme/Documents/GER-SDP/KDS/SDP-2016/Debug/../Generated_Code/BitIoLdd1.c:226
**         DeviceDataPtr   - Pointer to device data
**                           structure returned by <Init> method.
*/
/* ===================================================================*/
void BitIoLdd1_ClrVal(LDD_TDeviceData *DeviceDataPtr)
{
    48a8:	b580      	push	{r7, lr}
    48aa:	b082      	sub	sp, #8
    48ac:	af00      	add	r7, sp, #0
    48ae:	6078      	str	r0, [r7, #4]
/home/guilherme/Documents/GER-SDP/KDS/SDP-2016/Debug/../Generated_Code/BitIoLdd1.c:228
  (void)DeviceDataPtr;                 /* Parameter is not used, suppress unused argument warning */
  GPIO_PDD_ClearPortDataOutputMask(BitIoLdd1_MODULE_BASE_ADDRESS, BitIoLdd1_PORT_MASK);
    48b0:	4b02      	ldr	r3, [pc, #8]	; (48bc <BitIoLdd1_ClrVal+0x14>)
    48b2:	2280      	movs	r2, #128	; 0x80
    48b4:	609a      	str	r2, [r3, #8]
/home/guilherme/Documents/GER-SDP/KDS/SDP-2016/Debug/../Generated_Code/BitIoLdd1.c:229
}
    48b6:	46bd      	mov	sp, r7
    48b8:	b002      	add	sp, #8
    48ba:	bd80      	pop	{r7, pc}
    48bc:	f80ff0c0 	.word	0xf80ff0c0

000048c0 <BitIoLdd1_SetVal>:
BitIoLdd1_SetVal():
/home/guilherme/Documents/GER-SDP/KDS/SDP-2016/Debug/../Generated_Code/BitIoLdd1.c:246
**         DeviceDataPtr   - Pointer to device data
**                           structure returned by <Init> method.
*/
/* ===================================================================*/
void BitIoLdd1_SetVal(LDD_TDeviceData *DeviceDataPtr)
{
    48c0:	b580      	push	{r7, lr}
    48c2:	b082      	sub	sp, #8
    48c4:	af00      	add	r7, sp, #0
    48c6:	6078      	str	r0, [r7, #4]
/home/guilherme/Documents/GER-SDP/KDS/SDP-2016/Debug/../Generated_Code/BitIoLdd1.c:248
  (void)DeviceDataPtr;                 /* Parameter is not used, suppress unused argument warning */
  GPIO_PDD_SetPortDataOutputMask(BitIoLdd1_MODULE_BASE_ADDRESS, BitIoLdd1_PORT_MASK);
    48c8:	4b02      	ldr	r3, [pc, #8]	; (48d4 <BitIoLdd1_SetVal+0x14>)
    48ca:	2280      	movs	r2, #128	; 0x80
    48cc:	605a      	str	r2, [r3, #4]
/home/guilherme/Documents/GER-SDP/KDS/SDP-2016/Debug/../Generated_Code/BitIoLdd1.c:249
}
    48ce:	46bd      	mov	sp, r7
    48d0:	b002      	add	sp, #8
    48d2:	bd80      	pop	{r7, pc}
    48d4:	f80ff0c0 	.word	0xf80ff0c0

000048d8 <BitIoLdd10_Init>:
BitIoLdd10_Init():
/home/guilherme/Documents/GER-SDP/KDS/SDP-2016/Debug/../Generated_Code/BitIoLdd10.c:122
**                         - Pointer to the dynamically allocated private
**                           structure or NULL if there was an error.
*/
/* ===================================================================*/
LDD_TDeviceData* BitIoLdd10_Init(LDD_TUserData *UserDataPtr)
{
    48d8:	b580      	push	{r7, lr}
    48da:	b084      	sub	sp, #16
    48dc:	af00      	add	r7, sp, #0
    48de:	6078      	str	r0, [r7, #4]
/home/guilherme/Documents/GER-SDP/KDS/SDP-2016/Debug/../Generated_Code/BitIoLdd10.c:127
  /* Allocate device structure */
  BitIoLdd10_TDeviceDataPtr DeviceDataPrv;

  /* {Default RTOS Adapter} Driver memory allocation: Dynamic allocation is simulated by a pointer to the static object */
  DeviceDataPrv = &DeviceDataPrv__DEFAULT_RTOS_ALLOC;
    48e0:	4b10      	ldr	r3, [pc, #64]	; (4924 <BitIoLdd10_Init+0x4c>)
    48e2:	60fb      	str	r3, [r7, #12]
/home/guilherme/Documents/GER-SDP/KDS/SDP-2016/Debug/../Generated_Code/BitIoLdd10.c:128
  DeviceDataPrv->UserDataPtr = UserDataPtr; /* Store the RTOS device structure */
    48e4:	68fb      	ldr	r3, [r7, #12]
    48e6:	687a      	ldr	r2, [r7, #4]
    48e8:	601a      	str	r2, [r3, #0]
/home/guilherme/Documents/GER-SDP/KDS/SDP-2016/Debug/../Generated_Code/BitIoLdd10.c:131
  /* Configure pin as output */
  /* GPIOE_PDDR: PDD|=1 */
  GPIOE_PDDR |= GPIO_PDDR_PDD(0x01);
    48ea:	4b0f      	ldr	r3, [pc, #60]	; (4928 <BitIoLdd10_Init+0x50>)
    48ec:	4a0e      	ldr	r2, [pc, #56]	; (4928 <BitIoLdd10_Init+0x50>)
    48ee:	6952      	ldr	r2, [r2, #20]
    48f0:	2101      	movs	r1, #1
    48f2:	430a      	orrs	r2, r1
    48f4:	615a      	str	r2, [r3, #20]
/home/guilherme/Documents/GER-SDP/KDS/SDP-2016/Debug/../Generated_Code/BitIoLdd10.c:134
  /* Set initialization value */
  /* GPIOE_PDOR: PDO|=1 */
  GPIOE_PDOR |= GPIO_PDOR_PDO(0x01);
    48f6:	4b0c      	ldr	r3, [pc, #48]	; (4928 <BitIoLdd10_Init+0x50>)
    48f8:	4a0b      	ldr	r2, [pc, #44]	; (4928 <BitIoLdd10_Init+0x50>)
    48fa:	6812      	ldr	r2, [r2, #0]
    48fc:	2101      	movs	r1, #1
    48fe:	430a      	orrs	r2, r1
    4900:	601a      	str	r2, [r3, #0]
/home/guilherme/Documents/GER-SDP/KDS/SDP-2016/Debug/../Generated_Code/BitIoLdd10.c:137
  /* Initialization of Port Control register */
  /* PORTE_PCR0: ISF=0,MUX=1 */
  PORTE_PCR0 = (uint32_t)((PORTE_PCR0 & (uint32_t)~(uint32_t)(
    4902:	4b0a      	ldr	r3, [pc, #40]	; (492c <BitIoLdd10_Init+0x54>)
    4904:	4a09      	ldr	r2, [pc, #36]	; (492c <BitIoLdd10_Init+0x54>)
    4906:	6811      	ldr	r1, [r2, #0]
    4908:	4a09      	ldr	r2, [pc, #36]	; (4930 <BitIoLdd10_Init+0x58>)
    490a:	400a      	ands	r2, r1
    490c:	2180      	movs	r1, #128	; 0x80
    490e:	0049      	lsls	r1, r1, #1
    4910:	430a      	orrs	r2, r1
    4912:	601a      	str	r2, [r3, #0]
/home/guilherme/Documents/GER-SDP/KDS/SDP-2016/Debug/../Generated_Code/BitIoLdd10.c:144
                PORT_PCR_MUX(0x06)
               )) | (uint32_t)(
                PORT_PCR_MUX(0x01)
               ));
  /* Registration of the device structure */
  PE_LDD_RegisterDeviceStructure(PE_LDD_COMPONENT_BitIoLdd10_ID,DeviceDataPrv);
    4914:	4b07      	ldr	r3, [pc, #28]	; (4934 <BitIoLdd10_Init+0x5c>)
    4916:	68fa      	ldr	r2, [r7, #12]
    4918:	651a      	str	r2, [r3, #80]	; 0x50
/home/guilherme/Documents/GER-SDP/KDS/SDP-2016/Debug/../Generated_Code/BitIoLdd10.c:145
  return ((LDD_TDeviceData *)DeviceDataPrv);
    491a:	68fb      	ldr	r3, [r7, #12]
/home/guilherme/Documents/GER-SDP/KDS/SDP-2016/Debug/../Generated_Code/BitIoLdd10.c:146
}
    491c:	1c18      	adds	r0, r3, #0
    491e:	46bd      	mov	sp, r7
    4920:	b004      	add	sp, #16
    4922:	bd80      	pop	{r7, pc}
    4924:	1ffff0a0 	.word	0x1ffff0a0
    4928:	400ff100 	.word	0x400ff100
    492c:	4004d000 	.word	0x4004d000
    4930:	fefff8ff 	.word	0xfefff8ff
    4934:	1ffff0d8 	.word	0x1ffff0d8

00004938 <BitIoLdd11_Init>:
BitIoLdd11_Init():
/home/guilherme/Documents/GER-SDP/KDS/SDP-2016/Debug/../Generated_Code/BitIoLdd11.c:122
**                         - Pointer to the dynamically allocated private
**                           structure or NULL if there was an error.
*/
/* ===================================================================*/
LDD_TDeviceData* BitIoLdd11_Init(LDD_TUserData *UserDataPtr)
{
    4938:	b580      	push	{r7, lr}
    493a:	b084      	sub	sp, #16
    493c:	af00      	add	r7, sp, #0
    493e:	6078      	str	r0, [r7, #4]
/home/guilherme/Documents/GER-SDP/KDS/SDP-2016/Debug/../Generated_Code/BitIoLdd11.c:127
  /* Allocate device structure */
  BitIoLdd11_TDeviceDataPtr DeviceDataPrv;

  /* {Default RTOS Adapter} Driver memory allocation: Dynamic allocation is simulated by a pointer to the static object */
  DeviceDataPrv = &DeviceDataPrv__DEFAULT_RTOS_ALLOC;
    4940:	4b10      	ldr	r3, [pc, #64]	; (4984 <BitIoLdd11_Init+0x4c>)
    4942:	60fb      	str	r3, [r7, #12]
/home/guilherme/Documents/GER-SDP/KDS/SDP-2016/Debug/../Generated_Code/BitIoLdd11.c:128
  DeviceDataPrv->UserDataPtr = UserDataPtr; /* Store the RTOS device structure */
    4944:	68fb      	ldr	r3, [r7, #12]
    4946:	687a      	ldr	r2, [r7, #4]
    4948:	601a      	str	r2, [r3, #0]
/home/guilherme/Documents/GER-SDP/KDS/SDP-2016/Debug/../Generated_Code/BitIoLdd11.c:131
  /* Configure pin as output */
  /* GPIOD_PDDR: PDD|=2 */
  GPIOD_PDDR |= GPIO_PDDR_PDD(0x02);
    494a:	4b0f      	ldr	r3, [pc, #60]	; (4988 <BitIoLdd11_Init+0x50>)
    494c:	4a0e      	ldr	r2, [pc, #56]	; (4988 <BitIoLdd11_Init+0x50>)
    494e:	6952      	ldr	r2, [r2, #20]
    4950:	2102      	movs	r1, #2
    4952:	430a      	orrs	r2, r1
    4954:	615a      	str	r2, [r3, #20]
/home/guilherme/Documents/GER-SDP/KDS/SDP-2016/Debug/../Generated_Code/BitIoLdd11.c:134
  /* Set initialization value */
  /* GPIOD_PDOR: PDO|=2 */
  GPIOD_PDOR |= GPIO_PDOR_PDO(0x02);
    4956:	4b0c      	ldr	r3, [pc, #48]	; (4988 <BitIoLdd11_Init+0x50>)
    4958:	4a0b      	ldr	r2, [pc, #44]	; (4988 <BitIoLdd11_Init+0x50>)
    495a:	6812      	ldr	r2, [r2, #0]
    495c:	2102      	movs	r1, #2
    495e:	430a      	orrs	r2, r1
    4960:	601a      	str	r2, [r3, #0]
/home/guilherme/Documents/GER-SDP/KDS/SDP-2016/Debug/../Generated_Code/BitIoLdd11.c:137
  /* Initialization of Port Control register */
  /* PORTD_PCR1: ISF=0,MUX=1 */
  PORTD_PCR1 = (uint32_t)((PORTD_PCR1 & (uint32_t)~(uint32_t)(
    4962:	4b0a      	ldr	r3, [pc, #40]	; (498c <BitIoLdd11_Init+0x54>)
    4964:	4a09      	ldr	r2, [pc, #36]	; (498c <BitIoLdd11_Init+0x54>)
    4966:	6851      	ldr	r1, [r2, #4]
    4968:	4a09      	ldr	r2, [pc, #36]	; (4990 <BitIoLdd11_Init+0x58>)
    496a:	400a      	ands	r2, r1
    496c:	2180      	movs	r1, #128	; 0x80
    496e:	0049      	lsls	r1, r1, #1
    4970:	430a      	orrs	r2, r1
    4972:	605a      	str	r2, [r3, #4]
/home/guilherme/Documents/GER-SDP/KDS/SDP-2016/Debug/../Generated_Code/BitIoLdd11.c:144
                PORT_PCR_MUX(0x06)
               )) | (uint32_t)(
                PORT_PCR_MUX(0x01)
               ));
  /* Registration of the device structure */
  PE_LDD_RegisterDeviceStructure(PE_LDD_COMPONENT_BitIoLdd11_ID,DeviceDataPrv);
    4974:	4b07      	ldr	r3, [pc, #28]	; (4994 <BitIoLdd11_Init+0x5c>)
    4976:	68fa      	ldr	r2, [r7, #12]
    4978:	655a      	str	r2, [r3, #84]	; 0x54
/home/guilherme/Documents/GER-SDP/KDS/SDP-2016/Debug/../Generated_Code/BitIoLdd11.c:145
  return ((LDD_TDeviceData *)DeviceDataPrv);
    497a:	68fb      	ldr	r3, [r7, #12]
/home/guilherme/Documents/GER-SDP/KDS/SDP-2016/Debug/../Generated_Code/BitIoLdd11.c:146
}
    497c:	1c18      	adds	r0, r3, #0
    497e:	46bd      	mov	sp, r7
    4980:	b004      	add	sp, #16
    4982:	bd80      	pop	{r7, pc}
    4984:	1ffff0a4 	.word	0x1ffff0a4
    4988:	400ff0c0 	.word	0x400ff0c0
    498c:	4004c000 	.word	0x4004c000
    4990:	fefff8ff 	.word	0xfefff8ff
    4994:	1ffff0d8 	.word	0x1ffff0d8

00004998 <BitIoLdd12_Init>:
BitIoLdd12_Init():
/home/guilherme/Documents/GER-SDP/KDS/SDP-2016/Debug/../Generated_Code/BitIoLdd12.c:119
**                         - Pointer to the dynamically allocated private
**                           structure or NULL if there was an error.
*/
/* ===================================================================*/
LDD_TDeviceData* BitIoLdd12_Init(LDD_TUserData *UserDataPtr)
{
    4998:	b580      	push	{r7, lr}
    499a:	b084      	sub	sp, #16
    499c:	af00      	add	r7, sp, #0
    499e:	6078      	str	r0, [r7, #4]
/home/guilherme/Documents/GER-SDP/KDS/SDP-2016/Debug/../Generated_Code/BitIoLdd12.c:124
  /* Allocate device structure */
  BitIoLdd12_TDeviceDataPtr DeviceDataPrv;

  /* {Default RTOS Adapter} Driver memory allocation: Dynamic allocation is simulated by a pointer to the static object */
  DeviceDataPrv = &DeviceDataPrv__DEFAULT_RTOS_ALLOC;
    49a0:	4b0d      	ldr	r3, [pc, #52]	; (49d8 <BitIoLdd12_Init+0x40>)
    49a2:	60fb      	str	r3, [r7, #12]
/home/guilherme/Documents/GER-SDP/KDS/SDP-2016/Debug/../Generated_Code/BitIoLdd12.c:125
  DeviceDataPrv->UserDataPtr = UserDataPtr; /* Store the RTOS device structure */
    49a4:	68fb      	ldr	r3, [r7, #12]
    49a6:	687a      	ldr	r2, [r7, #4]
    49a8:	601a      	str	r2, [r3, #0]
/home/guilherme/Documents/GER-SDP/KDS/SDP-2016/Debug/../Generated_Code/BitIoLdd12.c:128
  /* Configure pin as input */
  /* GPIOE_PDDR: PDD&=~4 */
  GPIOE_PDDR &= (uint32_t)~(uint32_t)(GPIO_PDDR_PDD(0x04));
    49aa:	4b0c      	ldr	r3, [pc, #48]	; (49dc <BitIoLdd12_Init+0x44>)
    49ac:	4a0b      	ldr	r2, [pc, #44]	; (49dc <BitIoLdd12_Init+0x44>)
    49ae:	6952      	ldr	r2, [r2, #20]
    49b0:	2104      	movs	r1, #4
    49b2:	438a      	bics	r2, r1
    49b4:	615a      	str	r2, [r3, #20]
/home/guilherme/Documents/GER-SDP/KDS/SDP-2016/Debug/../Generated_Code/BitIoLdd12.c:131
  /* Initialization of Port Control register */
  /* PORTE_PCR2: ISF=0,MUX=1 */
  PORTE_PCR2 = (uint32_t)((PORTE_PCR2 & (uint32_t)~(uint32_t)(
    49b6:	4b0a      	ldr	r3, [pc, #40]	; (49e0 <BitIoLdd12_Init+0x48>)
    49b8:	4a09      	ldr	r2, [pc, #36]	; (49e0 <BitIoLdd12_Init+0x48>)
    49ba:	6891      	ldr	r1, [r2, #8]
    49bc:	4a09      	ldr	r2, [pc, #36]	; (49e4 <BitIoLdd12_Init+0x4c>)
    49be:	400a      	ands	r2, r1
    49c0:	2180      	movs	r1, #128	; 0x80
    49c2:	0049      	lsls	r1, r1, #1
    49c4:	430a      	orrs	r2, r1
    49c6:	609a      	str	r2, [r3, #8]
/home/guilherme/Documents/GER-SDP/KDS/SDP-2016/Debug/../Generated_Code/BitIoLdd12.c:138
                PORT_PCR_MUX(0x06)
               )) | (uint32_t)(
                PORT_PCR_MUX(0x01)
               ));
  /* Registration of the device structure */
  PE_LDD_RegisterDeviceStructure(PE_LDD_COMPONENT_BitIoLdd12_ID,DeviceDataPrv);
    49c8:	4b07      	ldr	r3, [pc, #28]	; (49e8 <BitIoLdd12_Init+0x50>)
    49ca:	68fa      	ldr	r2, [r7, #12]
    49cc:	659a      	str	r2, [r3, #88]	; 0x58
/home/guilherme/Documents/GER-SDP/KDS/SDP-2016/Debug/../Generated_Code/BitIoLdd12.c:139
  return ((LDD_TDeviceData *)DeviceDataPrv);
    49ce:	68fb      	ldr	r3, [r7, #12]
/home/guilherme/Documents/GER-SDP/KDS/SDP-2016/Debug/../Generated_Code/BitIoLdd12.c:140
}
    49d0:	1c18      	adds	r0, r3, #0
    49d2:	46bd      	mov	sp, r7
    49d4:	b004      	add	sp, #16
    49d6:	bd80      	pop	{r7, pc}
    49d8:	1ffff0a8 	.word	0x1ffff0a8
    49dc:	400ff100 	.word	0x400ff100
    49e0:	4004d000 	.word	0x4004d000
    49e4:	fefff8ff 	.word	0xfefff8ff
    49e8:	1ffff0d8 	.word	0x1ffff0d8

000049ec <BitIoLdd12_GetVal>:
BitIoLdd12_GetVal():
/home/guilherme/Documents/GER-SDP/KDS/SDP-2016/Debug/../Generated_Code/BitIoLdd12.c:162
**                           <false> - logical "0" (Low level)
**                           <true> - logical "1" (High level)
*/
/* ===================================================================*/
bool BitIoLdd12_GetVal(LDD_TDeviceData *DeviceDataPtr)
{
    49ec:	b580      	push	{r7, lr}
    49ee:	b084      	sub	sp, #16
    49f0:	af00      	add	r7, sp, #0
    49f2:	6078      	str	r0, [r7, #4]
/home/guilherme/Documents/GER-SDP/KDS/SDP-2016/Debug/../Generated_Code/BitIoLdd12.c:166
  uint32_t PortData;                   /* Port data masked according to the bit used */

  (void)DeviceDataPtr;                 /* Parameter is not used, suppress unused argument warning */
  PortData = GPIO_PDD_GetPortDataInput(BitIoLdd12_MODULE_BASE_ADDRESS) & BitIoLdd12_PORT_MASK;
    49f4:	4b06      	ldr	r3, [pc, #24]	; (4a10 <BitIoLdd12_GetVal+0x24>)
    49f6:	691a      	ldr	r2, [r3, #16]
    49f8:	2304      	movs	r3, #4
    49fa:	4013      	ands	r3, r2
    49fc:	60fb      	str	r3, [r7, #12]
/home/guilherme/Documents/GER-SDP/KDS/SDP-2016/Debug/../Generated_Code/BitIoLdd12.c:167
  return (PortData != 0U) ? (bool)TRUE : (bool)FALSE;
    49fe:	68fb      	ldr	r3, [r7, #12]
    4a00:	1e5a      	subs	r2, r3, #1
    4a02:	4193      	sbcs	r3, r2
    4a04:	b2db      	uxtb	r3, r3
/home/guilherme/Documents/GER-SDP/KDS/SDP-2016/Debug/../Generated_Code/BitIoLdd12.c:168
}
    4a06:	1c18      	adds	r0, r3, #0
    4a08:	46bd      	mov	sp, r7
    4a0a:	b004      	add	sp, #16
    4a0c:	bd80      	pop	{r7, pc}
    4a0e:	46c0      	nop			; (mov r8, r8)
    4a10:	f80ff100 	.word	0xf80ff100

00004a14 <BitIoLdd13_Init>:
BitIoLdd13_Init():
/home/guilherme/Documents/GER-SDP/KDS/SDP-2016/Debug/../Generated_Code/BitIoLdd13.c:119
**                         - Pointer to the dynamically allocated private
**                           structure or NULL if there was an error.
*/
/* ===================================================================*/
LDD_TDeviceData* BitIoLdd13_Init(LDD_TUserData *UserDataPtr)
{
    4a14:	b580      	push	{r7, lr}
    4a16:	b084      	sub	sp, #16
    4a18:	af00      	add	r7, sp, #0
    4a1a:	6078      	str	r0, [r7, #4]
/home/guilherme/Documents/GER-SDP/KDS/SDP-2016/Debug/../Generated_Code/BitIoLdd13.c:124
  /* Allocate device structure */
  BitIoLdd13_TDeviceDataPtr DeviceDataPrv;

  /* {Default RTOS Adapter} Driver memory allocation: Dynamic allocation is simulated by a pointer to the static object */
  DeviceDataPrv = &DeviceDataPrv__DEFAULT_RTOS_ALLOC;
    4a1c:	4b0d      	ldr	r3, [pc, #52]	; (4a54 <BitIoLdd13_Init+0x40>)
    4a1e:	60fb      	str	r3, [r7, #12]
/home/guilherme/Documents/GER-SDP/KDS/SDP-2016/Debug/../Generated_Code/BitIoLdd13.c:125
  DeviceDataPrv->UserDataPtr = UserDataPtr; /* Store the RTOS device structure */
    4a20:	68fb      	ldr	r3, [r7, #12]
    4a22:	687a      	ldr	r2, [r7, #4]
    4a24:	601a      	str	r2, [r3, #0]
/home/guilherme/Documents/GER-SDP/KDS/SDP-2016/Debug/../Generated_Code/BitIoLdd13.c:128
  /* Configure pin as input */
  /* GPIOE_PDDR: PDD&=~8 */
  GPIOE_PDDR &= (uint32_t)~(uint32_t)(GPIO_PDDR_PDD(0x08));
    4a26:	4b0c      	ldr	r3, [pc, #48]	; (4a58 <BitIoLdd13_Init+0x44>)
    4a28:	4a0b      	ldr	r2, [pc, #44]	; (4a58 <BitIoLdd13_Init+0x44>)
    4a2a:	6952      	ldr	r2, [r2, #20]
    4a2c:	2108      	movs	r1, #8
    4a2e:	438a      	bics	r2, r1
    4a30:	615a      	str	r2, [r3, #20]
/home/guilherme/Documents/GER-SDP/KDS/SDP-2016/Debug/../Generated_Code/BitIoLdd13.c:131
  /* Initialization of Port Control register */
  /* PORTE_PCR3: ISF=0,MUX=1 */
  PORTE_PCR3 = (uint32_t)((PORTE_PCR3 & (uint32_t)~(uint32_t)(
    4a32:	4b0a      	ldr	r3, [pc, #40]	; (4a5c <BitIoLdd13_Init+0x48>)
    4a34:	4a09      	ldr	r2, [pc, #36]	; (4a5c <BitIoLdd13_Init+0x48>)
    4a36:	68d1      	ldr	r1, [r2, #12]
    4a38:	4a09      	ldr	r2, [pc, #36]	; (4a60 <BitIoLdd13_Init+0x4c>)
    4a3a:	400a      	ands	r2, r1
    4a3c:	2180      	movs	r1, #128	; 0x80
    4a3e:	0049      	lsls	r1, r1, #1
    4a40:	430a      	orrs	r2, r1
    4a42:	60da      	str	r2, [r3, #12]
/home/guilherme/Documents/GER-SDP/KDS/SDP-2016/Debug/../Generated_Code/BitIoLdd13.c:138
                PORT_PCR_MUX(0x06)
               )) | (uint32_t)(
                PORT_PCR_MUX(0x01)
               ));
  /* Registration of the device structure */
  PE_LDD_RegisterDeviceStructure(PE_LDD_COMPONENT_BitIoLdd13_ID,DeviceDataPrv);
    4a44:	4b07      	ldr	r3, [pc, #28]	; (4a64 <BitIoLdd13_Init+0x50>)
    4a46:	68fa      	ldr	r2, [r7, #12]
    4a48:	65da      	str	r2, [r3, #92]	; 0x5c
/home/guilherme/Documents/GER-SDP/KDS/SDP-2016/Debug/../Generated_Code/BitIoLdd13.c:139
  return ((LDD_TDeviceData *)DeviceDataPrv);
    4a4a:	68fb      	ldr	r3, [r7, #12]
/home/guilherme/Documents/GER-SDP/KDS/SDP-2016/Debug/../Generated_Code/BitIoLdd13.c:140
}
    4a4c:	1c18      	adds	r0, r3, #0
    4a4e:	46bd      	mov	sp, r7
    4a50:	b004      	add	sp, #16
    4a52:	bd80      	pop	{r7, pc}
    4a54:	1ffff0ac 	.word	0x1ffff0ac
    4a58:	400ff100 	.word	0x400ff100
    4a5c:	4004d000 	.word	0x4004d000
    4a60:	fefff8ff 	.word	0xfefff8ff
    4a64:	1ffff0d8 	.word	0x1ffff0d8

00004a68 <BitIoLdd13_GetVal>:
BitIoLdd13_GetVal():
/home/guilherme/Documents/GER-SDP/KDS/SDP-2016/Debug/../Generated_Code/BitIoLdd13.c:162
**                           <false> - logical "0" (Low level)
**                           <true> - logical "1" (High level)
*/
/* ===================================================================*/
bool BitIoLdd13_GetVal(LDD_TDeviceData *DeviceDataPtr)
{
    4a68:	b580      	push	{r7, lr}
    4a6a:	b084      	sub	sp, #16
    4a6c:	af00      	add	r7, sp, #0
    4a6e:	6078      	str	r0, [r7, #4]
/home/guilherme/Documents/GER-SDP/KDS/SDP-2016/Debug/../Generated_Code/BitIoLdd13.c:166
  uint32_t PortData;                   /* Port data masked according to the bit used */

  (void)DeviceDataPtr;                 /* Parameter is not used, suppress unused argument warning */
  PortData = GPIO_PDD_GetPortDataInput(BitIoLdd13_MODULE_BASE_ADDRESS) & BitIoLdd13_PORT_MASK;
    4a70:	4b06      	ldr	r3, [pc, #24]	; (4a8c <BitIoLdd13_GetVal+0x24>)
    4a72:	691a      	ldr	r2, [r3, #16]
    4a74:	2308      	movs	r3, #8
    4a76:	4013      	ands	r3, r2
    4a78:	60fb      	str	r3, [r7, #12]
/home/guilherme/Documents/GER-SDP/KDS/SDP-2016/Debug/../Generated_Code/BitIoLdd13.c:167
  return (PortData != 0U) ? (bool)TRUE : (bool)FALSE;
    4a7a:	68fb      	ldr	r3, [r7, #12]
    4a7c:	1e5a      	subs	r2, r3, #1
    4a7e:	4193      	sbcs	r3, r2
    4a80:	b2db      	uxtb	r3, r3
/home/guilherme/Documents/GER-SDP/KDS/SDP-2016/Debug/../Generated_Code/BitIoLdd13.c:168
}
    4a82:	1c18      	adds	r0, r3, #0
    4a84:	46bd      	mov	sp, r7
    4a86:	b004      	add	sp, #16
    4a88:	bd80      	pop	{r7, pc}
    4a8a:	46c0      	nop			; (mov r8, r8)
    4a8c:	f80ff100 	.word	0xf80ff100

00004a90 <BitIoLdd14_Init>:
BitIoLdd14_Init():
/home/guilherme/Documents/GER-SDP/KDS/SDP-2016/Debug/../Generated_Code/BitIoLdd14.c:119
**                         - Pointer to the dynamically allocated private
**                           structure or NULL if there was an error.
*/
/* ===================================================================*/
LDD_TDeviceData* BitIoLdd14_Init(LDD_TUserData *UserDataPtr)
{
    4a90:	b580      	push	{r7, lr}
    4a92:	b084      	sub	sp, #16
    4a94:	af00      	add	r7, sp, #0
    4a96:	6078      	str	r0, [r7, #4]
/home/guilherme/Documents/GER-SDP/KDS/SDP-2016/Debug/../Generated_Code/BitIoLdd14.c:124
  /* Allocate device structure */
  BitIoLdd14_TDeviceDataPtr DeviceDataPrv;

  /* {Default RTOS Adapter} Driver memory allocation: Dynamic allocation is simulated by a pointer to the static object */
  DeviceDataPrv = &DeviceDataPrv__DEFAULT_RTOS_ALLOC;
    4a98:	4b0d      	ldr	r3, [pc, #52]	; (4ad0 <BitIoLdd14_Init+0x40>)
    4a9a:	60fb      	str	r3, [r7, #12]
/home/guilherme/Documents/GER-SDP/KDS/SDP-2016/Debug/../Generated_Code/BitIoLdd14.c:125
  DeviceDataPrv->UserDataPtr = UserDataPtr; /* Store the RTOS device structure */
    4a9c:	68fb      	ldr	r3, [r7, #12]
    4a9e:	687a      	ldr	r2, [r7, #4]
    4aa0:	601a      	str	r2, [r3, #0]
/home/guilherme/Documents/GER-SDP/KDS/SDP-2016/Debug/../Generated_Code/BitIoLdd14.c:128
  /* Configure pin as input */
  /* GPIOE_PDDR: PDD&=~0x10 */
  GPIOE_PDDR &= (uint32_t)~(uint32_t)(GPIO_PDDR_PDD(0x10));
    4aa2:	4b0c      	ldr	r3, [pc, #48]	; (4ad4 <BitIoLdd14_Init+0x44>)
    4aa4:	4a0b      	ldr	r2, [pc, #44]	; (4ad4 <BitIoLdd14_Init+0x44>)
    4aa6:	6952      	ldr	r2, [r2, #20]
    4aa8:	2110      	movs	r1, #16
    4aaa:	438a      	bics	r2, r1
    4aac:	615a      	str	r2, [r3, #20]
/home/guilherme/Documents/GER-SDP/KDS/SDP-2016/Debug/../Generated_Code/BitIoLdd14.c:131
  /* Initialization of Port Control register */
  /* PORTE_PCR4: ISF=0,MUX=1 */
  PORTE_PCR4 = (uint32_t)((PORTE_PCR4 & (uint32_t)~(uint32_t)(
    4aae:	4b0a      	ldr	r3, [pc, #40]	; (4ad8 <BitIoLdd14_Init+0x48>)
    4ab0:	4a09      	ldr	r2, [pc, #36]	; (4ad8 <BitIoLdd14_Init+0x48>)
    4ab2:	6911      	ldr	r1, [r2, #16]
    4ab4:	4a09      	ldr	r2, [pc, #36]	; (4adc <BitIoLdd14_Init+0x4c>)
    4ab6:	400a      	ands	r2, r1
    4ab8:	2180      	movs	r1, #128	; 0x80
    4aba:	0049      	lsls	r1, r1, #1
    4abc:	430a      	orrs	r2, r1
    4abe:	611a      	str	r2, [r3, #16]
/home/guilherme/Documents/GER-SDP/KDS/SDP-2016/Debug/../Generated_Code/BitIoLdd14.c:138
                PORT_PCR_MUX(0x06)
               )) | (uint32_t)(
                PORT_PCR_MUX(0x01)
               ));
  /* Registration of the device structure */
  PE_LDD_RegisterDeviceStructure(PE_LDD_COMPONENT_BitIoLdd14_ID,DeviceDataPrv);
    4ac0:	4b07      	ldr	r3, [pc, #28]	; (4ae0 <BitIoLdd14_Init+0x50>)
    4ac2:	68fa      	ldr	r2, [r7, #12]
    4ac4:	661a      	str	r2, [r3, #96]	; 0x60
/home/guilherme/Documents/GER-SDP/KDS/SDP-2016/Debug/../Generated_Code/BitIoLdd14.c:139
  return ((LDD_TDeviceData *)DeviceDataPrv);
    4ac6:	68fb      	ldr	r3, [r7, #12]
/home/guilherme/Documents/GER-SDP/KDS/SDP-2016/Debug/../Generated_Code/BitIoLdd14.c:140
}
    4ac8:	1c18      	adds	r0, r3, #0
    4aca:	46bd      	mov	sp, r7
    4acc:	b004      	add	sp, #16
    4ace:	bd80      	pop	{r7, pc}
    4ad0:	1ffff0b0 	.word	0x1ffff0b0
    4ad4:	400ff100 	.word	0x400ff100
    4ad8:	4004d000 	.word	0x4004d000
    4adc:	fefff8ff 	.word	0xfefff8ff
    4ae0:	1ffff0d8 	.word	0x1ffff0d8

00004ae4 <BitIoLdd14_GetVal>:
BitIoLdd14_GetVal():
/home/guilherme/Documents/GER-SDP/KDS/SDP-2016/Debug/../Generated_Code/BitIoLdd14.c:162
**                           <false> - logical "0" (Low level)
**                           <true> - logical "1" (High level)
*/
/* ===================================================================*/
bool BitIoLdd14_GetVal(LDD_TDeviceData *DeviceDataPtr)
{
    4ae4:	b580      	push	{r7, lr}
    4ae6:	b084      	sub	sp, #16
    4ae8:	af00      	add	r7, sp, #0
    4aea:	6078      	str	r0, [r7, #4]
/home/guilherme/Documents/GER-SDP/KDS/SDP-2016/Debug/../Generated_Code/BitIoLdd14.c:166
  uint32_t PortData;                   /* Port data masked according to the bit used */

  (void)DeviceDataPtr;                 /* Parameter is not used, suppress unused argument warning */
  PortData = GPIO_PDD_GetPortDataInput(BitIoLdd14_MODULE_BASE_ADDRESS) & BitIoLdd14_PORT_MASK;
    4aec:	4b06      	ldr	r3, [pc, #24]	; (4b08 <BitIoLdd14_GetVal+0x24>)
    4aee:	691a      	ldr	r2, [r3, #16]
    4af0:	2310      	movs	r3, #16
    4af2:	4013      	ands	r3, r2
    4af4:	60fb      	str	r3, [r7, #12]
/home/guilherme/Documents/GER-SDP/KDS/SDP-2016/Debug/../Generated_Code/BitIoLdd14.c:167
  return (PortData != 0U) ? (bool)TRUE : (bool)FALSE;
    4af6:	68fb      	ldr	r3, [r7, #12]
    4af8:	1e5a      	subs	r2, r3, #1
    4afa:	4193      	sbcs	r3, r2
    4afc:	b2db      	uxtb	r3, r3
/home/guilherme/Documents/GER-SDP/KDS/SDP-2016/Debug/../Generated_Code/BitIoLdd14.c:168
}
    4afe:	1c18      	adds	r0, r3, #0
    4b00:	46bd      	mov	sp, r7
    4b02:	b004      	add	sp, #16
    4b04:	bd80      	pop	{r7, pc}
    4b06:	46c0      	nop			; (mov r8, r8)
    4b08:	f80ff100 	.word	0xf80ff100

00004b0c <BitIoLdd2_Init>:
BitIoLdd2_Init():
/home/guilherme/Documents/GER-SDP/KDS/SDP-2016/Debug/../Generated_Code/BitIoLdd2.c:123
**                         - Pointer to the dynamically allocated private
**                           structure or NULL if there was an error.
*/
/* ===================================================================*/
LDD_TDeviceData* BitIoLdd2_Init(LDD_TUserData *UserDataPtr)
{
    4b0c:	b580      	push	{r7, lr}
    4b0e:	b084      	sub	sp, #16
    4b10:	af00      	add	r7, sp, #0
    4b12:	6078      	str	r0, [r7, #4]
/home/guilherme/Documents/GER-SDP/KDS/SDP-2016/Debug/../Generated_Code/BitIoLdd2.c:128
  /* Allocate device structure */
  BitIoLdd2_TDeviceDataPtr DeviceDataPrv;

  /* {Default RTOS Adapter} Driver memory allocation: Dynamic allocation is simulated by a pointer to the static object */
  DeviceDataPrv = &DeviceDataPrv__DEFAULT_RTOS_ALLOC;
    4b14:	4b10      	ldr	r3, [pc, #64]	; (4b58 <BitIoLdd2_Init+0x4c>)
    4b16:	60fb      	str	r3, [r7, #12]
/home/guilherme/Documents/GER-SDP/KDS/SDP-2016/Debug/../Generated_Code/BitIoLdd2.c:129
  DeviceDataPrv->UserDataPtr = UserDataPtr; /* Store the RTOS device structure */
    4b18:	68fb      	ldr	r3, [r7, #12]
    4b1a:	687a      	ldr	r2, [r7, #4]
    4b1c:	601a      	str	r2, [r3, #0]
/home/guilherme/Documents/GER-SDP/KDS/SDP-2016/Debug/../Generated_Code/BitIoLdd2.c:132
  /* Configure pin as output */
  /* GPIOE_PDDR: PDD|=2 */
  GPIOE_PDDR |= GPIO_PDDR_PDD(0x02);
    4b1e:	4b0f      	ldr	r3, [pc, #60]	; (4b5c <BitIoLdd2_Init+0x50>)
    4b20:	4a0e      	ldr	r2, [pc, #56]	; (4b5c <BitIoLdd2_Init+0x50>)
    4b22:	6952      	ldr	r2, [r2, #20]
    4b24:	2102      	movs	r1, #2
    4b26:	430a      	orrs	r2, r1
    4b28:	615a      	str	r2, [r3, #20]
/home/guilherme/Documents/GER-SDP/KDS/SDP-2016/Debug/../Generated_Code/BitIoLdd2.c:135
  /* Set initialization value */
  /* GPIOE_PDOR: PDO&=~2 */
  GPIOE_PDOR &= (uint32_t)~(uint32_t)(GPIO_PDOR_PDO(0x02));
    4b2a:	4b0c      	ldr	r3, [pc, #48]	; (4b5c <BitIoLdd2_Init+0x50>)
    4b2c:	4a0b      	ldr	r2, [pc, #44]	; (4b5c <BitIoLdd2_Init+0x50>)
    4b2e:	6812      	ldr	r2, [r2, #0]
    4b30:	2102      	movs	r1, #2
    4b32:	438a      	bics	r2, r1
    4b34:	601a      	str	r2, [r3, #0]
/home/guilherme/Documents/GER-SDP/KDS/SDP-2016/Debug/../Generated_Code/BitIoLdd2.c:138
  /* Initialization of Port Control register */
  /* PORTE_PCR1: ISF=0,MUX=1 */
  PORTE_PCR1 = (uint32_t)((PORTE_PCR1 & (uint32_t)~(uint32_t)(
    4b36:	4b0a      	ldr	r3, [pc, #40]	; (4b60 <BitIoLdd2_Init+0x54>)
    4b38:	4a09      	ldr	r2, [pc, #36]	; (4b60 <BitIoLdd2_Init+0x54>)
    4b3a:	6851      	ldr	r1, [r2, #4]
    4b3c:	4a09      	ldr	r2, [pc, #36]	; (4b64 <BitIoLdd2_Init+0x58>)
    4b3e:	400a      	ands	r2, r1
    4b40:	2180      	movs	r1, #128	; 0x80
    4b42:	0049      	lsls	r1, r1, #1
    4b44:	430a      	orrs	r2, r1
    4b46:	605a      	str	r2, [r3, #4]
/home/guilherme/Documents/GER-SDP/KDS/SDP-2016/Debug/../Generated_Code/BitIoLdd2.c:145
                PORT_PCR_MUX(0x06)
               )) | (uint32_t)(
                PORT_PCR_MUX(0x01)
               ));
  /* Registration of the device structure */
  PE_LDD_RegisterDeviceStructure(PE_LDD_COMPONENT_BitIoLdd2_ID,DeviceDataPrv);
    4b48:	4b07      	ldr	r3, [pc, #28]	; (4b68 <BitIoLdd2_Init+0x5c>)
    4b4a:	68fa      	ldr	r2, [r7, #12]
    4b4c:	605a      	str	r2, [r3, #4]
/home/guilherme/Documents/GER-SDP/KDS/SDP-2016/Debug/../Generated_Code/BitIoLdd2.c:146
  return ((LDD_TDeviceData *)DeviceDataPrv);
    4b4e:	68fb      	ldr	r3, [r7, #12]
/home/guilherme/Documents/GER-SDP/KDS/SDP-2016/Debug/../Generated_Code/BitIoLdd2.c:147
}
    4b50:	1c18      	adds	r0, r3, #0
    4b52:	46bd      	mov	sp, r7
    4b54:	b004      	add	sp, #16
    4b56:	bd80      	pop	{r7, pc}
    4b58:	1ffff0b4 	.word	0x1ffff0b4
    4b5c:	400ff100 	.word	0x400ff100
    4b60:	4004d000 	.word	0x4004d000
    4b64:	fefff8ff 	.word	0xfefff8ff
    4b68:	1ffff0d8 	.word	0x1ffff0d8

00004b6c <BitIoLdd2_GetVal>:
BitIoLdd2_GetVal():
/home/guilherme/Documents/GER-SDP/KDS/SDP-2016/Debug/../Generated_Code/BitIoLdd2.c:169
**                           <false> - logical "0" (Low level)
**                           <true> - logical "1" (High level)
*/
/* ===================================================================*/
bool BitIoLdd2_GetVal(LDD_TDeviceData *DeviceDataPtr)
{
    4b6c:	b580      	push	{r7, lr}
    4b6e:	b084      	sub	sp, #16
    4b70:	af00      	add	r7, sp, #0
    4b72:	6078      	str	r0, [r7, #4]
/home/guilherme/Documents/GER-SDP/KDS/SDP-2016/Debug/../Generated_Code/BitIoLdd2.c:173
  uint32_t PortData;                   /* Port data masked according to the bit used */

  (void)DeviceDataPtr;                 /* Parameter is not used, suppress unused argument warning */
  PortData = GPIO_PDD_GetPortDataOutput(BitIoLdd2_MODULE_BASE_ADDRESS) & BitIoLdd2_PORT_MASK;
    4b74:	4b06      	ldr	r3, [pc, #24]	; (4b90 <BitIoLdd2_GetVal+0x24>)
    4b76:	681a      	ldr	r2, [r3, #0]
    4b78:	2302      	movs	r3, #2
    4b7a:	4013      	ands	r3, r2
    4b7c:	60fb      	str	r3, [r7, #12]
/home/guilherme/Documents/GER-SDP/KDS/SDP-2016/Debug/../Generated_Code/BitIoLdd2.c:174
  return (PortData != 0U) ? (bool)TRUE : (bool)FALSE;
    4b7e:	68fb      	ldr	r3, [r7, #12]
    4b80:	1e5a      	subs	r2, r3, #1
    4b82:	4193      	sbcs	r3, r2
    4b84:	b2db      	uxtb	r3, r3
/home/guilherme/Documents/GER-SDP/KDS/SDP-2016/Debug/../Generated_Code/BitIoLdd2.c:175
}
    4b86:	1c18      	adds	r0, r3, #0
    4b88:	46bd      	mov	sp, r7
    4b8a:	b004      	add	sp, #16
    4b8c:	bd80      	pop	{r7, pc}
    4b8e:	46c0      	nop			; (mov r8, r8)
    4b90:	f80ff100 	.word	0xf80ff100

00004b94 <BitIoLdd2_ClrVal>:
BitIoLdd2_ClrVal():
/home/guilherme/Documents/GER-SDP/KDS/SDP-2016/Debug/../Generated_Code/BitIoLdd2.c:226
**         DeviceDataPtr   - Pointer to device data
**                           structure returned by <Init> method.
*/
/* ===================================================================*/
void BitIoLdd2_ClrVal(LDD_TDeviceData *DeviceDataPtr)
{
    4b94:	b580      	push	{r7, lr}
    4b96:	b082      	sub	sp, #8
    4b98:	af00      	add	r7, sp, #0
    4b9a:	6078      	str	r0, [r7, #4]
/home/guilherme/Documents/GER-SDP/KDS/SDP-2016/Debug/../Generated_Code/BitIoLdd2.c:228
  (void)DeviceDataPtr;                 /* Parameter is not used, suppress unused argument warning */
  GPIO_PDD_ClearPortDataOutputMask(BitIoLdd2_MODULE_BASE_ADDRESS, BitIoLdd2_PORT_MASK);
    4b9c:	4b02      	ldr	r3, [pc, #8]	; (4ba8 <BitIoLdd2_ClrVal+0x14>)
    4b9e:	2202      	movs	r2, #2
    4ba0:	609a      	str	r2, [r3, #8]
/home/guilherme/Documents/GER-SDP/KDS/SDP-2016/Debug/../Generated_Code/BitIoLdd2.c:229
}
    4ba2:	46bd      	mov	sp, r7
    4ba4:	b002      	add	sp, #8
    4ba6:	bd80      	pop	{r7, pc}
    4ba8:	f80ff100 	.word	0xf80ff100

00004bac <BitIoLdd2_SetVal>:
BitIoLdd2_SetVal():
/home/guilherme/Documents/GER-SDP/KDS/SDP-2016/Debug/../Generated_Code/BitIoLdd2.c:246
**         DeviceDataPtr   - Pointer to device data
**                           structure returned by <Init> method.
*/
/* ===================================================================*/
void BitIoLdd2_SetVal(LDD_TDeviceData *DeviceDataPtr)
{
    4bac:	b580      	push	{r7, lr}
    4bae:	b082      	sub	sp, #8
    4bb0:	af00      	add	r7, sp, #0
    4bb2:	6078      	str	r0, [r7, #4]
/home/guilherme/Documents/GER-SDP/KDS/SDP-2016/Debug/../Generated_Code/BitIoLdd2.c:248
  (void)DeviceDataPtr;                 /* Parameter is not used, suppress unused argument warning */
  GPIO_PDD_SetPortDataOutputMask(BitIoLdd2_MODULE_BASE_ADDRESS, BitIoLdd2_PORT_MASK);
    4bb4:	4b02      	ldr	r3, [pc, #8]	; (4bc0 <BitIoLdd2_SetVal+0x14>)
    4bb6:	2202      	movs	r2, #2
    4bb8:	605a      	str	r2, [r3, #4]
/home/guilherme/Documents/GER-SDP/KDS/SDP-2016/Debug/../Generated_Code/BitIoLdd2.c:249
}
    4bba:	46bd      	mov	sp, r7
    4bbc:	b002      	add	sp, #8
    4bbe:	bd80      	pop	{r7, pc}
    4bc0:	f80ff100 	.word	0xf80ff100

00004bc4 <BitIoLdd3_Init>:
BitIoLdd3_Init():
/home/guilherme/Documents/GER-SDP/KDS/SDP-2016/Debug/../Generated_Code/BitIoLdd3.c:119
**                         - Pointer to the dynamically allocated private
**                           structure or NULL if there was an error.
*/
/* ===================================================================*/
LDD_TDeviceData* BitIoLdd3_Init(LDD_TUserData *UserDataPtr)
{
    4bc4:	b580      	push	{r7, lr}
    4bc6:	b084      	sub	sp, #16
    4bc8:	af00      	add	r7, sp, #0
    4bca:	6078      	str	r0, [r7, #4]
/home/guilherme/Documents/GER-SDP/KDS/SDP-2016/Debug/../Generated_Code/BitIoLdd3.c:124
  /* Allocate device structure */
  BitIoLdd3_TDeviceDataPtr DeviceDataPrv;

  /* {Default RTOS Adapter} Driver memory allocation: Dynamic allocation is simulated by a pointer to the static object */
  DeviceDataPrv = &DeviceDataPrv__DEFAULT_RTOS_ALLOC;
    4bcc:	4b0d      	ldr	r3, [pc, #52]	; (4c04 <BitIoLdd3_Init+0x40>)
    4bce:	60fb      	str	r3, [r7, #12]
/home/guilherme/Documents/GER-SDP/KDS/SDP-2016/Debug/../Generated_Code/BitIoLdd3.c:125
  DeviceDataPrv->UserDataPtr = UserDataPtr; /* Store the RTOS device structure */
    4bd0:	68fb      	ldr	r3, [r7, #12]
    4bd2:	687a      	ldr	r2, [r7, #4]
    4bd4:	601a      	str	r2, [r3, #0]
/home/guilherme/Documents/GER-SDP/KDS/SDP-2016/Debug/../Generated_Code/BitIoLdd3.c:128
  /* Configure pin as input */
  /* GPIOC_PDDR: PDD&=~0x00020000 */
  GPIOC_PDDR &= (uint32_t)~(uint32_t)(GPIO_PDDR_PDD(0x00020000));
    4bd6:	4b0c      	ldr	r3, [pc, #48]	; (4c08 <BitIoLdd3_Init+0x44>)
    4bd8:	4a0b      	ldr	r2, [pc, #44]	; (4c08 <BitIoLdd3_Init+0x44>)
    4bda:	6951      	ldr	r1, [r2, #20]
    4bdc:	4a0b      	ldr	r2, [pc, #44]	; (4c0c <BitIoLdd3_Init+0x48>)
    4bde:	400a      	ands	r2, r1
    4be0:	615a      	str	r2, [r3, #20]
/home/guilherme/Documents/GER-SDP/KDS/SDP-2016/Debug/../Generated_Code/BitIoLdd3.c:131
  /* Initialization of Port Control register */
  /* PORTC_PCR17: ISF=0,MUX=1 */
  PORTC_PCR17 = (uint32_t)((PORTC_PCR17 & (uint32_t)~(uint32_t)(
    4be2:	4b0b      	ldr	r3, [pc, #44]	; (4c10 <BitIoLdd3_Init+0x4c>)
    4be4:	4a0a      	ldr	r2, [pc, #40]	; (4c10 <BitIoLdd3_Init+0x4c>)
    4be6:	6c51      	ldr	r1, [r2, #68]	; 0x44
    4be8:	4a0a      	ldr	r2, [pc, #40]	; (4c14 <BitIoLdd3_Init+0x50>)
    4bea:	400a      	ands	r2, r1
    4bec:	2180      	movs	r1, #128	; 0x80
    4bee:	0049      	lsls	r1, r1, #1
    4bf0:	430a      	orrs	r2, r1
    4bf2:	645a      	str	r2, [r3, #68]	; 0x44
/home/guilherme/Documents/GER-SDP/KDS/SDP-2016/Debug/../Generated_Code/BitIoLdd3.c:138
                 PORT_PCR_MUX(0x06)
                )) | (uint32_t)(
                 PORT_PCR_MUX(0x01)
                ));
  /* Registration of the device structure */
  PE_LDD_RegisterDeviceStructure(PE_LDD_COMPONENT_BitIoLdd3_ID,DeviceDataPrv);
    4bf4:	4b08      	ldr	r3, [pc, #32]	; (4c18 <BitIoLdd3_Init+0x54>)
    4bf6:	68fa      	ldr	r2, [r7, #12]
    4bf8:	639a      	str	r2, [r3, #56]	; 0x38
/home/guilherme/Documents/GER-SDP/KDS/SDP-2016/Debug/../Generated_Code/BitIoLdd3.c:139
  return ((LDD_TDeviceData *)DeviceDataPrv);
    4bfa:	68fb      	ldr	r3, [r7, #12]
/home/guilherme/Documents/GER-SDP/KDS/SDP-2016/Debug/../Generated_Code/BitIoLdd3.c:140
}
    4bfc:	1c18      	adds	r0, r3, #0
    4bfe:	46bd      	mov	sp, r7
    4c00:	b004      	add	sp, #16
    4c02:	bd80      	pop	{r7, pc}
    4c04:	1ffff0b8 	.word	0x1ffff0b8
    4c08:	400ff080 	.word	0x400ff080
    4c0c:	fffdffff 	.word	0xfffdffff
    4c10:	4004b000 	.word	0x4004b000
    4c14:	fefff8ff 	.word	0xfefff8ff
    4c18:	1ffff0d8 	.word	0x1ffff0d8

00004c1c <BitIoLdd3_GetVal>:
BitIoLdd3_GetVal():
/home/guilherme/Documents/GER-SDP/KDS/SDP-2016/Debug/../Generated_Code/BitIoLdd3.c:162
**                           <false> - logical "0" (Low level)
**                           <true> - logical "1" (High level)
*/
/* ===================================================================*/
bool BitIoLdd3_GetVal(LDD_TDeviceData *DeviceDataPtr)
{
    4c1c:	b580      	push	{r7, lr}
    4c1e:	b084      	sub	sp, #16
    4c20:	af00      	add	r7, sp, #0
    4c22:	6078      	str	r0, [r7, #4]
/home/guilherme/Documents/GER-SDP/KDS/SDP-2016/Debug/../Generated_Code/BitIoLdd3.c:166
  uint32_t PortData;                   /* Port data masked according to the bit used */

  (void)DeviceDataPtr;                 /* Parameter is not used, suppress unused argument warning */
  PortData = GPIO_PDD_GetPortDataInput(BitIoLdd3_MODULE_BASE_ADDRESS) & BitIoLdd3_PORT_MASK;
    4c24:	4b06      	ldr	r3, [pc, #24]	; (4c40 <BitIoLdd3_GetVal+0x24>)
    4c26:	691a      	ldr	r2, [r3, #16]
    4c28:	2380      	movs	r3, #128	; 0x80
    4c2a:	029b      	lsls	r3, r3, #10
    4c2c:	4013      	ands	r3, r2
    4c2e:	60fb      	str	r3, [r7, #12]
/home/guilherme/Documents/GER-SDP/KDS/SDP-2016/Debug/../Generated_Code/BitIoLdd3.c:167
  return (PortData != 0U) ? (bool)TRUE : (bool)FALSE;
    4c30:	68fb      	ldr	r3, [r7, #12]
    4c32:	1e5a      	subs	r2, r3, #1
    4c34:	4193      	sbcs	r3, r2
    4c36:	b2db      	uxtb	r3, r3
/home/guilherme/Documents/GER-SDP/KDS/SDP-2016/Debug/../Generated_Code/BitIoLdd3.c:168
}
    4c38:	1c18      	adds	r0, r3, #0
    4c3a:	46bd      	mov	sp, r7
    4c3c:	b004      	add	sp, #16
    4c3e:	bd80      	pop	{r7, pc}
    4c40:	f80ff080 	.word	0xf80ff080

00004c44 <BitIoLdd4_Init>:
BitIoLdd4_Init():
/home/guilherme/Documents/GER-SDP/KDS/SDP-2016/Debug/../Generated_Code/BitIoLdd4.c:120
**                         - Pointer to the dynamically allocated private
**                           structure or NULL if there was an error.
*/
/* ===================================================================*/
LDD_TDeviceData* BitIoLdd4_Init(LDD_TUserData *UserDataPtr)
{
    4c44:	b580      	push	{r7, lr}
    4c46:	b084      	sub	sp, #16
    4c48:	af00      	add	r7, sp, #0
    4c4a:	6078      	str	r0, [r7, #4]
/home/guilherme/Documents/GER-SDP/KDS/SDP-2016/Debug/../Generated_Code/BitIoLdd4.c:125
  /* Allocate device structure */
  BitIoLdd4_TDeviceDataPtr DeviceDataPrv;

  /* {Default RTOS Adapter} Driver memory allocation: Dynamic allocation is simulated by a pointer to the static object */
  DeviceDataPrv = &DeviceDataPrv__DEFAULT_RTOS_ALLOC;
    4c4c:	4b11      	ldr	r3, [pc, #68]	; (4c94 <BitIoLdd4_Init+0x50>)
    4c4e:	60fb      	str	r3, [r7, #12]
/home/guilherme/Documents/GER-SDP/KDS/SDP-2016/Debug/../Generated_Code/BitIoLdd4.c:126
  DeviceDataPrv->UserDataPtr = UserDataPtr; /* Store the RTOS device structure */
    4c50:	68fb      	ldr	r3, [r7, #12]
    4c52:	687a      	ldr	r2, [r7, #4]
    4c54:	601a      	str	r2, [r3, #0]
/home/guilherme/Documents/GER-SDP/KDS/SDP-2016/Debug/../Generated_Code/BitIoLdd4.c:129
  /* Configure pin as output */
  /* GPIOE_PDDR: PDD|=0x00200000 */
  GPIOE_PDDR |= GPIO_PDDR_PDD(0x00200000);
    4c56:	4b10      	ldr	r3, [pc, #64]	; (4c98 <BitIoLdd4_Init+0x54>)
    4c58:	4a0f      	ldr	r2, [pc, #60]	; (4c98 <BitIoLdd4_Init+0x54>)
    4c5a:	6952      	ldr	r2, [r2, #20]
    4c5c:	2180      	movs	r1, #128	; 0x80
    4c5e:	0389      	lsls	r1, r1, #14
    4c60:	430a      	orrs	r2, r1
    4c62:	615a      	str	r2, [r3, #20]
/home/guilherme/Documents/GER-SDP/KDS/SDP-2016/Debug/../Generated_Code/BitIoLdd4.c:132
  /* Set initialization value */
  /* GPIOE_PDOR: PDO&=~0x00200000 */
  GPIOE_PDOR &= (uint32_t)~(uint32_t)(GPIO_PDOR_PDO(0x00200000));
    4c64:	4b0c      	ldr	r3, [pc, #48]	; (4c98 <BitIoLdd4_Init+0x54>)
    4c66:	4a0c      	ldr	r2, [pc, #48]	; (4c98 <BitIoLdd4_Init+0x54>)
    4c68:	6811      	ldr	r1, [r2, #0]
    4c6a:	4a0c      	ldr	r2, [pc, #48]	; (4c9c <BitIoLdd4_Init+0x58>)
    4c6c:	400a      	ands	r2, r1
    4c6e:	601a      	str	r2, [r3, #0]
/home/guilherme/Documents/GER-SDP/KDS/SDP-2016/Debug/../Generated_Code/BitIoLdd4.c:135
  /* Initialization of Port Control register */
  /* PORTE_PCR21: ISF=0,MUX=1 */
  PORTE_PCR21 = (uint32_t)((PORTE_PCR21 & (uint32_t)~(uint32_t)(
    4c70:	4b0b      	ldr	r3, [pc, #44]	; (4ca0 <BitIoLdd4_Init+0x5c>)
    4c72:	4a0b      	ldr	r2, [pc, #44]	; (4ca0 <BitIoLdd4_Init+0x5c>)
    4c74:	6d51      	ldr	r1, [r2, #84]	; 0x54
    4c76:	4a0b      	ldr	r2, [pc, #44]	; (4ca4 <BitIoLdd4_Init+0x60>)
    4c78:	400a      	ands	r2, r1
    4c7a:	2180      	movs	r1, #128	; 0x80
    4c7c:	0049      	lsls	r1, r1, #1
    4c7e:	430a      	orrs	r2, r1
    4c80:	655a      	str	r2, [r3, #84]	; 0x54
/home/guilherme/Documents/GER-SDP/KDS/SDP-2016/Debug/../Generated_Code/BitIoLdd4.c:142
                 PORT_PCR_MUX(0x06)
                )) | (uint32_t)(
                 PORT_PCR_MUX(0x01)
                ));
  /* Registration of the device structure */
  PE_LDD_RegisterDeviceStructure(PE_LDD_COMPONENT_BitIoLdd4_ID,DeviceDataPrv);
    4c82:	4b09      	ldr	r3, [pc, #36]	; (4ca8 <BitIoLdd4_Init+0x64>)
    4c84:	68fa      	ldr	r2, [r7, #12]
    4c86:	619a      	str	r2, [r3, #24]
/home/guilherme/Documents/GER-SDP/KDS/SDP-2016/Debug/../Generated_Code/BitIoLdd4.c:143
  return ((LDD_TDeviceData *)DeviceDataPrv);
    4c88:	68fb      	ldr	r3, [r7, #12]
/home/guilherme/Documents/GER-SDP/KDS/SDP-2016/Debug/../Generated_Code/BitIoLdd4.c:144
}
    4c8a:	1c18      	adds	r0, r3, #0
    4c8c:	46bd      	mov	sp, r7
    4c8e:	b004      	add	sp, #16
    4c90:	bd80      	pop	{r7, pc}
    4c92:	46c0      	nop			; (mov r8, r8)
    4c94:	1ffff0bc 	.word	0x1ffff0bc
    4c98:	400ff100 	.word	0x400ff100
    4c9c:	ffdfffff 	.word	0xffdfffff
    4ca0:	4004d000 	.word	0x4004d000
    4ca4:	fefff8ff 	.word	0xfefff8ff
    4ca8:	1ffff0d8 	.word	0x1ffff0d8

00004cac <BitIoLdd4_SetVal>:
BitIoLdd4_SetVal():
/home/guilherme/Documents/GER-SDP/KDS/SDP-2016/Debug/../Generated_Code/BitIoLdd4.c:180
**         DeviceDataPtr   - Pointer to device data
**                           structure returned by <Init> method.
*/
/* ===================================================================*/
void BitIoLdd4_SetVal(LDD_TDeviceData *DeviceDataPtr)
{
    4cac:	b580      	push	{r7, lr}
    4cae:	b082      	sub	sp, #8
    4cb0:	af00      	add	r7, sp, #0
    4cb2:	6078      	str	r0, [r7, #4]
/home/guilherme/Documents/GER-SDP/KDS/SDP-2016/Debug/../Generated_Code/BitIoLdd4.c:182
  (void)DeviceDataPtr;                 /* Parameter is not used, suppress unused argument warning */
  GPIO_PDD_SetPortDataOutputMask(BitIoLdd4_MODULE_BASE_ADDRESS, BitIoLdd4_PORT_MASK);
    4cb4:	4b03      	ldr	r3, [pc, #12]	; (4cc4 <BitIoLdd4_SetVal+0x18>)
    4cb6:	2280      	movs	r2, #128	; 0x80
    4cb8:	0392      	lsls	r2, r2, #14
    4cba:	605a      	str	r2, [r3, #4]
/home/guilherme/Documents/GER-SDP/KDS/SDP-2016/Debug/../Generated_Code/BitIoLdd4.c:183
}
    4cbc:	46bd      	mov	sp, r7
    4cbe:	b002      	add	sp, #8
    4cc0:	bd80      	pop	{r7, pc}
    4cc2:	46c0      	nop			; (mov r8, r8)
    4cc4:	f80ff100 	.word	0xf80ff100

00004cc8 <BitIoLdd5_Init>:
BitIoLdd5_Init():
/home/guilherme/Documents/GER-SDP/KDS/SDP-2016/Debug/../Generated_Code/BitIoLdd5.c:121
**                         - Pointer to the dynamically allocated private
**                           structure or NULL if there was an error.
*/
/* ===================================================================*/
LDD_TDeviceData* BitIoLdd5_Init(LDD_TUserData *UserDataPtr)
{
    4cc8:	b580      	push	{r7, lr}
    4cca:	b084      	sub	sp, #16
    4ccc:	af00      	add	r7, sp, #0
    4cce:	6078      	str	r0, [r7, #4]
/home/guilherme/Documents/GER-SDP/KDS/SDP-2016/Debug/../Generated_Code/BitIoLdd5.c:126
  /* Allocate device structure */
  BitIoLdd5_TDeviceDataPtr DeviceDataPrv;

  /* {Default RTOS Adapter} Driver memory allocation: Dynamic allocation is simulated by a pointer to the static object */
  DeviceDataPrv = &DeviceDataPrv__DEFAULT_RTOS_ALLOC;
    4cd0:	4b11      	ldr	r3, [pc, #68]	; (4d18 <BitIoLdd5_Init+0x50>)
    4cd2:	60fb      	str	r3, [r7, #12]
/home/guilherme/Documents/GER-SDP/KDS/SDP-2016/Debug/../Generated_Code/BitIoLdd5.c:127
  DeviceDataPrv->UserDataPtr = UserDataPtr; /* Store the RTOS device structure */
    4cd4:	68fb      	ldr	r3, [r7, #12]
    4cd6:	687a      	ldr	r2, [r7, #4]
    4cd8:	601a      	str	r2, [r3, #0]
/home/guilherme/Documents/GER-SDP/KDS/SDP-2016/Debug/../Generated_Code/BitIoLdd5.c:130
  /* Configure pin as output */
  /* GPIOB_PDDR: PDD|=0x0800 */
  GPIOB_PDDR |= GPIO_PDDR_PDD(0x0800);
    4cda:	4b10      	ldr	r3, [pc, #64]	; (4d1c <BitIoLdd5_Init+0x54>)
    4cdc:	4a0f      	ldr	r2, [pc, #60]	; (4d1c <BitIoLdd5_Init+0x54>)
    4cde:	6952      	ldr	r2, [r2, #20]
    4ce0:	2180      	movs	r1, #128	; 0x80
    4ce2:	0109      	lsls	r1, r1, #4
    4ce4:	430a      	orrs	r2, r1
    4ce6:	615a      	str	r2, [r3, #20]
/home/guilherme/Documents/GER-SDP/KDS/SDP-2016/Debug/../Generated_Code/BitIoLdd5.c:133
  /* Set initialization value */
  /* GPIOB_PDOR: PDO&=~0x0800 */
  GPIOB_PDOR &= (uint32_t)~(uint32_t)(GPIO_PDOR_PDO(0x0800));
    4ce8:	4b0c      	ldr	r3, [pc, #48]	; (4d1c <BitIoLdd5_Init+0x54>)
    4cea:	4a0c      	ldr	r2, [pc, #48]	; (4d1c <BitIoLdd5_Init+0x54>)
    4cec:	6811      	ldr	r1, [r2, #0]
    4cee:	4a0c      	ldr	r2, [pc, #48]	; (4d20 <BitIoLdd5_Init+0x58>)
    4cf0:	400a      	ands	r2, r1
    4cf2:	601a      	str	r2, [r3, #0]
/home/guilherme/Documents/GER-SDP/KDS/SDP-2016/Debug/../Generated_Code/BitIoLdd5.c:136
  /* Initialization of Port Control register */
  /* PORTB_PCR11: ISF=0,MUX=1 */
  PORTB_PCR11 = (uint32_t)((PORTB_PCR11 & (uint32_t)~(uint32_t)(
    4cf4:	4b0b      	ldr	r3, [pc, #44]	; (4d24 <BitIoLdd5_Init+0x5c>)
    4cf6:	4a0b      	ldr	r2, [pc, #44]	; (4d24 <BitIoLdd5_Init+0x5c>)
    4cf8:	6ad1      	ldr	r1, [r2, #44]	; 0x2c
    4cfa:	4a0b      	ldr	r2, [pc, #44]	; (4d28 <BitIoLdd5_Init+0x60>)
    4cfc:	400a      	ands	r2, r1
    4cfe:	2180      	movs	r1, #128	; 0x80
    4d00:	0049      	lsls	r1, r1, #1
    4d02:	430a      	orrs	r2, r1
    4d04:	62da      	str	r2, [r3, #44]	; 0x2c
/home/guilherme/Documents/GER-SDP/KDS/SDP-2016/Debug/../Generated_Code/BitIoLdd5.c:143
                 PORT_PCR_MUX(0x06)
                )) | (uint32_t)(
                 PORT_PCR_MUX(0x01)
                ));
  /* Registration of the device structure */
  PE_LDD_RegisterDeviceStructure(PE_LDD_COMPONENT_BitIoLdd5_ID,DeviceDataPrv);
    4d06:	4b09      	ldr	r3, [pc, #36]	; (4d2c <BitIoLdd5_Init+0x64>)
    4d08:	68fa      	ldr	r2, [r7, #12]
    4d0a:	63da      	str	r2, [r3, #60]	; 0x3c
/home/guilherme/Documents/GER-SDP/KDS/SDP-2016/Debug/../Generated_Code/BitIoLdd5.c:144
  return ((LDD_TDeviceData *)DeviceDataPrv);
    4d0c:	68fb      	ldr	r3, [r7, #12]
/home/guilherme/Documents/GER-SDP/KDS/SDP-2016/Debug/../Generated_Code/BitIoLdd5.c:145
}
    4d0e:	1c18      	adds	r0, r3, #0
    4d10:	46bd      	mov	sp, r7
    4d12:	b004      	add	sp, #16
    4d14:	bd80      	pop	{r7, pc}
    4d16:	46c0      	nop			; (mov r8, r8)
    4d18:	1ffff0c0 	.word	0x1ffff0c0
    4d1c:	400ff040 	.word	0x400ff040
    4d20:	fffff7ff 	.word	0xfffff7ff
    4d24:	4004a000 	.word	0x4004a000
    4d28:	fefff8ff 	.word	0xfefff8ff
    4d2c:	1ffff0d8 	.word	0x1ffff0d8

00004d30 <BitIoLdd5_SetVal>:
BitIoLdd5_SetVal():
/home/guilherme/Documents/GER-SDP/KDS/SDP-2016/Debug/../Generated_Code/BitIoLdd5.c:181
**         DeviceDataPtr   - Pointer to device data
**                           structure returned by <Init> method.
*/
/* ===================================================================*/
void BitIoLdd5_SetVal(LDD_TDeviceData *DeviceDataPtr)
{
    4d30:	b580      	push	{r7, lr}
    4d32:	b082      	sub	sp, #8
    4d34:	af00      	add	r7, sp, #0
    4d36:	6078      	str	r0, [r7, #4]
/home/guilherme/Documents/GER-SDP/KDS/SDP-2016/Debug/../Generated_Code/BitIoLdd5.c:183
  (void)DeviceDataPtr;                 /* Parameter is not used, suppress unused argument warning */
  GPIO_PDD_SetPortDataOutputMask(BitIoLdd5_MODULE_BASE_ADDRESS, BitIoLdd5_PORT_MASK);
    4d38:	4b03      	ldr	r3, [pc, #12]	; (4d48 <BitIoLdd5_SetVal+0x18>)
    4d3a:	2280      	movs	r2, #128	; 0x80
    4d3c:	0112      	lsls	r2, r2, #4
    4d3e:	605a      	str	r2, [r3, #4]
/home/guilherme/Documents/GER-SDP/KDS/SDP-2016/Debug/../Generated_Code/BitIoLdd5.c:184
}
    4d40:	46bd      	mov	sp, r7
    4d42:	b002      	add	sp, #8
    4d44:	bd80      	pop	{r7, pc}
    4d46:	46c0      	nop			; (mov r8, r8)
    4d48:	f80ff040 	.word	0xf80ff040

00004d4c <BitIoLdd5_NegVal>:
BitIoLdd5_NegVal():
/home/guilherme/Documents/GER-SDP/KDS/SDP-2016/Debug/../Generated_Code/BitIoLdd5.c:201
**         DeviceDataPtr   - Pointer to device data
**                           structure returned by <Init> method.
*/
/* ===================================================================*/
void BitIoLdd5_NegVal(LDD_TDeviceData *DeviceDataPtr)
{
    4d4c:	b580      	push	{r7, lr}
    4d4e:	b082      	sub	sp, #8
    4d50:	af00      	add	r7, sp, #0
    4d52:	6078      	str	r0, [r7, #4]
/home/guilherme/Documents/GER-SDP/KDS/SDP-2016/Debug/../Generated_Code/BitIoLdd5.c:203
  (void)DeviceDataPtr;                 /* Parameter is not used, suppress unused argument warning */
  GPIO_PDD_TogglePortDataOutputMask(BitIoLdd5_MODULE_BASE_ADDRESS, BitIoLdd5_PORT_MASK);
    4d54:	4b03      	ldr	r3, [pc, #12]	; (4d64 <BitIoLdd5_NegVal+0x18>)
    4d56:	2280      	movs	r2, #128	; 0x80
    4d58:	0112      	lsls	r2, r2, #4
    4d5a:	60da      	str	r2, [r3, #12]
/home/guilherme/Documents/GER-SDP/KDS/SDP-2016/Debug/../Generated_Code/BitIoLdd5.c:204
}
    4d5c:	46bd      	mov	sp, r7
    4d5e:	b002      	add	sp, #8
    4d60:	bd80      	pop	{r7, pc}
    4d62:	46c0      	nop			; (mov r8, r8)
    4d64:	f80ff040 	.word	0xf80ff040

00004d68 <BitIoLdd6_Init>:
BitIoLdd6_Init():
/home/guilherme/Documents/GER-SDP/KDS/SDP-2016/Debug/../Generated_Code/BitIoLdd6.c:121
**                         - Pointer to the dynamically allocated private
**                           structure or NULL if there was an error.
*/
/* ===================================================================*/
LDD_TDeviceData* BitIoLdd6_Init(LDD_TUserData *UserDataPtr)
{
    4d68:	b580      	push	{r7, lr}
    4d6a:	b084      	sub	sp, #16
    4d6c:	af00      	add	r7, sp, #0
    4d6e:	6078      	str	r0, [r7, #4]
/home/guilherme/Documents/GER-SDP/KDS/SDP-2016/Debug/../Generated_Code/BitIoLdd6.c:126
  /* Allocate device structure */
  BitIoLdd6_TDeviceDataPtr DeviceDataPrv;

  /* {Default RTOS Adapter} Driver memory allocation: Dynamic allocation is simulated by a pointer to the static object */
  DeviceDataPrv = &DeviceDataPrv__DEFAULT_RTOS_ALLOC;
    4d70:	4b11      	ldr	r3, [pc, #68]	; (4db8 <BitIoLdd6_Init+0x50>)
    4d72:	60fb      	str	r3, [r7, #12]
/home/guilherme/Documents/GER-SDP/KDS/SDP-2016/Debug/../Generated_Code/BitIoLdd6.c:127
  DeviceDataPrv->UserDataPtr = UserDataPtr; /* Store the RTOS device structure */
    4d74:	68fb      	ldr	r3, [r7, #12]
    4d76:	687a      	ldr	r2, [r7, #4]
    4d78:	601a      	str	r2, [r3, #0]
/home/guilherme/Documents/GER-SDP/KDS/SDP-2016/Debug/../Generated_Code/BitIoLdd6.c:130
  /* Configure pin as output */
  /* GPIOB_PDDR: PDD|=0x0400 */
  GPIOB_PDDR |= GPIO_PDDR_PDD(0x0400);
    4d7a:	4b10      	ldr	r3, [pc, #64]	; (4dbc <BitIoLdd6_Init+0x54>)
    4d7c:	4a0f      	ldr	r2, [pc, #60]	; (4dbc <BitIoLdd6_Init+0x54>)
    4d7e:	6952      	ldr	r2, [r2, #20]
    4d80:	2180      	movs	r1, #128	; 0x80
    4d82:	00c9      	lsls	r1, r1, #3
    4d84:	430a      	orrs	r2, r1
    4d86:	615a      	str	r2, [r3, #20]
/home/guilherme/Documents/GER-SDP/KDS/SDP-2016/Debug/../Generated_Code/BitIoLdd6.c:133
  /* Set initialization value */
  /* GPIOB_PDOR: PDO&=~0x0400 */
  GPIOB_PDOR &= (uint32_t)~(uint32_t)(GPIO_PDOR_PDO(0x0400));
    4d88:	4b0c      	ldr	r3, [pc, #48]	; (4dbc <BitIoLdd6_Init+0x54>)
    4d8a:	4a0c      	ldr	r2, [pc, #48]	; (4dbc <BitIoLdd6_Init+0x54>)
    4d8c:	6811      	ldr	r1, [r2, #0]
    4d8e:	4a0c      	ldr	r2, [pc, #48]	; (4dc0 <BitIoLdd6_Init+0x58>)
    4d90:	400a      	ands	r2, r1
    4d92:	601a      	str	r2, [r3, #0]
/home/guilherme/Documents/GER-SDP/KDS/SDP-2016/Debug/../Generated_Code/BitIoLdd6.c:136
  /* Initialization of Port Control register */
  /* PORTB_PCR10: ISF=0,MUX=1 */
  PORTB_PCR10 = (uint32_t)((PORTB_PCR10 & (uint32_t)~(uint32_t)(
    4d94:	4b0b      	ldr	r3, [pc, #44]	; (4dc4 <BitIoLdd6_Init+0x5c>)
    4d96:	4a0b      	ldr	r2, [pc, #44]	; (4dc4 <BitIoLdd6_Init+0x5c>)
    4d98:	6a91      	ldr	r1, [r2, #40]	; 0x28
    4d9a:	4a0b      	ldr	r2, [pc, #44]	; (4dc8 <BitIoLdd6_Init+0x60>)
    4d9c:	400a      	ands	r2, r1
    4d9e:	2180      	movs	r1, #128	; 0x80
    4da0:	0049      	lsls	r1, r1, #1
    4da2:	430a      	orrs	r2, r1
    4da4:	629a      	str	r2, [r3, #40]	; 0x28
/home/guilherme/Documents/GER-SDP/KDS/SDP-2016/Debug/../Generated_Code/BitIoLdd6.c:143
                 PORT_PCR_MUX(0x06)
                )) | (uint32_t)(
                 PORT_PCR_MUX(0x01)
                ));
  /* Registration of the device structure */
  PE_LDD_RegisterDeviceStructure(PE_LDD_COMPONENT_BitIoLdd6_ID,DeviceDataPrv);
    4da6:	4b09      	ldr	r3, [pc, #36]	; (4dcc <BitIoLdd6_Init+0x64>)
    4da8:	68fa      	ldr	r2, [r7, #12]
    4daa:	641a      	str	r2, [r3, #64]	; 0x40
/home/guilherme/Documents/GER-SDP/KDS/SDP-2016/Debug/../Generated_Code/BitIoLdd6.c:144
  return ((LDD_TDeviceData *)DeviceDataPrv);
    4dac:	68fb      	ldr	r3, [r7, #12]
/home/guilherme/Documents/GER-SDP/KDS/SDP-2016/Debug/../Generated_Code/BitIoLdd6.c:145
}
    4dae:	1c18      	adds	r0, r3, #0
    4db0:	46bd      	mov	sp, r7
    4db2:	b004      	add	sp, #16
    4db4:	bd80      	pop	{r7, pc}
    4db6:	46c0      	nop			; (mov r8, r8)
    4db8:	1ffff0c4 	.word	0x1ffff0c4
    4dbc:	400ff040 	.word	0x400ff040
    4dc0:	fffffbff 	.word	0xfffffbff
    4dc4:	4004a000 	.word	0x4004a000
    4dc8:	fefff8ff 	.word	0xfefff8ff
    4dcc:	1ffff0d8 	.word	0x1ffff0d8

00004dd0 <BitIoLdd6_ClrVal>:
BitIoLdd6_ClrVal():
/home/guilherme/Documents/GER-SDP/KDS/SDP-2016/Debug/../Generated_Code/BitIoLdd6.c:161
**         DeviceDataPtr   - Pointer to device data
**                           structure returned by <Init> method.
*/
/* ===================================================================*/
void BitIoLdd6_ClrVal(LDD_TDeviceData *DeviceDataPtr)
{
    4dd0:	b580      	push	{r7, lr}
    4dd2:	b082      	sub	sp, #8
    4dd4:	af00      	add	r7, sp, #0
    4dd6:	6078      	str	r0, [r7, #4]
/home/guilherme/Documents/GER-SDP/KDS/SDP-2016/Debug/../Generated_Code/BitIoLdd6.c:163
  (void)DeviceDataPtr;                 /* Parameter is not used, suppress unused argument warning */
  GPIO_PDD_ClearPortDataOutputMask(BitIoLdd6_MODULE_BASE_ADDRESS, BitIoLdd6_PORT_MASK);
    4dd8:	4b03      	ldr	r3, [pc, #12]	; (4de8 <BitIoLdd6_ClrVal+0x18>)
    4dda:	2280      	movs	r2, #128	; 0x80
    4ddc:	00d2      	lsls	r2, r2, #3
    4dde:	609a      	str	r2, [r3, #8]
/home/guilherme/Documents/GER-SDP/KDS/SDP-2016/Debug/../Generated_Code/BitIoLdd6.c:164
}
    4de0:	46bd      	mov	sp, r7
    4de2:	b002      	add	sp, #8
    4de4:	bd80      	pop	{r7, pc}
    4de6:	46c0      	nop			; (mov r8, r8)
    4de8:	f80ff040 	.word	0xf80ff040

00004dec <BitIoLdd6_SetVal>:
BitIoLdd6_SetVal():
/home/guilherme/Documents/GER-SDP/KDS/SDP-2016/Debug/../Generated_Code/BitIoLdd6.c:181
**         DeviceDataPtr   - Pointer to device data
**                           structure returned by <Init> method.
*/
/* ===================================================================*/
void BitIoLdd6_SetVal(LDD_TDeviceData *DeviceDataPtr)
{
    4dec:	b580      	push	{r7, lr}
    4dee:	b082      	sub	sp, #8
    4df0:	af00      	add	r7, sp, #0
    4df2:	6078      	str	r0, [r7, #4]
/home/guilherme/Documents/GER-SDP/KDS/SDP-2016/Debug/../Generated_Code/BitIoLdd6.c:183
  (void)DeviceDataPtr;                 /* Parameter is not used, suppress unused argument warning */
  GPIO_PDD_SetPortDataOutputMask(BitIoLdd6_MODULE_BASE_ADDRESS, BitIoLdd6_PORT_MASK);
    4df4:	4b03      	ldr	r3, [pc, #12]	; (4e04 <BitIoLdd6_SetVal+0x18>)
    4df6:	2280      	movs	r2, #128	; 0x80
    4df8:	00d2      	lsls	r2, r2, #3
    4dfa:	605a      	str	r2, [r3, #4]
/home/guilherme/Documents/GER-SDP/KDS/SDP-2016/Debug/../Generated_Code/BitIoLdd6.c:184
}
    4dfc:	46bd      	mov	sp, r7
    4dfe:	b002      	add	sp, #8
    4e00:	bd80      	pop	{r7, pc}
    4e02:	46c0      	nop			; (mov r8, r8)
    4e04:	f80ff040 	.word	0xf80ff040

00004e08 <BitIoLdd6_NegVal>:
BitIoLdd6_NegVal():
/home/guilherme/Documents/GER-SDP/KDS/SDP-2016/Debug/../Generated_Code/BitIoLdd6.c:201
**         DeviceDataPtr   - Pointer to device data
**                           structure returned by <Init> method.
*/
/* ===================================================================*/
void BitIoLdd6_NegVal(LDD_TDeviceData *DeviceDataPtr)
{
    4e08:	b580      	push	{r7, lr}
    4e0a:	b082      	sub	sp, #8
    4e0c:	af00      	add	r7, sp, #0
    4e0e:	6078      	str	r0, [r7, #4]
/home/guilherme/Documents/GER-SDP/KDS/SDP-2016/Debug/../Generated_Code/BitIoLdd6.c:203
  (void)DeviceDataPtr;                 /* Parameter is not used, suppress unused argument warning */
  GPIO_PDD_TogglePortDataOutputMask(BitIoLdd6_MODULE_BASE_ADDRESS, BitIoLdd6_PORT_MASK);
    4e10:	4b03      	ldr	r3, [pc, #12]	; (4e20 <BitIoLdd6_NegVal+0x18>)
    4e12:	2280      	movs	r2, #128	; 0x80
    4e14:	00d2      	lsls	r2, r2, #3
    4e16:	60da      	str	r2, [r3, #12]
/home/guilherme/Documents/GER-SDP/KDS/SDP-2016/Debug/../Generated_Code/BitIoLdd6.c:204
}
    4e18:	46bd      	mov	sp, r7
    4e1a:	b002      	add	sp, #8
    4e1c:	bd80      	pop	{r7, pc}
    4e1e:	46c0      	nop			; (mov r8, r8)
    4e20:	f80ff040 	.word	0xf80ff040

00004e24 <BitIoLdd7_Init>:
BitIoLdd7_Init():
/home/guilherme/Documents/GER-SDP/KDS/SDP-2016/Debug/../Generated_Code/BitIoLdd7.c:121
**                         - Pointer to the dynamically allocated private
**                           structure or NULL if there was an error.
*/
/* ===================================================================*/
LDD_TDeviceData* BitIoLdd7_Init(LDD_TUserData *UserDataPtr)
{
    4e24:	b580      	push	{r7, lr}
    4e26:	b084      	sub	sp, #16
    4e28:	af00      	add	r7, sp, #0
    4e2a:	6078      	str	r0, [r7, #4]
/home/guilherme/Documents/GER-SDP/KDS/SDP-2016/Debug/../Generated_Code/BitIoLdd7.c:126
  /* Allocate device structure */
  BitIoLdd7_TDeviceDataPtr DeviceDataPrv;

  /* {Default RTOS Adapter} Driver memory allocation: Dynamic allocation is simulated by a pointer to the static object */
  DeviceDataPrv = &DeviceDataPrv__DEFAULT_RTOS_ALLOC;
    4e2c:	4b11      	ldr	r3, [pc, #68]	; (4e74 <BitIoLdd7_Init+0x50>)
    4e2e:	60fb      	str	r3, [r7, #12]
/home/guilherme/Documents/GER-SDP/KDS/SDP-2016/Debug/../Generated_Code/BitIoLdd7.c:127
  DeviceDataPrv->UserDataPtr = UserDataPtr; /* Store the RTOS device structure */
    4e30:	68fb      	ldr	r3, [r7, #12]
    4e32:	687a      	ldr	r2, [r7, #4]
    4e34:	601a      	str	r2, [r3, #0]
/home/guilherme/Documents/GER-SDP/KDS/SDP-2016/Debug/../Generated_Code/BitIoLdd7.c:130
  /* Configure pin as output */
  /* GPIOB_PDDR: PDD|=0x0200 */
  GPIOB_PDDR |= GPIO_PDDR_PDD(0x0200);
    4e36:	4b10      	ldr	r3, [pc, #64]	; (4e78 <BitIoLdd7_Init+0x54>)
    4e38:	4a0f      	ldr	r2, [pc, #60]	; (4e78 <BitIoLdd7_Init+0x54>)
    4e3a:	6952      	ldr	r2, [r2, #20]
    4e3c:	2180      	movs	r1, #128	; 0x80
    4e3e:	0089      	lsls	r1, r1, #2
    4e40:	430a      	orrs	r2, r1
    4e42:	615a      	str	r2, [r3, #20]
/home/guilherme/Documents/GER-SDP/KDS/SDP-2016/Debug/../Generated_Code/BitIoLdd7.c:133
  /* Set initialization value */
  /* GPIOB_PDOR: PDO&=~0x0200 */
  GPIOB_PDOR &= (uint32_t)~(uint32_t)(GPIO_PDOR_PDO(0x0200));
    4e44:	4b0c      	ldr	r3, [pc, #48]	; (4e78 <BitIoLdd7_Init+0x54>)
    4e46:	4a0c      	ldr	r2, [pc, #48]	; (4e78 <BitIoLdd7_Init+0x54>)
    4e48:	6811      	ldr	r1, [r2, #0]
    4e4a:	4a0c      	ldr	r2, [pc, #48]	; (4e7c <BitIoLdd7_Init+0x58>)
    4e4c:	400a      	ands	r2, r1
    4e4e:	601a      	str	r2, [r3, #0]
/home/guilherme/Documents/GER-SDP/KDS/SDP-2016/Debug/../Generated_Code/BitIoLdd7.c:136
  /* Initialization of Port Control register */
  /* PORTB_PCR9: ISF=0,MUX=1 */
  PORTB_PCR9 = (uint32_t)((PORTB_PCR9 & (uint32_t)~(uint32_t)(
    4e50:	4b0b      	ldr	r3, [pc, #44]	; (4e80 <BitIoLdd7_Init+0x5c>)
    4e52:	4a0b      	ldr	r2, [pc, #44]	; (4e80 <BitIoLdd7_Init+0x5c>)
    4e54:	6a51      	ldr	r1, [r2, #36]	; 0x24
    4e56:	4a0b      	ldr	r2, [pc, #44]	; (4e84 <BitIoLdd7_Init+0x60>)
    4e58:	400a      	ands	r2, r1
    4e5a:	2180      	movs	r1, #128	; 0x80
    4e5c:	0049      	lsls	r1, r1, #1
    4e5e:	430a      	orrs	r2, r1
    4e60:	625a      	str	r2, [r3, #36]	; 0x24
/home/guilherme/Documents/GER-SDP/KDS/SDP-2016/Debug/../Generated_Code/BitIoLdd7.c:143
                PORT_PCR_MUX(0x06)
               )) | (uint32_t)(
                PORT_PCR_MUX(0x01)
               ));
  /* Registration of the device structure */
  PE_LDD_RegisterDeviceStructure(PE_LDD_COMPONENT_BitIoLdd7_ID,DeviceDataPrv);
    4e62:	4b09      	ldr	r3, [pc, #36]	; (4e88 <BitIoLdd7_Init+0x64>)
    4e64:	68fa      	ldr	r2, [r7, #12]
    4e66:	645a      	str	r2, [r3, #68]	; 0x44
/home/guilherme/Documents/GER-SDP/KDS/SDP-2016/Debug/../Generated_Code/BitIoLdd7.c:144
  return ((LDD_TDeviceData *)DeviceDataPrv);
    4e68:	68fb      	ldr	r3, [r7, #12]
/home/guilherme/Documents/GER-SDP/KDS/SDP-2016/Debug/../Generated_Code/BitIoLdd7.c:145
}
    4e6a:	1c18      	adds	r0, r3, #0
    4e6c:	46bd      	mov	sp, r7
    4e6e:	b004      	add	sp, #16
    4e70:	bd80      	pop	{r7, pc}
    4e72:	46c0      	nop			; (mov r8, r8)
    4e74:	1ffff0c8 	.word	0x1ffff0c8
    4e78:	400ff040 	.word	0x400ff040
    4e7c:	fffffdff 	.word	0xfffffdff
    4e80:	4004a000 	.word	0x4004a000
    4e84:	fefff8ff 	.word	0xfefff8ff
    4e88:	1ffff0d8 	.word	0x1ffff0d8

00004e8c <BitIoLdd7_ClrVal>:
BitIoLdd7_ClrVal():
/home/guilherme/Documents/GER-SDP/KDS/SDP-2016/Debug/../Generated_Code/BitIoLdd7.c:161
**         DeviceDataPtr   - Pointer to device data
**                           structure returned by <Init> method.
*/
/* ===================================================================*/
void BitIoLdd7_ClrVal(LDD_TDeviceData *DeviceDataPtr)
{
    4e8c:	b580      	push	{r7, lr}
    4e8e:	b082      	sub	sp, #8
    4e90:	af00      	add	r7, sp, #0
    4e92:	6078      	str	r0, [r7, #4]
/home/guilherme/Documents/GER-SDP/KDS/SDP-2016/Debug/../Generated_Code/BitIoLdd7.c:163
  (void)DeviceDataPtr;                 /* Parameter is not used, suppress unused argument warning */
  GPIO_PDD_ClearPortDataOutputMask(BitIoLdd7_MODULE_BASE_ADDRESS, BitIoLdd7_PORT_MASK);
    4e94:	4b03      	ldr	r3, [pc, #12]	; (4ea4 <BitIoLdd7_ClrVal+0x18>)
    4e96:	2280      	movs	r2, #128	; 0x80
    4e98:	0092      	lsls	r2, r2, #2
    4e9a:	609a      	str	r2, [r3, #8]
/home/guilherme/Documents/GER-SDP/KDS/SDP-2016/Debug/../Generated_Code/BitIoLdd7.c:164
}
    4e9c:	46bd      	mov	sp, r7
    4e9e:	b002      	add	sp, #8
    4ea0:	bd80      	pop	{r7, pc}
    4ea2:	46c0      	nop			; (mov r8, r8)
    4ea4:	f80ff040 	.word	0xf80ff040

00004ea8 <BitIoLdd7_SetVal>:
BitIoLdd7_SetVal():
/home/guilherme/Documents/GER-SDP/KDS/SDP-2016/Debug/../Generated_Code/BitIoLdd7.c:181
**         DeviceDataPtr   - Pointer to device data
**                           structure returned by <Init> method.
*/
/* ===================================================================*/
void BitIoLdd7_SetVal(LDD_TDeviceData *DeviceDataPtr)
{
    4ea8:	b580      	push	{r7, lr}
    4eaa:	b082      	sub	sp, #8
    4eac:	af00      	add	r7, sp, #0
    4eae:	6078      	str	r0, [r7, #4]
/home/guilherme/Documents/GER-SDP/KDS/SDP-2016/Debug/../Generated_Code/BitIoLdd7.c:183
  (void)DeviceDataPtr;                 /* Parameter is not used, suppress unused argument warning */
  GPIO_PDD_SetPortDataOutputMask(BitIoLdd7_MODULE_BASE_ADDRESS, BitIoLdd7_PORT_MASK);
    4eb0:	4b03      	ldr	r3, [pc, #12]	; (4ec0 <BitIoLdd7_SetVal+0x18>)
    4eb2:	2280      	movs	r2, #128	; 0x80
    4eb4:	0092      	lsls	r2, r2, #2
    4eb6:	605a      	str	r2, [r3, #4]
/home/guilherme/Documents/GER-SDP/KDS/SDP-2016/Debug/../Generated_Code/BitIoLdd7.c:184
}
    4eb8:	46bd      	mov	sp, r7
    4eba:	b002      	add	sp, #8
    4ebc:	bd80      	pop	{r7, pc}
    4ebe:	46c0      	nop			; (mov r8, r8)
    4ec0:	f80ff040 	.word	0xf80ff040

00004ec4 <BitIoLdd7_NegVal>:
BitIoLdd7_NegVal():
/home/guilherme/Documents/GER-SDP/KDS/SDP-2016/Debug/../Generated_Code/BitIoLdd7.c:201
**         DeviceDataPtr   - Pointer to device data
**                           structure returned by <Init> method.
*/
/* ===================================================================*/
void BitIoLdd7_NegVal(LDD_TDeviceData *DeviceDataPtr)
{
    4ec4:	b580      	push	{r7, lr}
    4ec6:	b082      	sub	sp, #8
    4ec8:	af00      	add	r7, sp, #0
    4eca:	6078      	str	r0, [r7, #4]
/home/guilherme/Documents/GER-SDP/KDS/SDP-2016/Debug/../Generated_Code/BitIoLdd7.c:203
  (void)DeviceDataPtr;                 /* Parameter is not used, suppress unused argument warning */
  GPIO_PDD_TogglePortDataOutputMask(BitIoLdd7_MODULE_BASE_ADDRESS, BitIoLdd7_PORT_MASK);
    4ecc:	4b03      	ldr	r3, [pc, #12]	; (4edc <BitIoLdd7_NegVal+0x18>)
    4ece:	2280      	movs	r2, #128	; 0x80
    4ed0:	0092      	lsls	r2, r2, #2
    4ed2:	60da      	str	r2, [r3, #12]
/home/guilherme/Documents/GER-SDP/KDS/SDP-2016/Debug/../Generated_Code/BitIoLdd7.c:204
}
    4ed4:	46bd      	mov	sp, r7
    4ed6:	b002      	add	sp, #8
    4ed8:	bd80      	pop	{r7, pc}
    4eda:	46c0      	nop			; (mov r8, r8)
    4edc:	f80ff040 	.word	0xf80ff040

00004ee0 <BitIoLdd8_Init>:
BitIoLdd8_Init():
/home/guilherme/Documents/GER-SDP/KDS/SDP-2016/Debug/../Generated_Code/BitIoLdd8.c:121
**                         - Pointer to the dynamically allocated private
**                           structure or NULL if there was an error.
*/
/* ===================================================================*/
LDD_TDeviceData* BitIoLdd8_Init(LDD_TUserData *UserDataPtr)
{
    4ee0:	b580      	push	{r7, lr}
    4ee2:	b084      	sub	sp, #16
    4ee4:	af00      	add	r7, sp, #0
    4ee6:	6078      	str	r0, [r7, #4]
/home/guilherme/Documents/GER-SDP/KDS/SDP-2016/Debug/../Generated_Code/BitIoLdd8.c:126
  /* Allocate device structure */
  BitIoLdd8_TDeviceDataPtr DeviceDataPrv;

  /* {Default RTOS Adapter} Driver memory allocation: Dynamic allocation is simulated by a pointer to the static object */
  DeviceDataPrv = &DeviceDataPrv__DEFAULT_RTOS_ALLOC;
    4ee8:	4b11      	ldr	r3, [pc, #68]	; (4f30 <BitIoLdd8_Init+0x50>)
    4eea:	60fb      	str	r3, [r7, #12]
/home/guilherme/Documents/GER-SDP/KDS/SDP-2016/Debug/../Generated_Code/BitIoLdd8.c:127
  DeviceDataPrv->UserDataPtr = UserDataPtr; /* Store the RTOS device structure */
    4eec:	68fb      	ldr	r3, [r7, #12]
    4eee:	687a      	ldr	r2, [r7, #4]
    4ef0:	601a      	str	r2, [r3, #0]
/home/guilherme/Documents/GER-SDP/KDS/SDP-2016/Debug/../Generated_Code/BitIoLdd8.c:130
  /* Configure pin as output */
  /* GPIOB_PDDR: PDD|=0x0100 */
  GPIOB_PDDR |= GPIO_PDDR_PDD(0x0100);
    4ef2:	4b10      	ldr	r3, [pc, #64]	; (4f34 <BitIoLdd8_Init+0x54>)
    4ef4:	4a0f      	ldr	r2, [pc, #60]	; (4f34 <BitIoLdd8_Init+0x54>)
    4ef6:	6952      	ldr	r2, [r2, #20]
    4ef8:	2180      	movs	r1, #128	; 0x80
    4efa:	0049      	lsls	r1, r1, #1
    4efc:	430a      	orrs	r2, r1
    4efe:	615a      	str	r2, [r3, #20]
/home/guilherme/Documents/GER-SDP/KDS/SDP-2016/Debug/../Generated_Code/BitIoLdd8.c:133
  /* Set initialization value */
  /* GPIOB_PDOR: PDO&=~0x0100 */
  GPIOB_PDOR &= (uint32_t)~(uint32_t)(GPIO_PDOR_PDO(0x0100));
    4f00:	4b0c      	ldr	r3, [pc, #48]	; (4f34 <BitIoLdd8_Init+0x54>)
    4f02:	4a0c      	ldr	r2, [pc, #48]	; (4f34 <BitIoLdd8_Init+0x54>)
    4f04:	6811      	ldr	r1, [r2, #0]
    4f06:	4a0c      	ldr	r2, [pc, #48]	; (4f38 <BitIoLdd8_Init+0x58>)
    4f08:	400a      	ands	r2, r1
    4f0a:	601a      	str	r2, [r3, #0]
/home/guilherme/Documents/GER-SDP/KDS/SDP-2016/Debug/../Generated_Code/BitIoLdd8.c:136
  /* Initialization of Port Control register */
  /* PORTB_PCR8: ISF=0,MUX=1 */
  PORTB_PCR8 = (uint32_t)((PORTB_PCR8 & (uint32_t)~(uint32_t)(
    4f0c:	4b0b      	ldr	r3, [pc, #44]	; (4f3c <BitIoLdd8_Init+0x5c>)
    4f0e:	4a0b      	ldr	r2, [pc, #44]	; (4f3c <BitIoLdd8_Init+0x5c>)
    4f10:	6a11      	ldr	r1, [r2, #32]
    4f12:	4a0b      	ldr	r2, [pc, #44]	; (4f40 <BitIoLdd8_Init+0x60>)
    4f14:	400a      	ands	r2, r1
    4f16:	2180      	movs	r1, #128	; 0x80
    4f18:	0049      	lsls	r1, r1, #1
    4f1a:	430a      	orrs	r2, r1
    4f1c:	621a      	str	r2, [r3, #32]
/home/guilherme/Documents/GER-SDP/KDS/SDP-2016/Debug/../Generated_Code/BitIoLdd8.c:143
                PORT_PCR_MUX(0x06)
               )) | (uint32_t)(
                PORT_PCR_MUX(0x01)
               ));
  /* Registration of the device structure */
  PE_LDD_RegisterDeviceStructure(PE_LDD_COMPONENT_BitIoLdd8_ID,DeviceDataPrv);
    4f1e:	4b09      	ldr	r3, [pc, #36]	; (4f44 <BitIoLdd8_Init+0x64>)
    4f20:	68fa      	ldr	r2, [r7, #12]
    4f22:	649a      	str	r2, [r3, #72]	; 0x48
/home/guilherme/Documents/GER-SDP/KDS/SDP-2016/Debug/../Generated_Code/BitIoLdd8.c:144
  return ((LDD_TDeviceData *)DeviceDataPrv);
    4f24:	68fb      	ldr	r3, [r7, #12]
/home/guilherme/Documents/GER-SDP/KDS/SDP-2016/Debug/../Generated_Code/BitIoLdd8.c:145
}
    4f26:	1c18      	adds	r0, r3, #0
    4f28:	46bd      	mov	sp, r7
    4f2a:	b004      	add	sp, #16
    4f2c:	bd80      	pop	{r7, pc}
    4f2e:	46c0      	nop			; (mov r8, r8)
    4f30:	1ffff0cc 	.word	0x1ffff0cc
    4f34:	400ff040 	.word	0x400ff040
    4f38:	fffffeff 	.word	0xfffffeff
    4f3c:	4004a000 	.word	0x4004a000
    4f40:	fefff8ff 	.word	0xfefff8ff
    4f44:	1ffff0d8 	.word	0x1ffff0d8

00004f48 <BitIoLdd8_ClrVal>:
BitIoLdd8_ClrVal():
/home/guilherme/Documents/GER-SDP/KDS/SDP-2016/Debug/../Generated_Code/BitIoLdd8.c:161
**         DeviceDataPtr   - Pointer to device data
**                           structure returned by <Init> method.
*/
/* ===================================================================*/
void BitIoLdd8_ClrVal(LDD_TDeviceData *DeviceDataPtr)
{
    4f48:	b580      	push	{r7, lr}
    4f4a:	b082      	sub	sp, #8
    4f4c:	af00      	add	r7, sp, #0
    4f4e:	6078      	str	r0, [r7, #4]
/home/guilherme/Documents/GER-SDP/KDS/SDP-2016/Debug/../Generated_Code/BitIoLdd8.c:163
  (void)DeviceDataPtr;                 /* Parameter is not used, suppress unused argument warning */
  GPIO_PDD_ClearPortDataOutputMask(BitIoLdd8_MODULE_BASE_ADDRESS, BitIoLdd8_PORT_MASK);
    4f50:	4b03      	ldr	r3, [pc, #12]	; (4f60 <BitIoLdd8_ClrVal+0x18>)
    4f52:	2280      	movs	r2, #128	; 0x80
    4f54:	0052      	lsls	r2, r2, #1
    4f56:	609a      	str	r2, [r3, #8]
/home/guilherme/Documents/GER-SDP/KDS/SDP-2016/Debug/../Generated_Code/BitIoLdd8.c:164
}
    4f58:	46bd      	mov	sp, r7
    4f5a:	b002      	add	sp, #8
    4f5c:	bd80      	pop	{r7, pc}
    4f5e:	46c0      	nop			; (mov r8, r8)
    4f60:	f80ff040 	.word	0xf80ff040

00004f64 <BitIoLdd8_SetVal>:
BitIoLdd8_SetVal():
/home/guilherme/Documents/GER-SDP/KDS/SDP-2016/Debug/../Generated_Code/BitIoLdd8.c:181
**         DeviceDataPtr   - Pointer to device data
**                           structure returned by <Init> method.
*/
/* ===================================================================*/
void BitIoLdd8_SetVal(LDD_TDeviceData *DeviceDataPtr)
{
    4f64:	b580      	push	{r7, lr}
    4f66:	b082      	sub	sp, #8
    4f68:	af00      	add	r7, sp, #0
    4f6a:	6078      	str	r0, [r7, #4]
/home/guilherme/Documents/GER-SDP/KDS/SDP-2016/Debug/../Generated_Code/BitIoLdd8.c:183
  (void)DeviceDataPtr;                 /* Parameter is not used, suppress unused argument warning */
  GPIO_PDD_SetPortDataOutputMask(BitIoLdd8_MODULE_BASE_ADDRESS, BitIoLdd8_PORT_MASK);
    4f6c:	4b03      	ldr	r3, [pc, #12]	; (4f7c <BitIoLdd8_SetVal+0x18>)
    4f6e:	2280      	movs	r2, #128	; 0x80
    4f70:	0052      	lsls	r2, r2, #1
    4f72:	605a      	str	r2, [r3, #4]
/home/guilherme/Documents/GER-SDP/KDS/SDP-2016/Debug/../Generated_Code/BitIoLdd8.c:184
}
    4f74:	46bd      	mov	sp, r7
    4f76:	b002      	add	sp, #8
    4f78:	bd80      	pop	{r7, pc}
    4f7a:	46c0      	nop			; (mov r8, r8)
    4f7c:	f80ff040 	.word	0xf80ff040

00004f80 <BitIoLdd8_NegVal>:
BitIoLdd8_NegVal():
/home/guilherme/Documents/GER-SDP/KDS/SDP-2016/Debug/../Generated_Code/BitIoLdd8.c:201
**         DeviceDataPtr   - Pointer to device data
**                           structure returned by <Init> method.
*/
/* ===================================================================*/
void BitIoLdd8_NegVal(LDD_TDeviceData *DeviceDataPtr)
{
    4f80:	b580      	push	{r7, lr}
    4f82:	b082      	sub	sp, #8
    4f84:	af00      	add	r7, sp, #0
    4f86:	6078      	str	r0, [r7, #4]
/home/guilherme/Documents/GER-SDP/KDS/SDP-2016/Debug/../Generated_Code/BitIoLdd8.c:203
  (void)DeviceDataPtr;                 /* Parameter is not used, suppress unused argument warning */
  GPIO_PDD_TogglePortDataOutputMask(BitIoLdd8_MODULE_BASE_ADDRESS, BitIoLdd8_PORT_MASK);
    4f88:	4b03      	ldr	r3, [pc, #12]	; (4f98 <BitIoLdd8_NegVal+0x18>)
    4f8a:	2280      	movs	r2, #128	; 0x80
    4f8c:	0052      	lsls	r2, r2, #1
    4f8e:	60da      	str	r2, [r3, #12]
/home/guilherme/Documents/GER-SDP/KDS/SDP-2016/Debug/../Generated_Code/BitIoLdd8.c:204
}
    4f90:	46bd      	mov	sp, r7
    4f92:	b002      	add	sp, #8
    4f94:	bd80      	pop	{r7, pc}
    4f96:	46c0      	nop			; (mov r8, r8)
    4f98:	f80ff040 	.word	0xf80ff040

00004f9c <BitIoLdd9_Init>:
BitIoLdd9_Init():
/home/guilherme/Documents/GER-SDP/KDS/SDP-2016/Debug/../Generated_Code/BitIoLdd9.c:122
**                         - Pointer to the dynamically allocated private
**                           structure or NULL if there was an error.
*/
/* ===================================================================*/
LDD_TDeviceData* BitIoLdd9_Init(LDD_TUserData *UserDataPtr)
{
    4f9c:	b580      	push	{r7, lr}
    4f9e:	b084      	sub	sp, #16
    4fa0:	af00      	add	r7, sp, #0
    4fa2:	6078      	str	r0, [r7, #4]
/home/guilherme/Documents/GER-SDP/KDS/SDP-2016/Debug/../Generated_Code/BitIoLdd9.c:127
  /* Allocate device structure */
  BitIoLdd9_TDeviceDataPtr DeviceDataPrv;

  /* {Default RTOS Adapter} Driver memory allocation: Dynamic allocation is simulated by a pointer to the static object */
  DeviceDataPrv = &DeviceDataPrv__DEFAULT_RTOS_ALLOC;
    4fa4:	4b11      	ldr	r3, [pc, #68]	; (4fec <BitIoLdd9_Init+0x50>)
    4fa6:	60fb      	str	r3, [r7, #12]
/home/guilherme/Documents/GER-SDP/KDS/SDP-2016/Debug/../Generated_Code/BitIoLdd9.c:128
  DeviceDataPrv->UserDataPtr = UserDataPtr; /* Store the RTOS device structure */
    4fa8:	68fb      	ldr	r3, [r7, #12]
    4faa:	687a      	ldr	r2, [r7, #4]
    4fac:	601a      	str	r2, [r3, #0]
/home/guilherme/Documents/GER-SDP/KDS/SDP-2016/Debug/../Generated_Code/BitIoLdd9.c:131
  /* Configure pin as output */
  /* GPIOB_PDDR: PDD|=0x00040000 */
  GPIOB_PDDR |= GPIO_PDDR_PDD(0x00040000);
    4fae:	4b10      	ldr	r3, [pc, #64]	; (4ff0 <BitIoLdd9_Init+0x54>)
    4fb0:	4a0f      	ldr	r2, [pc, #60]	; (4ff0 <BitIoLdd9_Init+0x54>)
    4fb2:	6952      	ldr	r2, [r2, #20]
    4fb4:	2180      	movs	r1, #128	; 0x80
    4fb6:	02c9      	lsls	r1, r1, #11
    4fb8:	430a      	orrs	r2, r1
    4fba:	615a      	str	r2, [r3, #20]
/home/guilherme/Documents/GER-SDP/KDS/SDP-2016/Debug/../Generated_Code/BitIoLdd9.c:134
  /* Set initialization value */
  /* GPIOB_PDOR: PDO|=0x00040000 */
  GPIOB_PDOR |= GPIO_PDOR_PDO(0x00040000);
    4fbc:	4b0c      	ldr	r3, [pc, #48]	; (4ff0 <BitIoLdd9_Init+0x54>)
    4fbe:	4a0c      	ldr	r2, [pc, #48]	; (4ff0 <BitIoLdd9_Init+0x54>)
    4fc0:	6812      	ldr	r2, [r2, #0]
    4fc2:	2180      	movs	r1, #128	; 0x80
    4fc4:	02c9      	lsls	r1, r1, #11
    4fc6:	430a      	orrs	r2, r1
    4fc8:	601a      	str	r2, [r3, #0]
/home/guilherme/Documents/GER-SDP/KDS/SDP-2016/Debug/../Generated_Code/BitIoLdd9.c:137
  /* Initialization of Port Control register */
  /* PORTB_PCR18: ISF=0,MUX=1 */
  PORTB_PCR18 = (uint32_t)((PORTB_PCR18 & (uint32_t)~(uint32_t)(
    4fca:	4b0a      	ldr	r3, [pc, #40]	; (4ff4 <BitIoLdd9_Init+0x58>)
    4fcc:	4a09      	ldr	r2, [pc, #36]	; (4ff4 <BitIoLdd9_Init+0x58>)
    4fce:	6c91      	ldr	r1, [r2, #72]	; 0x48
    4fd0:	4a09      	ldr	r2, [pc, #36]	; (4ff8 <BitIoLdd9_Init+0x5c>)
    4fd2:	400a      	ands	r2, r1
    4fd4:	2180      	movs	r1, #128	; 0x80
    4fd6:	0049      	lsls	r1, r1, #1
    4fd8:	430a      	orrs	r2, r1
    4fda:	649a      	str	r2, [r3, #72]	; 0x48
/home/guilherme/Documents/GER-SDP/KDS/SDP-2016/Debug/../Generated_Code/BitIoLdd9.c:144
                 PORT_PCR_MUX(0x06)
                )) | (uint32_t)(
                 PORT_PCR_MUX(0x01)
                ));
  /* Registration of the device structure */
  PE_LDD_RegisterDeviceStructure(PE_LDD_COMPONENT_BitIoLdd9_ID,DeviceDataPrv);
    4fdc:	4b07      	ldr	r3, [pc, #28]	; (4ffc <BitIoLdd9_Init+0x60>)
    4fde:	68fa      	ldr	r2, [r7, #12]
    4fe0:	64da      	str	r2, [r3, #76]	; 0x4c
/home/guilherme/Documents/GER-SDP/KDS/SDP-2016/Debug/../Generated_Code/BitIoLdd9.c:145
  return ((LDD_TDeviceData *)DeviceDataPrv);
    4fe2:	68fb      	ldr	r3, [r7, #12]
/home/guilherme/Documents/GER-SDP/KDS/SDP-2016/Debug/../Generated_Code/BitIoLdd9.c:146
}
    4fe4:	1c18      	adds	r0, r3, #0
    4fe6:	46bd      	mov	sp, r7
    4fe8:	b004      	add	sp, #16
    4fea:	bd80      	pop	{r7, pc}
    4fec:	1ffff0d0 	.word	0x1ffff0d0
    4ff0:	400ff040 	.word	0x400ff040
    4ff4:	4004a000 	.word	0x4004a000
    4ff8:	fefff8ff 	.word	0xfefff8ff
    4ffc:	1ffff0d8 	.word	0x1ffff0d8

00005000 <TimerIntLdd1_OnInterrupt>:
TimerIntLdd1_OnInterrupt():
/home/guilherme/Documents/GER-SDP/KDS/SDP-2016/Debug/../Generated_Code/Camera_CLK_Interruption.c:186
**     Description :
**         This method is internal. It is used by Processor Expert only.
** ===================================================================
*/
void TimerIntLdd1_OnInterrupt(LDD_TUserData *UserDataPtr)
{
    5000:	b580      	push	{r7, lr}
    5002:	b082      	sub	sp, #8
    5004:	af00      	add	r7, sp, #0
    5006:	6078      	str	r0, [r7, #4]
/home/guilherme/Documents/GER-SDP/KDS/SDP-2016/Debug/../Generated_Code/Camera_CLK_Interruption.c:188
  (void)UserDataPtr;                   /* Parameter is not used, suppress unused argument warning */
  Camera_CLK_Interruption_OnInterrupt(); /* Invoke OnInterrupt event */
    5008:	f7fe fb1e 	bl	3648 <Camera_CLK_Interruption_OnInterrupt>
/home/guilherme/Documents/GER-SDP/KDS/SDP-2016/Debug/../Generated_Code/Camera_CLK_Interruption.c:189
}
    500c:	46bd      	mov	sp, r7
    500e:	b002      	add	sp, #8
    5010:	bd80      	pop	{r7, pc}
    5012:	46c0      	nop			; (mov r8, r8)

00005014 <Cpu_INT_NMIInterrupt>:
Cpu_INT_NMIInterrupt():
/home/guilherme/Documents/GER-SDP/KDS/SDP-2016/Debug/../Generated_Code/Cpu.c:318
**         This ISR services the Non Maskable Interrupt interrupt.
**         This method is internal. It is used by Processor Expert only.
** ===================================================================
*/
PE_ISR(Cpu_INT_NMIInterrupt)
{
    5014:	b580      	push	{r7, lr}
    5016:	af00      	add	r7, sp, #0
/home/guilherme/Documents/GER-SDP/KDS/SDP-2016/Debug/../Generated_Code/Cpu.c:319
  Cpu_OnNMIINT();
    5018:	f7fe fb12 	bl	3640 <Cpu_OnNMIINT>
/home/guilherme/Documents/GER-SDP/KDS/SDP-2016/Debug/../Generated_Code/Cpu.c:320
}
    501c:	46bd      	mov	sp, r7
    501e:	bd80      	pop	{r7, pc}

00005020 <Cpu_Interrupt>:
Cpu_Interrupt():
/home/guilherme/Documents/GER-SDP/KDS/SDP-2016/Debug/../Generated_Code/Cpu.c:332
**         This ISR services an unused interrupt/exception vector.
**         This method is internal. It is used by Processor Expert only.
** ===================================================================
*/
PE_ISR(Cpu_Interrupt)
{
    5020:	b580      	push	{r7, lr}
    5022:	af00      	add	r7, sp, #0
/home/guilherme/Documents/GER-SDP/KDS/SDP-2016/Debug/../Generated_Code/Cpu.c:334
  /* This code can be changed using the CPU component property "Build Options / Unhandled int code" */
  PE_DEBUGHALT();
    5024:	beff      	bkpt	0x00ff
/home/guilherme/Documents/GER-SDP/KDS/SDP-2016/Debug/../Generated_Code/Cpu.c:335
}
    5026:	46bd      	mov	sp, r7
    5028:	bd80      	pop	{r7, pc}
    502a:	46c0      	nop			; (mov r8, r8)

0000502c <__init_hardware>:
__init_hardware():
/home/guilherme/Documents/GER-SDP/KDS/SDP-2016/Debug/../Generated_Code/Cpu.c:343
/*** !!! Here you can place your own code using property "User data declarations" on the build options tab. !!! ***/

/*lint -esym(765,__init_hardware) Disable MISRA rule (8.10) checking for symbols (__init_hardware). The function is linked to the EWL library */
/*lint -esym(765,Cpu_Interrupt) Disable MISRA rule (8.10) checking for symbols (Cpu_Interrupt). */
void __init_hardware(void)
{
    502c:	b580      	push	{r7, lr}
    502e:	af00      	add	r7, sp, #0
/home/guilherme/Documents/GER-SDP/KDS/SDP-2016/Debug/../Generated_Code/Cpu.c:349

  /*** !!! Here you can place your own code before PE initialization using property "User code before PE initialization" on the build options tab. !!! ***/

  /*** ### MKL25Z128VLK4 "Cpu" init code ... ***/
  /*** PE initialization code after reset ***/
  SCB_VTOR = (uint32_t)(&__vect_table); /* Set the interrupt vector table position */
    5030:	4a36      	ldr	r2, [pc, #216]	; (510c <__init_hardware+0xe0>)
    5032:	4937      	ldr	r1, [pc, #220]	; (5110 <__init_hardware+0xe4>)
    5034:	4b37      	ldr	r3, [pc, #220]	; (5114 <__init_hardware+0xe8>)
    5036:	50d1      	str	r1, [r2, r3]
/home/guilherme/Documents/GER-SDP/KDS/SDP-2016/Debug/../Generated_Code/Cpu.c:352
  /* Disable the WDOG module */
  /* SIM_COPC: ??=0,??=0,??=0,??=0,??=0,??=0,??=0,??=0,??=0,??=0,??=0,??=0,??=0,??=0,??=0,??=0,??=0,??=0,??=0,??=0,??=0,??=0,??=0,??=0,??=0,??=0,??=0,??=0,COPT=0,COPCLKS=0,COPW=0 */
  SIM_COPC = SIM_COPC_COPT(0x00);
    5038:	4a37      	ldr	r2, [pc, #220]	; (5118 <__init_hardware+0xec>)
    503a:	2388      	movs	r3, #136	; 0x88
    503c:	015b      	lsls	r3, r3, #5
    503e:	2100      	movs	r1, #0
    5040:	50d1      	str	r1, [r2, r3]
/home/guilherme/Documents/GER-SDP/KDS/SDP-2016/Debug/../Generated_Code/Cpu.c:356

  /* System clock initialization */
  /* SIM_CLKDIV1: OUTDIV1=0,??=0,??=0,??=0,??=0,??=0,??=0,??=0,??=0,??=0,OUTDIV4=3,??=0,??=0,??=0,??=0,??=0,??=0,??=0,??=0,??=0,??=0,??=0,??=0,??=0,??=0,??=0,??=0 */
  SIM_CLKDIV1 = (SIM_CLKDIV1_OUTDIV1(0x00) | SIM_CLKDIV1_OUTDIV4(0x03)); /* Set the system prescalers to safe value */
    5042:	4a35      	ldr	r2, [pc, #212]	; (5118 <__init_hardware+0xec>)
    5044:	4b35      	ldr	r3, [pc, #212]	; (511c <__init_hardware+0xf0>)
    5046:	21c0      	movs	r1, #192	; 0xc0
    5048:	0289      	lsls	r1, r1, #10
    504a:	50d1      	str	r1, [r2, r3]
/home/guilherme/Documents/GER-SDP/KDS/SDP-2016/Debug/../Generated_Code/Cpu.c:358
  /* SIM_SCGC5: PORTE=1,PORTD=1,PORTC=1,PORTB=1,PORTA=1 */
  SIM_SCGC5 |= SIM_SCGC5_PORTE_MASK |
    504c:	4a32      	ldr	r2, [pc, #200]	; (5118 <__init_hardware+0xec>)
    504e:	4932      	ldr	r1, [pc, #200]	; (5118 <__init_hardware+0xec>)
    5050:	4b33      	ldr	r3, [pc, #204]	; (5120 <__init_hardware+0xf4>)
    5052:	58cb      	ldr	r3, [r1, r3]
    5054:	21f8      	movs	r1, #248	; 0xf8
    5056:	0189      	lsls	r1, r1, #6
    5058:	4319      	orrs	r1, r3
    505a:	4b31      	ldr	r3, [pc, #196]	; (5120 <__init_hardware+0xf4>)
    505c:	50d1      	str	r1, [r2, r3]
/home/guilherme/Documents/GER-SDP/KDS/SDP-2016/Debug/../Generated_Code/Cpu.c:363
               SIM_SCGC5_PORTD_MASK |
               SIM_SCGC5_PORTC_MASK |
               SIM_SCGC5_PORTB_MASK |
               SIM_SCGC5_PORTA_MASK;   /* Enable clock gate for ports to enable pin routing */
  if ((PMC_REGSC & PMC_REGSC_ACKISO_MASK) != 0x0U) {
    505e:	4b31      	ldr	r3, [pc, #196]	; (5124 <__init_hardware+0xf8>)
    5060:	789b      	ldrb	r3, [r3, #2]
    5062:	b2db      	uxtb	r3, r3
    5064:	1c1a      	adds	r2, r3, #0
    5066:	2308      	movs	r3, #8
    5068:	4013      	ands	r3, r2
    506a:	d007      	beq.n	507c <__init_hardware+0x50>
/home/guilherme/Documents/GER-SDP/KDS/SDP-2016/Debug/../Generated_Code/Cpu.c:365
    /* PMC_REGSC: ACKISO=1 */
    PMC_REGSC |= PMC_REGSC_ACKISO_MASK; /* Release IO pads after wakeup from VLLS mode. */
    506c:	4b2d      	ldr	r3, [pc, #180]	; (5124 <__init_hardware+0xf8>)
    506e:	4a2d      	ldr	r2, [pc, #180]	; (5124 <__init_hardware+0xf8>)
    5070:	7892      	ldrb	r2, [r2, #2]
    5072:	b2d2      	uxtb	r2, r2
    5074:	2108      	movs	r1, #8
    5076:	430a      	orrs	r2, r1
    5078:	b2d2      	uxtb	r2, r2
    507a:	709a      	strb	r2, [r3, #2]
/home/guilherme/Documents/GER-SDP/KDS/SDP-2016/Debug/../Generated_Code/Cpu.c:368
  }
  /* SIM_CLKDIV1: OUTDIV1=0,??=0,??=0,??=0,??=0,??=0,??=0,??=0,??=0,??=0,OUTDIV4=0,??=0,??=0,??=0,??=0,??=0,??=0,??=0,??=0,??=0,??=0,??=0,??=0,??=0,??=0,??=0,??=0 */
  SIM_CLKDIV1 = (SIM_CLKDIV1_OUTDIV1(0x00) | SIM_CLKDIV1_OUTDIV4(0x00)); /* Update system prescalers */
    507c:	4a26      	ldr	r2, [pc, #152]	; (5118 <__init_hardware+0xec>)
    507e:	4b27      	ldr	r3, [pc, #156]	; (511c <__init_hardware+0xf0>)
    5080:	2100      	movs	r1, #0
    5082:	50d1      	str	r1, [r2, r3]
/home/guilherme/Documents/GER-SDP/KDS/SDP-2016/Debug/../Generated_Code/Cpu.c:370
  /* SIM_SOPT2: ??=0,PLLFLLSEL=0 */
  SIM_SOPT2 &= (uint32_t)~(uint32_t)((SIM_SOPT2_PLLFLLSEL_MASK | 0x00020000U)); /* Select FLL as a clock source for various peripherals */
    5084:	4a24      	ldr	r2, [pc, #144]	; (5118 <__init_hardware+0xec>)
    5086:	4924      	ldr	r1, [pc, #144]	; (5118 <__init_hardware+0xec>)
    5088:	4b27      	ldr	r3, [pc, #156]	; (5128 <__init_hardware+0xfc>)
    508a:	58c9      	ldr	r1, [r1, r3]
    508c:	4b27      	ldr	r3, [pc, #156]	; (512c <__init_hardware+0x100>)
    508e:	4019      	ands	r1, r3
    5090:	4b25      	ldr	r3, [pc, #148]	; (5128 <__init_hardware+0xfc>)
    5092:	50d1      	str	r1, [r2, r3]
/home/guilherme/Documents/GER-SDP/KDS/SDP-2016/Debug/../Generated_Code/Cpu.c:372
  /* SIM_SOPT1: OSC32KSEL=3 */
  SIM_SOPT1 |= SIM_SOPT1_OSC32KSEL(0x03); /* LPO 1kHz oscillator drives 32 kHz clock for various peripherals */
    5094:	4b20      	ldr	r3, [pc, #128]	; (5118 <__init_hardware+0xec>)
    5096:	4a20      	ldr	r2, [pc, #128]	; (5118 <__init_hardware+0xec>)
    5098:	6812      	ldr	r2, [r2, #0]
    509a:	21c0      	movs	r1, #192	; 0xc0
    509c:	0309      	lsls	r1, r1, #12
    509e:	430a      	orrs	r2, r1
    50a0:	601a      	str	r2, [r3, #0]
/home/guilherme/Documents/GER-SDP/KDS/SDP-2016/Debug/../Generated_Code/Cpu.c:374
  /* SIM_SOPT2: TPMSRC=1 */
  SIM_SOPT2 = (uint32_t)((SIM_SOPT2 & (uint32_t)~(uint32_t)(
    50a2:	4a1d      	ldr	r2, [pc, #116]	; (5118 <__init_hardware+0xec>)
    50a4:	491c      	ldr	r1, [pc, #112]	; (5118 <__init_hardware+0xec>)
    50a6:	4b20      	ldr	r3, [pc, #128]	; (5128 <__init_hardware+0xfc>)
    50a8:	58c9      	ldr	r1, [r1, r3]
    50aa:	4b21      	ldr	r3, [pc, #132]	; (5130 <__init_hardware+0x104>)
    50ac:	400b      	ands	r3, r1
    50ae:	2180      	movs	r1, #128	; 0x80
    50b0:	0449      	lsls	r1, r1, #17
    50b2:	4319      	orrs	r1, r3
    50b4:	4b1c      	ldr	r3, [pc, #112]	; (5128 <__init_hardware+0xfc>)
    50b6:	50d1      	str	r1, [r2, r3]
/home/guilherme/Documents/GER-SDP/KDS/SDP-2016/Debug/../Generated_Code/Cpu.c:381
              )) | (uint32_t)(
               SIM_SOPT2_TPMSRC(0x01)
              ));                      /* Set the TPM clock */
  /* Switch to FEI Mode */
  /* MCG_C1: CLKS=0,FRDIV=0,IREFS=1,IRCLKEN=1,IREFSTEN=0 */
  MCG_C1 = MCG_C1_CLKS(0x00) |
    50b8:	4b1e      	ldr	r3, [pc, #120]	; (5134 <__init_hardware+0x108>)
    50ba:	2206      	movs	r2, #6
    50bc:	701a      	strb	r2, [r3, #0]
/home/guilherme/Documents/GER-SDP/KDS/SDP-2016/Debug/../Generated_Code/Cpu.c:386
           MCG_C1_FRDIV(0x00) |
           MCG_C1_IREFS_MASK |
           MCG_C1_IRCLKEN_MASK;
  /* MCG_C2: LOCRE0=0,??=0,RANGE0=0,HGO0=0,EREFS0=0,LP=0,IRCS=0 */
  MCG_C2 = MCG_C2_RANGE0(0x00);
    50be:	4b1d      	ldr	r3, [pc, #116]	; (5134 <__init_hardware+0x108>)
    50c0:	2200      	movs	r2, #0
    50c2:	705a      	strb	r2, [r3, #1]
/home/guilherme/Documents/GER-SDP/KDS/SDP-2016/Debug/../Generated_Code/Cpu.c:388
  /* MCG_C4: DMX32=0,DRST_DRS=0 */
  MCG_C4 &= (uint8_t)~(uint8_t)((MCG_C4_DMX32_MASK | MCG_C4_DRST_DRS(0x03)));
    50c4:	4b1b      	ldr	r3, [pc, #108]	; (5134 <__init_hardware+0x108>)
    50c6:	4a1b      	ldr	r2, [pc, #108]	; (5134 <__init_hardware+0x108>)
    50c8:	78d2      	ldrb	r2, [r2, #3]
    50ca:	b2d1      	uxtb	r1, r2
    50cc:	221f      	movs	r2, #31
    50ce:	400a      	ands	r2, r1
    50d0:	b2d2      	uxtb	r2, r2
    50d2:	70da      	strb	r2, [r3, #3]
/home/guilherme/Documents/GER-SDP/KDS/SDP-2016/Debug/../Generated_Code/Cpu.c:390
  /* OSC0_CR: ERCLKEN=1,??=0,EREFSTEN=0,??=0,SC2P=0,SC4P=0,SC8P=0,SC16P=0 */
  OSC0_CR = OSC_CR_ERCLKEN_MASK;
    50d4:	4b18      	ldr	r3, [pc, #96]	; (5138 <__init_hardware+0x10c>)
    50d6:	2280      	movs	r2, #128	; 0x80
    50d8:	701a      	strb	r2, [r3, #0]
/home/guilherme/Documents/GER-SDP/KDS/SDP-2016/Debug/../Generated_Code/Cpu.c:392
  /* MCG_C5: ??=0,PLLCLKEN0=0,PLLSTEN0=0,PRDIV0=0 */
  MCG_C5 = MCG_C5_PRDIV0(0x00);
    50da:	4b16      	ldr	r3, [pc, #88]	; (5134 <__init_hardware+0x108>)
    50dc:	2200      	movs	r2, #0
    50de:	711a      	strb	r2, [r3, #4]
/home/guilherme/Documents/GER-SDP/KDS/SDP-2016/Debug/../Generated_Code/Cpu.c:394
  /* MCG_C6: LOLIE0=0,PLLS=0,CME0=0,VDIV0=0 */
  MCG_C6 = MCG_C6_VDIV0(0x00);
    50e0:	4b14      	ldr	r3, [pc, #80]	; (5134 <__init_hardware+0x108>)
    50e2:	2200      	movs	r2, #0
    50e4:	715a      	strb	r2, [r3, #5]
/home/guilherme/Documents/GER-SDP/KDS/SDP-2016/Debug/../Generated_Code/Cpu.c:395
  while((MCG_S & MCG_S_IREFST_MASK) == 0x00U) { /* Check that the source of the FLL reference clock is the internal reference clock. */
    50e6:	46c0      	nop			; (mov r8, r8)
/home/guilherme/Documents/GER-SDP/KDS/SDP-2016/Debug/../Generated_Code/Cpu.c:395 (discriminator 1)
    50e8:	4b12      	ldr	r3, [pc, #72]	; (5134 <__init_hardware+0x108>)
    50ea:	799b      	ldrb	r3, [r3, #6]
    50ec:	b2db      	uxtb	r3, r3
    50ee:	1c1a      	adds	r2, r3, #0
    50f0:	2310      	movs	r3, #16
    50f2:	4013      	ands	r3, r2
    50f4:	d0f8      	beq.n	50e8 <__init_hardware+0xbc>
/home/guilherme/Documents/GER-SDP/KDS/SDP-2016/Debug/../Generated_Code/Cpu.c:397
  }
  while((MCG_S & 0x0CU) != 0x00U) {    /* Wait until output of the FLL is selected */
    50f6:	46c0      	nop			; (mov r8, r8)
/home/guilherme/Documents/GER-SDP/KDS/SDP-2016/Debug/../Generated_Code/Cpu.c:397 (discriminator 1)
    50f8:	4b0e      	ldr	r3, [pc, #56]	; (5134 <__init_hardware+0x108>)
    50fa:	799b      	ldrb	r3, [r3, #6]
    50fc:	b2db      	uxtb	r3, r3
    50fe:	1c1a      	adds	r2, r3, #0
    5100:	230c      	movs	r3, #12
    5102:	4013      	ands	r3, r2
    5104:	d1f8      	bne.n	50f8 <__init_hardware+0xcc>
/home/guilherme/Documents/GER-SDP/KDS/SDP-2016/Debug/../Generated_Code/Cpu.c:403
  }
  /*** End of PE initialization code after reset ***/

  /*** !!! Here you can place your own code after PE initialization using property "User code after PE initialization" on the build options tab. !!! ***/

}
    5106:	46bd      	mov	sp, r7
    5108:	bd80      	pop	{r7, pc}
    510a:	46c0      	nop			; (mov r8, r8)
    510c:	e000e000 	.word	0xe000e000
    5110:	00000000 	.word	0x00000000
    5114:	00000d08 	.word	0x00000d08
    5118:	40047000 	.word	0x40047000
    511c:	00001044 	.word	0x00001044
    5120:	00001038 	.word	0x00001038
    5124:	4007d000 	.word	0x4007d000
    5128:	00001004 	.word	0x00001004
    512c:	fffcffff 	.word	0xfffcffff
    5130:	fcffffff 	.word	0xfcffffff
    5134:	40064000 	.word	0x40064000
    5138:	40065000 	.word	0x40065000

0000513c <PE_low_level_init>:
PE_low_level_init():
/home/guilherme/Documents/GER-SDP/KDS/SDP-2016/Debug/../Generated_Code/Cpu.c:419
**         application initialization code.
**         This method is internal. It is used by Processor Expert only.
** ===================================================================
*/
void PE_low_level_init(void)
{
    513c:	b580      	push	{r7, lr}
    513e:	af00      	add	r7, sp, #0
/home/guilherme/Documents/GER-SDP/KDS/SDP-2016/Debug/../Generated_Code/Cpu.c:425
  #ifdef PEX_RTOS_INIT
    PEX_RTOS_INIT();                   /* Initialization of the selected RTOS. Macro is defined by the RTOS component. */
  #endif
      /* Initialization of the SIM module */
  /* PORTA_PCR4: ISF=0,MUX=7 */
  PORTA_PCR4 = (uint32_t)((PORTA_PCR4 & (uint32_t)~(uint32_t)(
    5140:	4b48      	ldr	r3, [pc, #288]	; (5264 <PE_low_level_init+0x128>)
    5142:	4a48      	ldr	r2, [pc, #288]	; (5264 <PE_low_level_init+0x128>)
    5144:	6911      	ldr	r1, [r2, #16]
    5146:	4a48      	ldr	r2, [pc, #288]	; (5268 <PE_low_level_init+0x12c>)
    5148:	400a      	ands	r2, r1
    514a:	21e0      	movs	r1, #224	; 0xe0
    514c:	00c9      	lsls	r1, r1, #3
    514e:	430a      	orrs	r2, r1
    5150:	611a      	str	r2, [r3, #16]
/home/guilherme/Documents/GER-SDP/KDS/SDP-2016/Debug/../Generated_Code/Cpu.c:432
               )) | (uint32_t)(
                PORT_PCR_MUX(0x07)
               ));
        /* Initialization of the RCM module */
  /* RCM_RPFW: RSTFLTSEL=0 */
  RCM_RPFW &= (uint8_t)~(uint8_t)(RCM_RPFW_RSTFLTSEL(0x1F));
    5152:	4b46      	ldr	r3, [pc, #280]	; (526c <PE_low_level_init+0x130>)
    5154:	4a45      	ldr	r2, [pc, #276]	; (526c <PE_low_level_init+0x130>)
    5156:	7952      	ldrb	r2, [r2, #5]
    5158:	b2d2      	uxtb	r2, r2
    515a:	211f      	movs	r1, #31
    515c:	438a      	bics	r2, r1
    515e:	b2d2      	uxtb	r2, r2
    5160:	715a      	strb	r2, [r3, #5]
/home/guilherme/Documents/GER-SDP/KDS/SDP-2016/Debug/../Generated_Code/Cpu.c:434
  /* RCM_RPFC: RSTFLTSS=0,RSTFLTSRW=0 */
  RCM_RPFC &= (uint8_t)~(uint8_t)(
    5162:	4b42      	ldr	r3, [pc, #264]	; (526c <PE_low_level_init+0x130>)
    5164:	4a41      	ldr	r2, [pc, #260]	; (526c <PE_low_level_init+0x130>)
    5166:	7912      	ldrb	r2, [r2, #4]
    5168:	b2d2      	uxtb	r2, r2
    516a:	2107      	movs	r1, #7
    516c:	438a      	bics	r2, r1
    516e:	b2d2      	uxtb	r2, r2
    5170:	711a      	strb	r2, [r3, #4]
/home/guilherme/Documents/GER-SDP/KDS/SDP-2016/Debug/../Generated_Code/Cpu.c:441
               RCM_RPFC_RSTFLTSRW(0x03)
              );
        /* Initialization of the FTFL_FlashConfig module */
      /* Initialization of the PMC module */
  /* PMC_LVDSC1: LVDACK=1,LVDIE=0,LVDRE=1,LVDV=0 */
  PMC_LVDSC1 = (uint8_t)((PMC_LVDSC1 & (uint8_t)~(uint8_t)(
    5172:	4b3f      	ldr	r3, [pc, #252]	; (5270 <PE_low_level_init+0x134>)
    5174:	4a3e      	ldr	r2, [pc, #248]	; (5270 <PE_low_level_init+0x134>)
    5176:	7812      	ldrb	r2, [r2, #0]
    5178:	b2d2      	uxtb	r2, r2
    517a:	b2d2      	uxtb	r2, r2
    517c:	2173      	movs	r1, #115	; 0x73
    517e:	438a      	bics	r2, r1
    5180:	b2d2      	uxtb	r2, r2
    5182:	2150      	movs	r1, #80	; 0x50
    5184:	430a      	orrs	r2, r1
    5186:	b2d2      	uxtb	r2, r2
    5188:	b2d2      	uxtb	r2, r2
    518a:	701a      	strb	r2, [r3, #0]
/home/guilherme/Documents/GER-SDP/KDS/SDP-2016/Debug/../Generated_Code/Cpu.c:449
               )) | (uint8_t)(
                PMC_LVDSC1_LVDACK_MASK |
                PMC_LVDSC1_LVDRE_MASK
               ));
  /* PMC_LVDSC2: LVWACK=1,LVWIE=0,LVWV=0 */
  PMC_LVDSC2 = (uint8_t)((PMC_LVDSC2 & (uint8_t)~(uint8_t)(
    518c:	4b38      	ldr	r3, [pc, #224]	; (5270 <PE_low_level_init+0x134>)
    518e:	4a38      	ldr	r2, [pc, #224]	; (5270 <PE_low_level_init+0x134>)
    5190:	7852      	ldrb	r2, [r2, #1]
    5192:	b2d2      	uxtb	r2, r2
    5194:	b2d2      	uxtb	r2, r2
    5196:	2163      	movs	r1, #99	; 0x63
    5198:	438a      	bics	r2, r1
    519a:	b2d2      	uxtb	r2, r2
    519c:	2140      	movs	r1, #64	; 0x40
    519e:	430a      	orrs	r2, r1
    51a0:	b2d2      	uxtb	r2, r2
    51a2:	b2d2      	uxtb	r2, r2
    51a4:	705a      	strb	r2, [r3, #1]
/home/guilherme/Documents/GER-SDP/KDS/SDP-2016/Debug/../Generated_Code/Cpu.c:456
                PMC_LVDSC2_LVWV(0x03)
               )) | (uint8_t)(
                PMC_LVDSC2_LVWACK_MASK
               ));
  /* PMC_REGSC: BGEN=0,ACKISO=0,BGBE=0 */
  PMC_REGSC &= (uint8_t)~(uint8_t)(
    51a6:	4b32      	ldr	r3, [pc, #200]	; (5270 <PE_low_level_init+0x134>)
    51a8:	4a31      	ldr	r2, [pc, #196]	; (5270 <PE_low_level_init+0x134>)
    51aa:	7892      	ldrb	r2, [r2, #2]
    51ac:	b2d2      	uxtb	r2, r2
    51ae:	2119      	movs	r1, #25
    51b0:	438a      	bics	r2, r1
    51b2:	b2d2      	uxtb	r2, r2
    51b4:	709a      	strb	r2, [r3, #2]
/home/guilherme/Documents/GER-SDP/KDS/SDP-2016/Debug/../Generated_Code/Cpu.c:462
                PMC_REGSC_BGEN_MASK |
                PMC_REGSC_ACKISO_MASK |
                PMC_REGSC_BGBE_MASK
               );
  /* SMC_PMPROT: ??=0,??=0,AVLP=0,??=0,ALLS=0,??=0,AVLLS=0,??=0 */
  SMC_PMPROT = 0x00U;                  /* Setup Power mode protection register */
    51b6:	4b2f      	ldr	r3, [pc, #188]	; (5274 <PE_low_level_init+0x138>)
    51b8:	2200      	movs	r2, #0
    51ba:	701a      	strb	r2, [r3, #0]
/home/guilherme/Documents/GER-SDP/KDS/SDP-2016/Debug/../Generated_Code/Cpu.c:465
  /* Common initialization of the CPU registers */
  /* PORTA_PCR20: ISF=0,MUX=7 */
  PORTA_PCR20 = (uint32_t)((PORTA_PCR20 & (uint32_t)~(uint32_t)(
    51bc:	4b29      	ldr	r3, [pc, #164]	; (5264 <PE_low_level_init+0x128>)
    51be:	4a29      	ldr	r2, [pc, #164]	; (5264 <PE_low_level_init+0x128>)
    51c0:	6d11      	ldr	r1, [r2, #80]	; 0x50
    51c2:	4a29      	ldr	r2, [pc, #164]	; (5268 <PE_low_level_init+0x12c>)
    51c4:	400a      	ands	r2, r1
    51c6:	21e0      	movs	r1, #224	; 0xe0
    51c8:	00c9      	lsls	r1, r1, #3
    51ca:	430a      	orrs	r2, r1
    51cc:	651a      	str	r2, [r3, #80]	; 0x50
/home/guilherme/Documents/GER-SDP/KDS/SDP-2016/Debug/../Generated_Code/Cpu.c:471
                 PORT_PCR_ISF_MASK
                )) | (uint32_t)(
                 PORT_PCR_MUX(0x07)
                ));
  /* NVIC_IPR1: PRI_6=0 */
  NVIC_IPR1 &= (uint32_t)~(uint32_t)(NVIC_IP_PRI_6(0xFF));
    51ce:	4a2a      	ldr	r2, [pc, #168]	; (5278 <PE_low_level_init+0x13c>)
    51d0:	4929      	ldr	r1, [pc, #164]	; (5278 <PE_low_level_init+0x13c>)
    51d2:	23c1      	movs	r3, #193	; 0xc1
    51d4:	009b      	lsls	r3, r3, #2
    51d6:	58c9      	ldr	r1, [r1, r3]
    51d8:	4b28      	ldr	r3, [pc, #160]	; (527c <PE_low_level_init+0x140>)
    51da:	4019      	ands	r1, r3
    51dc:	23c1      	movs	r3, #193	; 0xc1
    51de:	009b      	lsls	r3, r3, #2
    51e0:	50d1      	str	r1, [r2, r3]
/home/guilherme/Documents/GER-SDP/KDS/SDP-2016/Debug/../Generated_Code/Cpu.c:473
  /* ### BitIO_LDD "BitIoLdd1" component auto initialization. Auto initialization feature can be disabled by component property "Auto initialization". */
  (void)BitIoLdd1_Init(NULL);
    51e2:	2000      	movs	r0, #0
    51e4:	f7ff fb1c 	bl	4820 <BitIoLdd1_Init>
/home/guilherme/Documents/GER-SDP/KDS/SDP-2016/Debug/../Generated_Code/Cpu.c:475
  /* ### BitIO_LDD "BitIoLdd2" component auto initialization. Auto initialization feature can be disabled by component property "Auto initialization". */
  (void)BitIoLdd2_Init(NULL);
    51e8:	2000      	movs	r0, #0
    51ea:	f7ff fc8f 	bl	4b0c <BitIoLdd2_Init>
/home/guilherme/Documents/GER-SDP/KDS/SDP-2016/Debug/../Generated_Code/Cpu.c:477
  /* ### TimerInt_LDD "TimerIntLdd1" component auto initialization. Auto initialization feature can be disabled by component property "Auto initialization". */
  (void)TimerIntLdd1_Init(NULL);
    51ee:	2000      	movs	r0, #0
    51f0:	f000 ff30 	bl	6054 <TimerIntLdd1_Init>
/home/guilherme/Documents/GER-SDP/KDS/SDP-2016/Debug/../Generated_Code/Cpu.c:480
  /* ### TimerInt "Camera_CLK_Interruption" init code ... */
  /* ### ADC "AD_Converter" init code ... */
  AD_Converter_Init();
    51f4:	f7ff f992 	bl	451c <AD_Converter_Init>
/home/guilherme/Documents/GER-SDP/KDS/SDP-2016/Debug/../Generated_Code/Cpu.c:482
  /* ### BitIO_LDD "BitIoLdd4" component auto initialization. Auto initialization feature can be disabled by component property "Auto initialization". */
  (void)BitIoLdd4_Init(NULL);
    51f8:	2000      	movs	r0, #0
    51fa:	f7ff fd23 	bl	4c44 <BitIoLdd4_Init>
/home/guilherme/Documents/GER-SDP/KDS/SDP-2016/Debug/../Generated_Code/Cpu.c:484
  /* ### PWM_LDD "PwmLdd1" component auto initialization. Auto initialization feature can be disabled by component property "Auto initialization". */
  (void)PwmLdd1_Init(NULL);
    51fe:	2000      	movs	r0, #0
    5200:	f000 f83e 	bl	5280 <PwmLdd1_Init>
/home/guilherme/Documents/GER-SDP/KDS/SDP-2016/Debug/../Generated_Code/Cpu.c:486
  /* ### PWM_LDD "PwmLdd2" component auto initialization. Auto initialization feature can be disabled by component property "Auto initialization". */
  (void)PwmLdd2_Init(NULL);
    5204:	2000      	movs	r0, #0
    5206:	f000 f8b5 	bl	5374 <PwmLdd2_Init>
/home/guilherme/Documents/GER-SDP/KDS/SDP-2016/Debug/../Generated_Code/Cpu.c:488
  /* ### PWM_LDD "PwmLdd3" component auto initialization. Auto initialization feature can be disabled by component property "Auto initialization". */
  (void)PwmLdd3_Init(NULL);
    520a:	2000      	movs	r0, #0
    520c:	f000 f92c 	bl	5468 <PwmLdd3_Init>
/home/guilherme/Documents/GER-SDP/KDS/SDP-2016/Debug/../Generated_Code/Cpu.c:490
  /* ### PWM_LDD "PwmLdd4" component auto initialization. Auto initialization feature can be disabled by component property "Auto initialization". */
  (void)PwmLdd4_Init(NULL);
    5210:	2000      	movs	r0, #0
    5212:	f000 f9a3 	bl	555c <PwmLdd4_Init>
/home/guilherme/Documents/GER-SDP/KDS/SDP-2016/Debug/../Generated_Code/Cpu.c:492
  /* ### PWM_LDD "PwmLdd5" component auto initialization. Auto initialization feature can be disabled by component property "Auto initialization". */
  (void)PwmLdd5_Init(NULL);
    5216:	2000      	movs	r0, #0
    5218:	f000 fa1a 	bl	5650 <PwmLdd5_Init>
/home/guilherme/Documents/GER-SDP/KDS/SDP-2016/Debug/../Generated_Code/Cpu.c:494
  /* ### BitIO_LDD "BitIoLdd3" component auto initialization. Auto initialization feature can be disabled by component property "Auto initialization". */
  (void)BitIoLdd3_Init(NULL);
    521c:	2000      	movs	r0, #0
    521e:	f7ff fcd1 	bl	4bc4 <BitIoLdd3_Init>
/home/guilherme/Documents/GER-SDP/KDS/SDP-2016/Debug/../Generated_Code/Cpu.c:496
  /* ### BitIO_LDD "BitIoLdd5" component auto initialization. Auto initialization feature can be disabled by component property "Auto initialization". */
  (void)BitIoLdd5_Init(NULL);
    5222:	2000      	movs	r0, #0
    5224:	f7ff fd50 	bl	4cc8 <BitIoLdd5_Init>
/home/guilherme/Documents/GER-SDP/KDS/SDP-2016/Debug/../Generated_Code/Cpu.c:498
  /* ### BitIO_LDD "BitIoLdd6" component auto initialization. Auto initialization feature can be disabled by component property "Auto initialization". */
  (void)BitIoLdd6_Init(NULL);
    5228:	2000      	movs	r0, #0
    522a:	f7ff fd9d 	bl	4d68 <BitIoLdd6_Init>
/home/guilherme/Documents/GER-SDP/KDS/SDP-2016/Debug/../Generated_Code/Cpu.c:500
  /* ### BitIO_LDD "BitIoLdd7" component auto initialization. Auto initialization feature can be disabled by component property "Auto initialization". */
  (void)BitIoLdd7_Init(NULL);
    522e:	2000      	movs	r0, #0
    5230:	f7ff fdf8 	bl	4e24 <BitIoLdd7_Init>
/home/guilherme/Documents/GER-SDP/KDS/SDP-2016/Debug/../Generated_Code/Cpu.c:502
  /* ### BitIO_LDD "BitIoLdd8" component auto initialization. Auto initialization feature can be disabled by component property "Auto initialization". */
  (void)BitIoLdd8_Init(NULL);
    5234:	2000      	movs	r0, #0
    5236:	f7ff fe53 	bl	4ee0 <BitIoLdd8_Init>
/home/guilherme/Documents/GER-SDP/KDS/SDP-2016/Debug/../Generated_Code/Cpu.c:504
  /* ### BitIO_LDD "BitIoLdd9" component auto initialization. Auto initialization feature can be disabled by component property "Auto initialization". */
  (void)BitIoLdd9_Init(NULL);
    523a:	2000      	movs	r0, #0
    523c:	f7ff feae 	bl	4f9c <BitIoLdd9_Init>
/home/guilherme/Documents/GER-SDP/KDS/SDP-2016/Debug/../Generated_Code/Cpu.c:506
  /* ### BitIO_LDD "BitIoLdd10" component auto initialization. Auto initialization feature can be disabled by component property "Auto initialization". */
  (void)BitIoLdd10_Init(NULL);
    5240:	2000      	movs	r0, #0
    5242:	f7ff fb49 	bl	48d8 <BitIoLdd10_Init>
/home/guilherme/Documents/GER-SDP/KDS/SDP-2016/Debug/../Generated_Code/Cpu.c:508
  /* ### BitIO_LDD "BitIoLdd11" component auto initialization. Auto initialization feature can be disabled by component property "Auto initialization". */
  (void)BitIoLdd11_Init(NULL);
    5246:	2000      	movs	r0, #0
    5248:	f7ff fb76 	bl	4938 <BitIoLdd11_Init>
/home/guilherme/Documents/GER-SDP/KDS/SDP-2016/Debug/../Generated_Code/Cpu.c:510
  /* ### BitIO_LDD "BitIoLdd12" component auto initialization. Auto initialization feature can be disabled by component property "Auto initialization". */
  (void)BitIoLdd12_Init(NULL);
    524c:	2000      	movs	r0, #0
    524e:	f7ff fba3 	bl	4998 <BitIoLdd12_Init>
/home/guilherme/Documents/GER-SDP/KDS/SDP-2016/Debug/../Generated_Code/Cpu.c:512
  /* ### BitIO_LDD "BitIoLdd13" component auto initialization. Auto initialization feature can be disabled by component property "Auto initialization". */
  (void)BitIoLdd13_Init(NULL);
    5252:	2000      	movs	r0, #0
    5254:	f7ff fbde 	bl	4a14 <BitIoLdd13_Init>
/home/guilherme/Documents/GER-SDP/KDS/SDP-2016/Debug/../Generated_Code/Cpu.c:514
  /* ### BitIO_LDD "BitIoLdd14" component auto initialization. Auto initialization feature can be disabled by component property "Auto initialization". */
  (void)BitIoLdd14_Init(NULL);
    5258:	2000      	movs	r0, #0
    525a:	f7ff fc19 	bl	4a90 <BitIoLdd14_Init>
/home/guilherme/Documents/GER-SDP/KDS/SDP-2016/Debug/../Generated_Code/Cpu.c:515
  __EI();
    525e:	b662      	cpsie	i
/home/guilherme/Documents/GER-SDP/KDS/SDP-2016/Debug/../Generated_Code/Cpu.c:516
}
    5260:	46bd      	mov	sp, r7
    5262:	bd80      	pop	{r7, pc}
    5264:	40049000 	.word	0x40049000
    5268:	fefff8ff 	.word	0xfefff8ff
    526c:	4007f000 	.word	0x4007f000
    5270:	4007d000 	.word	0x4007d000
    5274:	4007e000 	.word	0x4007e000
    5278:	e000e100 	.word	0xe000e100
    527c:	ff3fffff 	.word	0xff3fffff

00005280 <PwmLdd1_Init>:
PwmLdd1_Init():
/home/guilherme/Documents/GER-SDP/KDS/SDP-2016/Debug/../Generated_Code/PwmLdd1.c:143
**                         - Pointer to the dynamically allocated private
**                           structure or NULL if there was an error.
*/
/* ===================================================================*/
LDD_TDeviceData* PwmLdd1_Init(LDD_TUserData *UserDataPtr)
{
    5280:	b580      	push	{r7, lr}
    5282:	b084      	sub	sp, #16
    5284:	af00      	add	r7, sp, #0
    5286:	6078      	str	r0, [r7, #4]
/home/guilherme/Documents/GER-SDP/KDS/SDP-2016/Debug/../Generated_Code/PwmLdd1.c:147
  /* Allocate device structure */
  PwmLdd1_TDeviceData *DeviceDataPrv;
  /* {Default RTOS Adapter} Driver memory allocation: Dynamic allocation is simulated by a pointer to the static object */
  DeviceDataPrv = &DeviceDataPrv__DEFAULT_RTOS_ALLOC;
    5288:	4b11      	ldr	r3, [pc, #68]	; (52d0 <PwmLdd1_Init+0x50>)
    528a:	60fb      	str	r3, [r7, #12]
/home/guilherme/Documents/GER-SDP/KDS/SDP-2016/Debug/../Generated_Code/PwmLdd1.c:148
  DeviceDataPrv->UserDataPtr = UserDataPtr; /* Store the RTOS device structure */
    528c:	68fb      	ldr	r3, [r7, #12]
    528e:	687a      	ldr	r2, [r7, #4]
    5290:	609a      	str	r2, [r3, #8]
/home/guilherme/Documents/GER-SDP/KDS/SDP-2016/Debug/../Generated_Code/PwmLdd1.c:149
  DeviceDataPrv->EnUser = TRUE;        /* Set the flag "device enabled" */
    5292:	68fb      	ldr	r3, [r7, #12]
    5294:	2201      	movs	r2, #1
    5296:	711a      	strb	r2, [r3, #4]
/home/guilherme/Documents/GER-SDP/KDS/SDP-2016/Debug/../Generated_Code/PwmLdd1.c:150
  DeviceDataPrv->RatioStore = 0xFFFFU; /* Ratio after initialization */
    5298:	68fb      	ldr	r3, [r7, #12]
    529a:	2201      	movs	r2, #1
    529c:	4252      	negs	r2, r2
    529e:	80da      	strh	r2, [r3, #6]
/home/guilherme/Documents/GER-SDP/KDS/SDP-2016/Debug/../Generated_Code/PwmLdd1.c:152
  /* Registration of the device structure */
  PE_LDD_RegisterDeviceStructure(PE_LDD_COMPONENT_PwmLdd1_ID,DeviceDataPrv);
    52a0:	4b0c      	ldr	r3, [pc, #48]	; (52d4 <PwmLdd1_Init+0x54>)
    52a2:	68fa      	ldr	r2, [r7, #12]
    52a4:	621a      	str	r2, [r3, #32]
/home/guilherme/Documents/GER-SDP/KDS/SDP-2016/Debug/../Generated_Code/PwmLdd1.c:153
  DeviceDataPrv->LinkedDeviceDataPtr = TU2_Init((LDD_TUserData *)NULL);
    52a6:	2000      	movs	r0, #0
    52a8:	f000 fd32 	bl	5d10 <TU2_Init>
    52ac:	1c02      	adds	r2, r0, #0
    52ae:	68fb      	ldr	r3, [r7, #12]
    52b0:	601a      	str	r2, [r3, #0]
/home/guilherme/Documents/GER-SDP/KDS/SDP-2016/Debug/../Generated_Code/PwmLdd1.c:154
  if (DeviceDataPrv->LinkedDeviceDataPtr == NULL) { /* Is initialization of TimerUnit unsuccessful? */
    52b2:	68fb      	ldr	r3, [r7, #12]
    52b4:	681b      	ldr	r3, [r3, #0]
    52b6:	2b00      	cmp	r3, #0
    52b8:	d104      	bne.n	52c4 <PwmLdd1_Init+0x44>
/home/guilherme/Documents/GER-SDP/KDS/SDP-2016/Debug/../Generated_Code/PwmLdd1.c:156
    /* Unregistration of the device structure */
    PE_LDD_UnregisterDeviceStructure(PE_LDD_COMPONENT_PwmLdd1_ID);
    52ba:	4b06      	ldr	r3, [pc, #24]	; (52d4 <PwmLdd1_Init+0x54>)
    52bc:	2200      	movs	r2, #0
    52be:	621a      	str	r2, [r3, #32]
/home/guilherme/Documents/GER-SDP/KDS/SDP-2016/Debug/../Generated_Code/PwmLdd1.c:159
    /* Deallocation of the device structure */
    /* {Default RTOS Adapter} Driver memory deallocation: Dynamic allocation is simulated, no deallocation code is generated */
    return NULL;                       /* If so, then the PWM initialization is also unsuccessful */
    52c0:	2300      	movs	r3, #0
    52c2:	e000      	b.n	52c6 <PwmLdd1_Init+0x46>
/home/guilherme/Documents/GER-SDP/KDS/SDP-2016/Debug/../Generated_Code/PwmLdd1.c:161
  }
  return ((LDD_TDeviceData *)DeviceDataPrv); /* Return pointer to the device data structure */
    52c4:	68fb      	ldr	r3, [r7, #12]
/home/guilherme/Documents/GER-SDP/KDS/SDP-2016/Debug/../Generated_Code/PwmLdd1.c:162
}
    52c6:	1c18      	adds	r0, r3, #0
    52c8:	46bd      	mov	sp, r7
    52ca:	b004      	add	sp, #16
    52cc:	bd80      	pop	{r7, pc}
    52ce:	46c0      	nop			; (mov r8, r8)
    52d0:	1ffff13c 	.word	0x1ffff13c
    52d4:	1ffff0d8 	.word	0x1ffff0d8

000052d8 <PwmLdd1_SetRatio8>:
PwmLdd1_SetRatio8():
/home/guilherme/Documents/GER-SDP/KDS/SDP-2016/Debug/../Generated_Code/PwmLdd1.c:191
**                           ERR_SPEED - The component does not work in
**                           the active clock configuration
*/
/* ===================================================================*/
LDD_TError PwmLdd1_SetRatio8(LDD_TDeviceData *DeviceDataPtr, uint8_t Ratio)
{
    52d8:	b580      	push	{r7, lr}
    52da:	b084      	sub	sp, #16
    52dc:	af00      	add	r7, sp, #0
    52de:	6078      	str	r0, [r7, #4]
    52e0:	1c0a      	adds	r2, r1, #0
    52e2:	1cfb      	adds	r3, r7, #3
    52e4:	701a      	strb	r2, [r3, #0]
/home/guilherme/Documents/GER-SDP/KDS/SDP-2016/Debug/../Generated_Code/PwmLdd1.c:192
  PwmLdd1_TDeviceData *DeviceDataPrv = (PwmLdd1_TDeviceData *)DeviceDataPtr;
    52e6:	687b      	ldr	r3, [r7, #4]
    52e8:	60fb      	str	r3, [r7, #12]
/home/guilherme/Documents/GER-SDP/KDS/SDP-2016/Debug/../Generated_Code/PwmLdd1.c:194

  DeviceDataPrv->RatioStore = (uint16_t)Ratio << 8U; /* Store new value of the ratio */
    52ea:	1cfb      	adds	r3, r7, #3
    52ec:	781b      	ldrb	r3, [r3, #0]
    52ee:	b29b      	uxth	r3, r3
    52f0:	021b      	lsls	r3, r3, #8
    52f2:	b29a      	uxth	r2, r3
    52f4:	68fb      	ldr	r3, [r7, #12]
    52f6:	80da      	strh	r2, [r3, #6]
/home/guilherme/Documents/GER-SDP/KDS/SDP-2016/Debug/../Generated_Code/PwmLdd1.c:195
  SetRatio(DeviceDataPtr);
    52f8:	687b      	ldr	r3, [r7, #4]
    52fa:	1c18      	adds	r0, r3, #0
    52fc:	f000 f806 	bl	530c <SetRatio>
/home/guilherme/Documents/GER-SDP/KDS/SDP-2016/Debug/../Generated_Code/PwmLdd1.c:196
  return ERR_OK;
    5300:	2300      	movs	r3, #0
/home/guilherme/Documents/GER-SDP/KDS/SDP-2016/Debug/../Generated_Code/PwmLdd1.c:197
}
    5302:	1c18      	adds	r0, r3, #0
    5304:	46bd      	mov	sp, r7
    5306:	b004      	add	sp, #16
    5308:	bd80      	pop	{r7, pc}
    530a:	46c0      	nop			; (mov r8, r8)

0000530c <SetRatio>:
SetRatio():
/home/guilherme/Documents/GER-SDP/KDS/SDP-2016/Debug/../Generated_Code/PwmLdd1.c:210
**         variable RatioStore.
**         This method is internal. It is used by Processor Expert only.
** ===================================================================
*/
static void SetRatio(LDD_TDeviceData *DeviceDataPtr)
{
    530c:	b580      	push	{r7, lr}
    530e:	b086      	sub	sp, #24
    5310:	af00      	add	r7, sp, #0
    5312:	6078      	str	r0, [r7, #4]
/home/guilherme/Documents/GER-SDP/KDS/SDP-2016/Debug/../Generated_Code/PwmLdd1.c:211
  PwmLdd1_TDeviceData *DeviceDataPrv = (PwmLdd1_TDeviceData*)DeviceDataPtr;
    5314:	687b      	ldr	r3, [r7, #4]
    5316:	613b      	str	r3, [r7, #16]
/home/guilherme/Documents/GER-SDP/KDS/SDP-2016/Debug/../Generated_Code/PwmLdd1.c:215
  uint16_t Period;
  uint16_t Duty;

  (void)TU2_GetPeriodTicks(DeviceDataPrv->LinkedDeviceDataPtr, &Period);
    5318:	693b      	ldr	r3, [r7, #16]
    531a:	681a      	ldr	r2, [r3, #0]
    531c:	1c3b      	adds	r3, r7, #0
    531e:	330e      	adds	r3, #14
    5320:	1c10      	adds	r0, r2, #0
    5322:	1c19      	adds	r1, r3, #0
    5324:	f000 fd8e 	bl	5e44 <TU2_GetPeriodTicks>
/home/guilherme/Documents/GER-SDP/KDS/SDP-2016/Debug/../Generated_Code/PwmLdd1.c:216
  if (Period == 0U) {
    5328:	1c3b      	adds	r3, r7, #0
    532a:	330e      	adds	r3, #14
    532c:	881b      	ldrh	r3, [r3, #0]
    532e:	2b00      	cmp	r3, #0
    5330:	d105      	bne.n	533e <SetRatio+0x32>
/home/guilherme/Documents/GER-SDP/KDS/SDP-2016/Debug/../Generated_Code/PwmLdd1.c:217
    Duty = DeviceDataPrv->RatioStore;
    5332:	1c3b      	adds	r3, r7, #0
    5334:	3316      	adds	r3, #22
    5336:	693a      	ldr	r2, [r7, #16]
    5338:	88d2      	ldrh	r2, [r2, #6]
    533a:	801a      	strh	r2, [r3, #0]
    533c:	e00c      	b.n	5358 <SetRatio+0x4c>
/home/guilherme/Documents/GER-SDP/KDS/SDP-2016/Debug/../Generated_Code/PwmLdd1.c:220
  }
  else {
    Duty = (uint16_t)((((uint32_t)(Period) * DeviceDataPrv->RatioStore) + 0x8000) >> 0x10);
    533e:	1c3b      	adds	r3, r7, #0
    5340:	330e      	adds	r3, #14
    5342:	881b      	ldrh	r3, [r3, #0]
    5344:	693a      	ldr	r2, [r7, #16]
    5346:	88d2      	ldrh	r2, [r2, #6]
    5348:	4353      	muls	r3, r2
    534a:	2280      	movs	r2, #128	; 0x80
    534c:	0212      	lsls	r2, r2, #8
    534e:	189b      	adds	r3, r3, r2
    5350:	0c1a      	lsrs	r2, r3, #16
    5352:	1c3b      	adds	r3, r7, #0
    5354:	3316      	adds	r3, #22
    5356:	801a      	strh	r2, [r3, #0]
/home/guilherme/Documents/GER-SDP/KDS/SDP-2016/Debug/../Generated_Code/PwmLdd1.c:222
  }
  (void)TU2_SetOffsetTicks(DeviceDataPrv->LinkedDeviceDataPtr, CHANNEL, Duty);
    5358:	693b      	ldr	r3, [r7, #16]
    535a:	681a      	ldr	r2, [r3, #0]
    535c:	1c3b      	adds	r3, r7, #0
    535e:	3316      	adds	r3, #22
    5360:	881b      	ldrh	r3, [r3, #0]
    5362:	1c10      	adds	r0, r2, #0
    5364:	2100      	movs	r1, #0
    5366:	1c1a      	adds	r2, r3, #0
    5368:	f000 fd8a 	bl	5e80 <TU2_SetOffsetTicks>
/home/guilherme/Documents/GER-SDP/KDS/SDP-2016/Debug/../Generated_Code/PwmLdd1.c:223
}
    536c:	46bd      	mov	sp, r7
    536e:	b006      	add	sp, #24
    5370:	bd80      	pop	{r7, pc}
    5372:	46c0      	nop			; (mov r8, r8)

00005374 <PwmLdd2_Init>:
PwmLdd2_Init():
/home/guilherme/Documents/GER-SDP/KDS/SDP-2016/Debug/../Generated_Code/PwmLdd2.c:143
**                         - Pointer to the dynamically allocated private
**                           structure or NULL if there was an error.
*/
/* ===================================================================*/
LDD_TDeviceData* PwmLdd2_Init(LDD_TUserData *UserDataPtr)
{
    5374:	b580      	push	{r7, lr}
    5376:	b084      	sub	sp, #16
    5378:	af00      	add	r7, sp, #0
    537a:	6078      	str	r0, [r7, #4]
/home/guilherme/Documents/GER-SDP/KDS/SDP-2016/Debug/../Generated_Code/PwmLdd2.c:147
  /* Allocate device structure */
  PwmLdd2_TDeviceData *DeviceDataPrv;
  /* {Default RTOS Adapter} Driver memory allocation: Dynamic allocation is simulated by a pointer to the static object */
  DeviceDataPrv = &DeviceDataPrv__DEFAULT_RTOS_ALLOC;
    537c:	4b11      	ldr	r3, [pc, #68]	; (53c4 <PwmLdd2_Init+0x50>)
    537e:	60fb      	str	r3, [r7, #12]
/home/guilherme/Documents/GER-SDP/KDS/SDP-2016/Debug/../Generated_Code/PwmLdd2.c:148
  DeviceDataPrv->UserDataPtr = UserDataPtr; /* Store the RTOS device structure */
    5380:	68fb      	ldr	r3, [r7, #12]
    5382:	687a      	ldr	r2, [r7, #4]
    5384:	609a      	str	r2, [r3, #8]
/home/guilherme/Documents/GER-SDP/KDS/SDP-2016/Debug/../Generated_Code/PwmLdd2.c:149
  DeviceDataPrv->EnUser = TRUE;        /* Set the flag "device enabled" */
    5386:	68fb      	ldr	r3, [r7, #12]
    5388:	2201      	movs	r2, #1
    538a:	711a      	strb	r2, [r3, #4]
/home/guilherme/Documents/GER-SDP/KDS/SDP-2016/Debug/../Generated_Code/PwmLdd2.c:150
  DeviceDataPrv->RatioStore = 0xFFFFU; /* Ratio after initialization */
    538c:	68fb      	ldr	r3, [r7, #12]
    538e:	2201      	movs	r2, #1
    5390:	4252      	negs	r2, r2
    5392:	80da      	strh	r2, [r3, #6]
/home/guilherme/Documents/GER-SDP/KDS/SDP-2016/Debug/../Generated_Code/PwmLdd2.c:152
  /* Registration of the device structure */
  PE_LDD_RegisterDeviceStructure(PE_LDD_COMPONENT_PwmLdd2_ID,DeviceDataPrv);
    5394:	4b0c      	ldr	r3, [pc, #48]	; (53c8 <PwmLdd2_Init+0x54>)
    5396:	68fa      	ldr	r2, [r7, #12]
    5398:	625a      	str	r2, [r3, #36]	; 0x24
/home/guilherme/Documents/GER-SDP/KDS/SDP-2016/Debug/../Generated_Code/PwmLdd2.c:153
  DeviceDataPrv->LinkedDeviceDataPtr = TU2_Init((LDD_TUserData *)NULL);
    539a:	2000      	movs	r0, #0
    539c:	f000 fcb8 	bl	5d10 <TU2_Init>
    53a0:	1c02      	adds	r2, r0, #0
    53a2:	68fb      	ldr	r3, [r7, #12]
    53a4:	601a      	str	r2, [r3, #0]
/home/guilherme/Documents/GER-SDP/KDS/SDP-2016/Debug/../Generated_Code/PwmLdd2.c:154
  if (DeviceDataPrv->LinkedDeviceDataPtr == NULL) { /* Is initialization of TimerUnit unsuccessful? */
    53a6:	68fb      	ldr	r3, [r7, #12]
    53a8:	681b      	ldr	r3, [r3, #0]
    53aa:	2b00      	cmp	r3, #0
    53ac:	d104      	bne.n	53b8 <PwmLdd2_Init+0x44>
/home/guilherme/Documents/GER-SDP/KDS/SDP-2016/Debug/../Generated_Code/PwmLdd2.c:156
    /* Unregistration of the device structure */
    PE_LDD_UnregisterDeviceStructure(PE_LDD_COMPONENT_PwmLdd2_ID);
    53ae:	4b06      	ldr	r3, [pc, #24]	; (53c8 <PwmLdd2_Init+0x54>)
    53b0:	2200      	movs	r2, #0
    53b2:	625a      	str	r2, [r3, #36]	; 0x24
/home/guilherme/Documents/GER-SDP/KDS/SDP-2016/Debug/../Generated_Code/PwmLdd2.c:159
    /* Deallocation of the device structure */
    /* {Default RTOS Adapter} Driver memory deallocation: Dynamic allocation is simulated, no deallocation code is generated */
    return NULL;                       /* If so, then the PWM initialization is also unsuccessful */
    53b4:	2300      	movs	r3, #0
    53b6:	e000      	b.n	53ba <PwmLdd2_Init+0x46>
/home/guilherme/Documents/GER-SDP/KDS/SDP-2016/Debug/../Generated_Code/PwmLdd2.c:161
  }
  return ((LDD_TDeviceData *)DeviceDataPrv); /* Return pointer to the device data structure */
    53b8:	68fb      	ldr	r3, [r7, #12]
/home/guilherme/Documents/GER-SDP/KDS/SDP-2016/Debug/../Generated_Code/PwmLdd2.c:162
}
    53ba:	1c18      	adds	r0, r3, #0
    53bc:	46bd      	mov	sp, r7
    53be:	b004      	add	sp, #16
    53c0:	bd80      	pop	{r7, pc}
    53c2:	46c0      	nop			; (mov r8, r8)
    53c4:	1ffff148 	.word	0x1ffff148
    53c8:	1ffff0d8 	.word	0x1ffff0d8

000053cc <PwmLdd2_SetRatio8>:
PwmLdd2_SetRatio8():
/home/guilherme/Documents/GER-SDP/KDS/SDP-2016/Debug/../Generated_Code/PwmLdd2.c:191
**                           ERR_SPEED - The component does not work in
**                           the active clock configuration
*/
/* ===================================================================*/
LDD_TError PwmLdd2_SetRatio8(LDD_TDeviceData *DeviceDataPtr, uint8_t Ratio)
{
    53cc:	b580      	push	{r7, lr}
    53ce:	b084      	sub	sp, #16
    53d0:	af00      	add	r7, sp, #0
    53d2:	6078      	str	r0, [r7, #4]
    53d4:	1c0a      	adds	r2, r1, #0
    53d6:	1cfb      	adds	r3, r7, #3
    53d8:	701a      	strb	r2, [r3, #0]
/home/guilherme/Documents/GER-SDP/KDS/SDP-2016/Debug/../Generated_Code/PwmLdd2.c:192
  PwmLdd2_TDeviceData *DeviceDataPrv = (PwmLdd2_TDeviceData *)DeviceDataPtr;
    53da:	687b      	ldr	r3, [r7, #4]
    53dc:	60fb      	str	r3, [r7, #12]
/home/guilherme/Documents/GER-SDP/KDS/SDP-2016/Debug/../Generated_Code/PwmLdd2.c:194

  DeviceDataPrv->RatioStore = (uint16_t)Ratio << 8U; /* Store new value of the ratio */
    53de:	1cfb      	adds	r3, r7, #3
    53e0:	781b      	ldrb	r3, [r3, #0]
    53e2:	b29b      	uxth	r3, r3
    53e4:	021b      	lsls	r3, r3, #8
    53e6:	b29a      	uxth	r2, r3
    53e8:	68fb      	ldr	r3, [r7, #12]
    53ea:	80da      	strh	r2, [r3, #6]
/home/guilherme/Documents/GER-SDP/KDS/SDP-2016/Debug/../Generated_Code/PwmLdd2.c:195
  SetRatio(DeviceDataPtr);
    53ec:	687b      	ldr	r3, [r7, #4]
    53ee:	1c18      	adds	r0, r3, #0
    53f0:	f000 f806 	bl	5400 <SetRatio>
/home/guilherme/Documents/GER-SDP/KDS/SDP-2016/Debug/../Generated_Code/PwmLdd2.c:196
  return ERR_OK;
    53f4:	2300      	movs	r3, #0
/home/guilherme/Documents/GER-SDP/KDS/SDP-2016/Debug/../Generated_Code/PwmLdd2.c:197
}
    53f6:	1c18      	adds	r0, r3, #0
    53f8:	46bd      	mov	sp, r7
    53fa:	b004      	add	sp, #16
    53fc:	bd80      	pop	{r7, pc}
    53fe:	46c0      	nop			; (mov r8, r8)

00005400 <SetRatio>:
SetRatio():
/home/guilherme/Documents/GER-SDP/KDS/SDP-2016/Debug/../Generated_Code/PwmLdd2.c:210
**         variable RatioStore.
**         This method is internal. It is used by Processor Expert only.
** ===================================================================
*/
static void SetRatio(LDD_TDeviceData *DeviceDataPtr)
{
    5400:	b580      	push	{r7, lr}
    5402:	b086      	sub	sp, #24
    5404:	af00      	add	r7, sp, #0
    5406:	6078      	str	r0, [r7, #4]
/home/guilherme/Documents/GER-SDP/KDS/SDP-2016/Debug/../Generated_Code/PwmLdd2.c:211
  PwmLdd2_TDeviceData *DeviceDataPrv = (PwmLdd2_TDeviceData*)DeviceDataPtr;
    5408:	687b      	ldr	r3, [r7, #4]
    540a:	613b      	str	r3, [r7, #16]
/home/guilherme/Documents/GER-SDP/KDS/SDP-2016/Debug/../Generated_Code/PwmLdd2.c:215
  uint16_t Period;
  uint16_t Duty;

  (void)TU2_GetPeriodTicks(DeviceDataPrv->LinkedDeviceDataPtr, &Period);
    540c:	693b      	ldr	r3, [r7, #16]
    540e:	681a      	ldr	r2, [r3, #0]
    5410:	1c3b      	adds	r3, r7, #0
    5412:	330e      	adds	r3, #14
    5414:	1c10      	adds	r0, r2, #0
    5416:	1c19      	adds	r1, r3, #0
    5418:	f000 fd14 	bl	5e44 <TU2_GetPeriodTicks>
/home/guilherme/Documents/GER-SDP/KDS/SDP-2016/Debug/../Generated_Code/PwmLdd2.c:216
  if (Period == 0U) {
    541c:	1c3b      	adds	r3, r7, #0
    541e:	330e      	adds	r3, #14
    5420:	881b      	ldrh	r3, [r3, #0]
    5422:	2b00      	cmp	r3, #0
    5424:	d105      	bne.n	5432 <SetRatio+0x32>
/home/guilherme/Documents/GER-SDP/KDS/SDP-2016/Debug/../Generated_Code/PwmLdd2.c:217
    Duty = DeviceDataPrv->RatioStore;
    5426:	1c3b      	adds	r3, r7, #0
    5428:	3316      	adds	r3, #22
    542a:	693a      	ldr	r2, [r7, #16]
    542c:	88d2      	ldrh	r2, [r2, #6]
    542e:	801a      	strh	r2, [r3, #0]
    5430:	e00c      	b.n	544c <SetRatio+0x4c>
/home/guilherme/Documents/GER-SDP/KDS/SDP-2016/Debug/../Generated_Code/PwmLdd2.c:220
  }
  else {
    Duty = (uint16_t)((((uint32_t)(Period) * DeviceDataPrv->RatioStore) + 0x8000) >> 0x10);
    5432:	1c3b      	adds	r3, r7, #0
    5434:	330e      	adds	r3, #14
    5436:	881b      	ldrh	r3, [r3, #0]
    5438:	693a      	ldr	r2, [r7, #16]
    543a:	88d2      	ldrh	r2, [r2, #6]
    543c:	4353      	muls	r3, r2
    543e:	2280      	movs	r2, #128	; 0x80
    5440:	0212      	lsls	r2, r2, #8
    5442:	189b      	adds	r3, r3, r2
    5444:	0c1a      	lsrs	r2, r3, #16
    5446:	1c3b      	adds	r3, r7, #0
    5448:	3316      	adds	r3, #22
    544a:	801a      	strh	r2, [r3, #0]
/home/guilherme/Documents/GER-SDP/KDS/SDP-2016/Debug/../Generated_Code/PwmLdd2.c:222
  }
  (void)TU2_SetOffsetTicks(DeviceDataPrv->LinkedDeviceDataPtr, CHANNEL, Duty);
    544c:	693b      	ldr	r3, [r7, #16]
    544e:	681a      	ldr	r2, [r3, #0]
    5450:	1c3b      	adds	r3, r7, #0
    5452:	3316      	adds	r3, #22
    5454:	881b      	ldrh	r3, [r3, #0]
    5456:	1c10      	adds	r0, r2, #0
    5458:	2101      	movs	r1, #1
    545a:	1c1a      	adds	r2, r3, #0
    545c:	f000 fd10 	bl	5e80 <TU2_SetOffsetTicks>
/home/guilherme/Documents/GER-SDP/KDS/SDP-2016/Debug/../Generated_Code/PwmLdd2.c:223
}
    5460:	46bd      	mov	sp, r7
    5462:	b006      	add	sp, #24
    5464:	bd80      	pop	{r7, pc}
    5466:	46c0      	nop			; (mov r8, r8)

00005468 <PwmLdd3_Init>:
PwmLdd3_Init():
/home/guilherme/Documents/GER-SDP/KDS/SDP-2016/Debug/../Generated_Code/PwmLdd3.c:143
**                         - Pointer to the dynamically allocated private
**                           structure or NULL if there was an error.
*/
/* ===================================================================*/
LDD_TDeviceData* PwmLdd3_Init(LDD_TUserData *UserDataPtr)
{
    5468:	b580      	push	{r7, lr}
    546a:	b084      	sub	sp, #16
    546c:	af00      	add	r7, sp, #0
    546e:	6078      	str	r0, [r7, #4]
/home/guilherme/Documents/GER-SDP/KDS/SDP-2016/Debug/../Generated_Code/PwmLdd3.c:147
  /* Allocate device structure */
  PwmLdd3_TDeviceData *DeviceDataPrv;
  /* {Default RTOS Adapter} Driver memory allocation: Dynamic allocation is simulated by a pointer to the static object */
  DeviceDataPrv = &DeviceDataPrv__DEFAULT_RTOS_ALLOC;
    5470:	4b11      	ldr	r3, [pc, #68]	; (54b8 <PwmLdd3_Init+0x50>)
    5472:	60fb      	str	r3, [r7, #12]
/home/guilherme/Documents/GER-SDP/KDS/SDP-2016/Debug/../Generated_Code/PwmLdd3.c:148
  DeviceDataPrv->UserDataPtr = UserDataPtr; /* Store the RTOS device structure */
    5474:	68fb      	ldr	r3, [r7, #12]
    5476:	687a      	ldr	r2, [r7, #4]
    5478:	609a      	str	r2, [r3, #8]
/home/guilherme/Documents/GER-SDP/KDS/SDP-2016/Debug/../Generated_Code/PwmLdd3.c:149
  DeviceDataPrv->EnUser = TRUE;        /* Set the flag "device enabled" */
    547a:	68fb      	ldr	r3, [r7, #12]
    547c:	2201      	movs	r2, #1
    547e:	711a      	strb	r2, [r3, #4]
/home/guilherme/Documents/GER-SDP/KDS/SDP-2016/Debug/../Generated_Code/PwmLdd3.c:150
  DeviceDataPrv->RatioStore = 0xFFFFU; /* Ratio after initialization */
    5480:	68fb      	ldr	r3, [r7, #12]
    5482:	2201      	movs	r2, #1
    5484:	4252      	negs	r2, r2
    5486:	80da      	strh	r2, [r3, #6]
/home/guilherme/Documents/GER-SDP/KDS/SDP-2016/Debug/../Generated_Code/PwmLdd3.c:152
  /* Registration of the device structure */
  PE_LDD_RegisterDeviceStructure(PE_LDD_COMPONENT_PwmLdd3_ID,DeviceDataPrv);
    5488:	4b0c      	ldr	r3, [pc, #48]	; (54bc <PwmLdd3_Init+0x54>)
    548a:	68fa      	ldr	r2, [r7, #12]
    548c:	629a      	str	r2, [r3, #40]	; 0x28
/home/guilherme/Documents/GER-SDP/KDS/SDP-2016/Debug/../Generated_Code/PwmLdd3.c:153
  DeviceDataPrv->LinkedDeviceDataPtr = TU2_Init((LDD_TUserData *)NULL);
    548e:	2000      	movs	r0, #0
    5490:	f000 fc3e 	bl	5d10 <TU2_Init>
    5494:	1c02      	adds	r2, r0, #0
    5496:	68fb      	ldr	r3, [r7, #12]
    5498:	601a      	str	r2, [r3, #0]
/home/guilherme/Documents/GER-SDP/KDS/SDP-2016/Debug/../Generated_Code/PwmLdd3.c:154
  if (DeviceDataPrv->LinkedDeviceDataPtr == NULL) { /* Is initialization of TimerUnit unsuccessful? */
    549a:	68fb      	ldr	r3, [r7, #12]
    549c:	681b      	ldr	r3, [r3, #0]
    549e:	2b00      	cmp	r3, #0
    54a0:	d104      	bne.n	54ac <PwmLdd3_Init+0x44>
/home/guilherme/Documents/GER-SDP/KDS/SDP-2016/Debug/../Generated_Code/PwmLdd3.c:156
    /* Unregistration of the device structure */
    PE_LDD_UnregisterDeviceStructure(PE_LDD_COMPONENT_PwmLdd3_ID);
    54a2:	4b06      	ldr	r3, [pc, #24]	; (54bc <PwmLdd3_Init+0x54>)
    54a4:	2200      	movs	r2, #0
    54a6:	629a      	str	r2, [r3, #40]	; 0x28
/home/guilherme/Documents/GER-SDP/KDS/SDP-2016/Debug/../Generated_Code/PwmLdd3.c:159
    /* Deallocation of the device structure */
    /* {Default RTOS Adapter} Driver memory deallocation: Dynamic allocation is simulated, no deallocation code is generated */
    return NULL;                       /* If so, then the PWM initialization is also unsuccessful */
    54a8:	2300      	movs	r3, #0
    54aa:	e000      	b.n	54ae <PwmLdd3_Init+0x46>
/home/guilherme/Documents/GER-SDP/KDS/SDP-2016/Debug/../Generated_Code/PwmLdd3.c:161
  }
  return ((LDD_TDeviceData *)DeviceDataPrv); /* Return pointer to the device data structure */
    54ac:	68fb      	ldr	r3, [r7, #12]
/home/guilherme/Documents/GER-SDP/KDS/SDP-2016/Debug/../Generated_Code/PwmLdd3.c:162
}
    54ae:	1c18      	adds	r0, r3, #0
    54b0:	46bd      	mov	sp, r7
    54b2:	b004      	add	sp, #16
    54b4:	bd80      	pop	{r7, pc}
    54b6:	46c0      	nop			; (mov r8, r8)
    54b8:	1ffff154 	.word	0x1ffff154
    54bc:	1ffff0d8 	.word	0x1ffff0d8

000054c0 <PwmLdd3_SetRatio8>:
PwmLdd3_SetRatio8():
/home/guilherme/Documents/GER-SDP/KDS/SDP-2016/Debug/../Generated_Code/PwmLdd3.c:191
**                           ERR_SPEED - The component does not work in
**                           the active clock configuration
*/
/* ===================================================================*/
LDD_TError PwmLdd3_SetRatio8(LDD_TDeviceData *DeviceDataPtr, uint8_t Ratio)
{
    54c0:	b580      	push	{r7, lr}
    54c2:	b084      	sub	sp, #16
    54c4:	af00      	add	r7, sp, #0
    54c6:	6078      	str	r0, [r7, #4]
    54c8:	1c0a      	adds	r2, r1, #0
    54ca:	1cfb      	adds	r3, r7, #3
    54cc:	701a      	strb	r2, [r3, #0]
/home/guilherme/Documents/GER-SDP/KDS/SDP-2016/Debug/../Generated_Code/PwmLdd3.c:192
  PwmLdd3_TDeviceData *DeviceDataPrv = (PwmLdd3_TDeviceData *)DeviceDataPtr;
    54ce:	687b      	ldr	r3, [r7, #4]
    54d0:	60fb      	str	r3, [r7, #12]
/home/guilherme/Documents/GER-SDP/KDS/SDP-2016/Debug/../Generated_Code/PwmLdd3.c:194

  DeviceDataPrv->RatioStore = (uint16_t)Ratio << 8U; /* Store new value of the ratio */
    54d2:	1cfb      	adds	r3, r7, #3
    54d4:	781b      	ldrb	r3, [r3, #0]
    54d6:	b29b      	uxth	r3, r3
    54d8:	021b      	lsls	r3, r3, #8
    54da:	b29a      	uxth	r2, r3
    54dc:	68fb      	ldr	r3, [r7, #12]
    54de:	80da      	strh	r2, [r3, #6]
/home/guilherme/Documents/GER-SDP/KDS/SDP-2016/Debug/../Generated_Code/PwmLdd3.c:195
  SetRatio(DeviceDataPtr);
    54e0:	687b      	ldr	r3, [r7, #4]
    54e2:	1c18      	adds	r0, r3, #0
    54e4:	f000 f806 	bl	54f4 <SetRatio>
/home/guilherme/Documents/GER-SDP/KDS/SDP-2016/Debug/../Generated_Code/PwmLdd3.c:196
  return ERR_OK;
    54e8:	2300      	movs	r3, #0
/home/guilherme/Documents/GER-SDP/KDS/SDP-2016/Debug/../Generated_Code/PwmLdd3.c:197
}
    54ea:	1c18      	adds	r0, r3, #0
    54ec:	46bd      	mov	sp, r7
    54ee:	b004      	add	sp, #16
    54f0:	bd80      	pop	{r7, pc}
    54f2:	46c0      	nop			; (mov r8, r8)

000054f4 <SetRatio>:
SetRatio():
/home/guilherme/Documents/GER-SDP/KDS/SDP-2016/Debug/../Generated_Code/PwmLdd3.c:210
**         variable RatioStore.
**         This method is internal. It is used by Processor Expert only.
** ===================================================================
*/
static void SetRatio(LDD_TDeviceData *DeviceDataPtr)
{
    54f4:	b580      	push	{r7, lr}
    54f6:	b086      	sub	sp, #24
    54f8:	af00      	add	r7, sp, #0
    54fa:	6078      	str	r0, [r7, #4]
/home/guilherme/Documents/GER-SDP/KDS/SDP-2016/Debug/../Generated_Code/PwmLdd3.c:211
  PwmLdd3_TDeviceData *DeviceDataPrv = (PwmLdd3_TDeviceData*)DeviceDataPtr;
    54fc:	687b      	ldr	r3, [r7, #4]
    54fe:	613b      	str	r3, [r7, #16]
/home/guilherme/Documents/GER-SDP/KDS/SDP-2016/Debug/../Generated_Code/PwmLdd3.c:215
  uint16_t Period;
  uint16_t Duty;

  (void)TU2_GetPeriodTicks(DeviceDataPrv->LinkedDeviceDataPtr, &Period);
    5500:	693b      	ldr	r3, [r7, #16]
    5502:	681a      	ldr	r2, [r3, #0]
    5504:	1c3b      	adds	r3, r7, #0
    5506:	330e      	adds	r3, #14
    5508:	1c10      	adds	r0, r2, #0
    550a:	1c19      	adds	r1, r3, #0
    550c:	f000 fc9a 	bl	5e44 <TU2_GetPeriodTicks>
/home/guilherme/Documents/GER-SDP/KDS/SDP-2016/Debug/../Generated_Code/PwmLdd3.c:216
  if (Period == 0U) {
    5510:	1c3b      	adds	r3, r7, #0
    5512:	330e      	adds	r3, #14
    5514:	881b      	ldrh	r3, [r3, #0]
    5516:	2b00      	cmp	r3, #0
    5518:	d105      	bne.n	5526 <SetRatio+0x32>
/home/guilherme/Documents/GER-SDP/KDS/SDP-2016/Debug/../Generated_Code/PwmLdd3.c:217
    Duty = DeviceDataPrv->RatioStore;
    551a:	1c3b      	adds	r3, r7, #0
    551c:	3316      	adds	r3, #22
    551e:	693a      	ldr	r2, [r7, #16]
    5520:	88d2      	ldrh	r2, [r2, #6]
    5522:	801a      	strh	r2, [r3, #0]
    5524:	e00c      	b.n	5540 <SetRatio+0x4c>
/home/guilherme/Documents/GER-SDP/KDS/SDP-2016/Debug/../Generated_Code/PwmLdd3.c:220
  }
  else {
    Duty = (uint16_t)((((uint32_t)(Period) * DeviceDataPrv->RatioStore) + 0x8000) >> 0x10);
    5526:	1c3b      	adds	r3, r7, #0
    5528:	330e      	adds	r3, #14
    552a:	881b      	ldrh	r3, [r3, #0]
    552c:	693a      	ldr	r2, [r7, #16]
    552e:	88d2      	ldrh	r2, [r2, #6]
    5530:	4353      	muls	r3, r2
    5532:	2280      	movs	r2, #128	; 0x80
    5534:	0212      	lsls	r2, r2, #8
    5536:	189b      	adds	r3, r3, r2
    5538:	0c1a      	lsrs	r2, r3, #16
    553a:	1c3b      	adds	r3, r7, #0
    553c:	3316      	adds	r3, #22
    553e:	801a      	strh	r2, [r3, #0]
/home/guilherme/Documents/GER-SDP/KDS/SDP-2016/Debug/../Generated_Code/PwmLdd3.c:222
  }
  (void)TU2_SetOffsetTicks(DeviceDataPrv->LinkedDeviceDataPtr, CHANNEL, Duty);
    5540:	693b      	ldr	r3, [r7, #16]
    5542:	681a      	ldr	r2, [r3, #0]
    5544:	1c3b      	adds	r3, r7, #0
    5546:	3316      	adds	r3, #22
    5548:	881b      	ldrh	r3, [r3, #0]
    554a:	1c10      	adds	r0, r2, #0
    554c:	2102      	movs	r1, #2
    554e:	1c1a      	adds	r2, r3, #0
    5550:	f000 fc96 	bl	5e80 <TU2_SetOffsetTicks>
/home/guilherme/Documents/GER-SDP/KDS/SDP-2016/Debug/../Generated_Code/PwmLdd3.c:223
}
    5554:	46bd      	mov	sp, r7
    5556:	b006      	add	sp, #24
    5558:	bd80      	pop	{r7, pc}
    555a:	46c0      	nop			; (mov r8, r8)

0000555c <PwmLdd4_Init>:
PwmLdd4_Init():
/home/guilherme/Documents/GER-SDP/KDS/SDP-2016/Debug/../Generated_Code/PwmLdd4.c:143
**                         - Pointer to the dynamically allocated private
**                           structure or NULL if there was an error.
*/
/* ===================================================================*/
LDD_TDeviceData* PwmLdd4_Init(LDD_TUserData *UserDataPtr)
{
    555c:	b580      	push	{r7, lr}
    555e:	b084      	sub	sp, #16
    5560:	af00      	add	r7, sp, #0
    5562:	6078      	str	r0, [r7, #4]
/home/guilherme/Documents/GER-SDP/KDS/SDP-2016/Debug/../Generated_Code/PwmLdd4.c:147
  /* Allocate device structure */
  PwmLdd4_TDeviceData *DeviceDataPrv;
  /* {Default RTOS Adapter} Driver memory allocation: Dynamic allocation is simulated by a pointer to the static object */
  DeviceDataPrv = &DeviceDataPrv__DEFAULT_RTOS_ALLOC;
    5564:	4b11      	ldr	r3, [pc, #68]	; (55ac <PwmLdd4_Init+0x50>)
    5566:	60fb      	str	r3, [r7, #12]
/home/guilherme/Documents/GER-SDP/KDS/SDP-2016/Debug/../Generated_Code/PwmLdd4.c:148
  DeviceDataPrv->UserDataPtr = UserDataPtr; /* Store the RTOS device structure */
    5568:	68fb      	ldr	r3, [r7, #12]
    556a:	687a      	ldr	r2, [r7, #4]
    556c:	609a      	str	r2, [r3, #8]
/home/guilherme/Documents/GER-SDP/KDS/SDP-2016/Debug/../Generated_Code/PwmLdd4.c:149
  DeviceDataPrv->EnUser = TRUE;        /* Set the flag "device enabled" */
    556e:	68fb      	ldr	r3, [r7, #12]
    5570:	2201      	movs	r2, #1
    5572:	711a      	strb	r2, [r3, #4]
/home/guilherme/Documents/GER-SDP/KDS/SDP-2016/Debug/../Generated_Code/PwmLdd4.c:150
  DeviceDataPrv->RatioStore = 0xFFFFU; /* Ratio after initialization */
    5574:	68fb      	ldr	r3, [r7, #12]
    5576:	2201      	movs	r2, #1
    5578:	4252      	negs	r2, r2
    557a:	80da      	strh	r2, [r3, #6]
/home/guilherme/Documents/GER-SDP/KDS/SDP-2016/Debug/../Generated_Code/PwmLdd4.c:152
  /* Registration of the device structure */
  PE_LDD_RegisterDeviceStructure(PE_LDD_COMPONENT_PwmLdd4_ID,DeviceDataPrv);
    557c:	4b0c      	ldr	r3, [pc, #48]	; (55b0 <PwmLdd4_Init+0x54>)
    557e:	68fa      	ldr	r2, [r7, #12]
    5580:	62da      	str	r2, [r3, #44]	; 0x2c
/home/guilherme/Documents/GER-SDP/KDS/SDP-2016/Debug/../Generated_Code/PwmLdd4.c:153
  DeviceDataPrv->LinkedDeviceDataPtr = TU2_Init((LDD_TUserData *)NULL);
    5582:	2000      	movs	r0, #0
    5584:	f000 fbc4 	bl	5d10 <TU2_Init>
    5588:	1c02      	adds	r2, r0, #0
    558a:	68fb      	ldr	r3, [r7, #12]
    558c:	601a      	str	r2, [r3, #0]
/home/guilherme/Documents/GER-SDP/KDS/SDP-2016/Debug/../Generated_Code/PwmLdd4.c:154
  if (DeviceDataPrv->LinkedDeviceDataPtr == NULL) { /* Is initialization of TimerUnit unsuccessful? */
    558e:	68fb      	ldr	r3, [r7, #12]
    5590:	681b      	ldr	r3, [r3, #0]
    5592:	2b00      	cmp	r3, #0
    5594:	d104      	bne.n	55a0 <PwmLdd4_Init+0x44>
/home/guilherme/Documents/GER-SDP/KDS/SDP-2016/Debug/../Generated_Code/PwmLdd4.c:156
    /* Unregistration of the device structure */
    PE_LDD_UnregisterDeviceStructure(PE_LDD_COMPONENT_PwmLdd4_ID);
    5596:	4b06      	ldr	r3, [pc, #24]	; (55b0 <PwmLdd4_Init+0x54>)
    5598:	2200      	movs	r2, #0
    559a:	62da      	str	r2, [r3, #44]	; 0x2c
/home/guilherme/Documents/GER-SDP/KDS/SDP-2016/Debug/../Generated_Code/PwmLdd4.c:159
    /* Deallocation of the device structure */
    /* {Default RTOS Adapter} Driver memory deallocation: Dynamic allocation is simulated, no deallocation code is generated */
    return NULL;                       /* If so, then the PWM initialization is also unsuccessful */
    559c:	2300      	movs	r3, #0
    559e:	e000      	b.n	55a2 <PwmLdd4_Init+0x46>
/home/guilherme/Documents/GER-SDP/KDS/SDP-2016/Debug/../Generated_Code/PwmLdd4.c:161
  }
  return ((LDD_TDeviceData *)DeviceDataPrv); /* Return pointer to the device data structure */
    55a0:	68fb      	ldr	r3, [r7, #12]
/home/guilherme/Documents/GER-SDP/KDS/SDP-2016/Debug/../Generated_Code/PwmLdd4.c:162
}
    55a2:	1c18      	adds	r0, r3, #0
    55a4:	46bd      	mov	sp, r7
    55a6:	b004      	add	sp, #16
    55a8:	bd80      	pop	{r7, pc}
    55aa:	46c0      	nop			; (mov r8, r8)
    55ac:	1ffff160 	.word	0x1ffff160
    55b0:	1ffff0d8 	.word	0x1ffff0d8

000055b4 <PwmLdd4_SetRatio8>:
PwmLdd4_SetRatio8():
/home/guilherme/Documents/GER-SDP/KDS/SDP-2016/Debug/../Generated_Code/PwmLdd4.c:191
**                           ERR_SPEED - The component does not work in
**                           the active clock configuration
*/
/* ===================================================================*/
LDD_TError PwmLdd4_SetRatio8(LDD_TDeviceData *DeviceDataPtr, uint8_t Ratio)
{
    55b4:	b580      	push	{r7, lr}
    55b6:	b084      	sub	sp, #16
    55b8:	af00      	add	r7, sp, #0
    55ba:	6078      	str	r0, [r7, #4]
    55bc:	1c0a      	adds	r2, r1, #0
    55be:	1cfb      	adds	r3, r7, #3
    55c0:	701a      	strb	r2, [r3, #0]
/home/guilherme/Documents/GER-SDP/KDS/SDP-2016/Debug/../Generated_Code/PwmLdd4.c:192
  PwmLdd4_TDeviceData *DeviceDataPrv = (PwmLdd4_TDeviceData *)DeviceDataPtr;
    55c2:	687b      	ldr	r3, [r7, #4]
    55c4:	60fb      	str	r3, [r7, #12]
/home/guilherme/Documents/GER-SDP/KDS/SDP-2016/Debug/../Generated_Code/PwmLdd4.c:194

  DeviceDataPrv->RatioStore = (uint16_t)Ratio << 8U; /* Store new value of the ratio */
    55c6:	1cfb      	adds	r3, r7, #3
    55c8:	781b      	ldrb	r3, [r3, #0]
    55ca:	b29b      	uxth	r3, r3
    55cc:	021b      	lsls	r3, r3, #8
    55ce:	b29a      	uxth	r2, r3
    55d0:	68fb      	ldr	r3, [r7, #12]
    55d2:	80da      	strh	r2, [r3, #6]
/home/guilherme/Documents/GER-SDP/KDS/SDP-2016/Debug/../Generated_Code/PwmLdd4.c:195
  SetRatio(DeviceDataPtr);
    55d4:	687b      	ldr	r3, [r7, #4]
    55d6:	1c18      	adds	r0, r3, #0
    55d8:	f000 f806 	bl	55e8 <SetRatio>
/home/guilherme/Documents/GER-SDP/KDS/SDP-2016/Debug/../Generated_Code/PwmLdd4.c:196
  return ERR_OK;
    55dc:	2300      	movs	r3, #0
/home/guilherme/Documents/GER-SDP/KDS/SDP-2016/Debug/../Generated_Code/PwmLdd4.c:197
}
    55de:	1c18      	adds	r0, r3, #0
    55e0:	46bd      	mov	sp, r7
    55e2:	b004      	add	sp, #16
    55e4:	bd80      	pop	{r7, pc}
    55e6:	46c0      	nop			; (mov r8, r8)

000055e8 <SetRatio>:
SetRatio():
/home/guilherme/Documents/GER-SDP/KDS/SDP-2016/Debug/../Generated_Code/PwmLdd4.c:210
**         variable RatioStore.
**         This method is internal. It is used by Processor Expert only.
** ===================================================================
*/
static void SetRatio(LDD_TDeviceData *DeviceDataPtr)
{
    55e8:	b580      	push	{r7, lr}
    55ea:	b086      	sub	sp, #24
    55ec:	af00      	add	r7, sp, #0
    55ee:	6078      	str	r0, [r7, #4]
/home/guilherme/Documents/GER-SDP/KDS/SDP-2016/Debug/../Generated_Code/PwmLdd4.c:211
  PwmLdd4_TDeviceData *DeviceDataPrv = (PwmLdd4_TDeviceData*)DeviceDataPtr;
    55f0:	687b      	ldr	r3, [r7, #4]
    55f2:	613b      	str	r3, [r7, #16]
/home/guilherme/Documents/GER-SDP/KDS/SDP-2016/Debug/../Generated_Code/PwmLdd4.c:215
  uint16_t Period;
  uint16_t Duty;

  (void)TU2_GetPeriodTicks(DeviceDataPrv->LinkedDeviceDataPtr, &Period);
    55f4:	693b      	ldr	r3, [r7, #16]
    55f6:	681a      	ldr	r2, [r3, #0]
    55f8:	1c3b      	adds	r3, r7, #0
    55fa:	330e      	adds	r3, #14
    55fc:	1c10      	adds	r0, r2, #0
    55fe:	1c19      	adds	r1, r3, #0
    5600:	f000 fc20 	bl	5e44 <TU2_GetPeriodTicks>
/home/guilherme/Documents/GER-SDP/KDS/SDP-2016/Debug/../Generated_Code/PwmLdd4.c:216
  if (Period == 0U) {
    5604:	1c3b      	adds	r3, r7, #0
    5606:	330e      	adds	r3, #14
    5608:	881b      	ldrh	r3, [r3, #0]
    560a:	2b00      	cmp	r3, #0
    560c:	d105      	bne.n	561a <SetRatio+0x32>
/home/guilherme/Documents/GER-SDP/KDS/SDP-2016/Debug/../Generated_Code/PwmLdd4.c:217
    Duty = DeviceDataPrv->RatioStore;
    560e:	1c3b      	adds	r3, r7, #0
    5610:	3316      	adds	r3, #22
    5612:	693a      	ldr	r2, [r7, #16]
    5614:	88d2      	ldrh	r2, [r2, #6]
    5616:	801a      	strh	r2, [r3, #0]
    5618:	e00c      	b.n	5634 <SetRatio+0x4c>
/home/guilherme/Documents/GER-SDP/KDS/SDP-2016/Debug/../Generated_Code/PwmLdd4.c:220
  }
  else {
    Duty = (uint16_t)((((uint32_t)(Period) * DeviceDataPrv->RatioStore) + 0x8000) >> 0x10);
    561a:	1c3b      	adds	r3, r7, #0
    561c:	330e      	adds	r3, #14
    561e:	881b      	ldrh	r3, [r3, #0]
    5620:	693a      	ldr	r2, [r7, #16]
    5622:	88d2      	ldrh	r2, [r2, #6]
    5624:	4353      	muls	r3, r2
    5626:	2280      	movs	r2, #128	; 0x80
    5628:	0212      	lsls	r2, r2, #8
    562a:	189b      	adds	r3, r3, r2
    562c:	0c1a      	lsrs	r2, r3, #16
    562e:	1c3b      	adds	r3, r7, #0
    5630:	3316      	adds	r3, #22
    5632:	801a      	strh	r2, [r3, #0]
/home/guilherme/Documents/GER-SDP/KDS/SDP-2016/Debug/../Generated_Code/PwmLdd4.c:222
  }
  (void)TU2_SetOffsetTicks(DeviceDataPrv->LinkedDeviceDataPtr, CHANNEL, Duty);
    5634:	693b      	ldr	r3, [r7, #16]
    5636:	681a      	ldr	r2, [r3, #0]
    5638:	1c3b      	adds	r3, r7, #0
    563a:	3316      	adds	r3, #22
    563c:	881b      	ldrh	r3, [r3, #0]
    563e:	1c10      	adds	r0, r2, #0
    5640:	2103      	movs	r1, #3
    5642:	1c1a      	adds	r2, r3, #0
    5644:	f000 fc1c 	bl	5e80 <TU2_SetOffsetTicks>
/home/guilherme/Documents/GER-SDP/KDS/SDP-2016/Debug/../Generated_Code/PwmLdd4.c:223
}
    5648:	46bd      	mov	sp, r7
    564a:	b006      	add	sp, #24
    564c:	bd80      	pop	{r7, pc}
    564e:	46c0      	nop			; (mov r8, r8)

00005650 <PwmLdd5_Init>:
PwmLdd5_Init():
/home/guilherme/Documents/GER-SDP/KDS/SDP-2016/Debug/../Generated_Code/PwmLdd5.c:147
**                         - Pointer to the dynamically allocated private
**                           structure or NULL if there was an error.
*/
/* ===================================================================*/
LDD_TDeviceData* PwmLdd5_Init(LDD_TUserData *UserDataPtr)
{
    5650:	b580      	push	{r7, lr}
    5652:	b084      	sub	sp, #16
    5654:	af00      	add	r7, sp, #0
    5656:	6078      	str	r0, [r7, #4]
/home/guilherme/Documents/GER-SDP/KDS/SDP-2016/Debug/../Generated_Code/PwmLdd5.c:151
  /* Allocate device structure */
  PwmLdd5_TDeviceData *DeviceDataPrv;
  /* {Default RTOS Adapter} Driver memory allocation: Dynamic allocation is simulated by a pointer to the static object */
  DeviceDataPrv = &DeviceDataPrv__DEFAULT_RTOS_ALLOC;
    5658:	4b10      	ldr	r3, [pc, #64]	; (569c <PwmLdd5_Init+0x4c>)
    565a:	60fb      	str	r3, [r7, #12]
/home/guilherme/Documents/GER-SDP/KDS/SDP-2016/Debug/../Generated_Code/PwmLdd5.c:152
  DeviceDataPrv->UserDataPtr = UserDataPtr; /* Store the RTOS device structure */
    565c:	68fb      	ldr	r3, [r7, #12]
    565e:	687a      	ldr	r2, [r7, #4]
    5660:	609a      	str	r2, [r3, #8]
/home/guilherme/Documents/GER-SDP/KDS/SDP-2016/Debug/../Generated_Code/PwmLdd5.c:153
  DeviceDataPrv->EnUser = FALSE;       /* Set the flag "device disabled" */
    5662:	68fb      	ldr	r3, [r7, #12]
    5664:	2200      	movs	r2, #0
    5666:	711a      	strb	r2, [r3, #4]
/home/guilherme/Documents/GER-SDP/KDS/SDP-2016/Debug/../Generated_Code/PwmLdd5.c:154
  DeviceDataPrv->RatioStore = 0xED6FU; /* Ratio after initialization */
    5668:	68fb      	ldr	r3, [r7, #12]
    566a:	4a0d      	ldr	r2, [pc, #52]	; (56a0 <PwmLdd5_Init+0x50>)
    566c:	80da      	strh	r2, [r3, #6]
/home/guilherme/Documents/GER-SDP/KDS/SDP-2016/Debug/../Generated_Code/PwmLdd5.c:156
  /* Registration of the device structure */
  PE_LDD_RegisterDeviceStructure(PE_LDD_COMPONENT_PwmLdd5_ID,DeviceDataPrv);
    566e:	4b0d      	ldr	r3, [pc, #52]	; (56a4 <PwmLdd5_Init+0x54>)
    5670:	68fa      	ldr	r2, [r7, #12]
    5672:	635a      	str	r2, [r3, #52]	; 0x34
/home/guilherme/Documents/GER-SDP/KDS/SDP-2016/Debug/../Generated_Code/PwmLdd5.c:157
  DeviceDataPrv->LinkedDeviceDataPtr = TU3_Init((LDD_TUserData *)NULL);
    5674:	2000      	movs	r0, #0
    5676:	f000 fc2f 	bl	5ed8 <TU3_Init>
    567a:	1c02      	adds	r2, r0, #0
    567c:	68fb      	ldr	r3, [r7, #12]
    567e:	601a      	str	r2, [r3, #0]
/home/guilherme/Documents/GER-SDP/KDS/SDP-2016/Debug/../Generated_Code/PwmLdd5.c:158
  if (DeviceDataPrv->LinkedDeviceDataPtr == NULL) { /* Is initialization of TimerUnit unsuccessful? */
    5680:	68fb      	ldr	r3, [r7, #12]
    5682:	681b      	ldr	r3, [r3, #0]
    5684:	2b00      	cmp	r3, #0
    5686:	d104      	bne.n	5692 <PwmLdd5_Init+0x42>
/home/guilherme/Documents/GER-SDP/KDS/SDP-2016/Debug/../Generated_Code/PwmLdd5.c:160
    /* Unregistration of the device structure */
    PE_LDD_UnregisterDeviceStructure(PE_LDD_COMPONENT_PwmLdd5_ID);
    5688:	4b06      	ldr	r3, [pc, #24]	; (56a4 <PwmLdd5_Init+0x54>)
    568a:	2200      	movs	r2, #0
    568c:	635a      	str	r2, [r3, #52]	; 0x34
/home/guilherme/Documents/GER-SDP/KDS/SDP-2016/Debug/../Generated_Code/PwmLdd5.c:163
    /* Deallocation of the device structure */
    /* {Default RTOS Adapter} Driver memory deallocation: Dynamic allocation is simulated, no deallocation code is generated */
    return NULL;                       /* If so, then the PWM initialization is also unsuccessful */
    568e:	2300      	movs	r3, #0
    5690:	e000      	b.n	5694 <PwmLdd5_Init+0x44>
/home/guilherme/Documents/GER-SDP/KDS/SDP-2016/Debug/../Generated_Code/PwmLdd5.c:165
  }
  return ((LDD_TDeviceData *)DeviceDataPrv); /* Return pointer to the device data structure */
    5692:	68fb      	ldr	r3, [r7, #12]
/home/guilherme/Documents/GER-SDP/KDS/SDP-2016/Debug/../Generated_Code/PwmLdd5.c:166
}
    5694:	1c18      	adds	r0, r3, #0
    5696:	46bd      	mov	sp, r7
    5698:	b004      	add	sp, #16
    569a:	bd80      	pop	{r7, pc}
    569c:	1ffff16c 	.word	0x1ffff16c
    56a0:	ffffed6f 	.word	0xffffed6f
    56a4:	1ffff0d8 	.word	0x1ffff0d8

000056a8 <PwmLdd5_Enable>:
PwmLdd5_Enable():
/home/guilherme/Documents/GER-SDP/KDS/SDP-2016/Debug/../Generated_Code/PwmLdd5.c:187
**                           ERR_SPEED - The component does not work in
**                           the active clock configuration
*/
/* ===================================================================*/
LDD_TError PwmLdd5_Enable(LDD_TDeviceData *DeviceDataPtr)
{
    56a8:	b580      	push	{r7, lr}
    56aa:	b084      	sub	sp, #16
    56ac:	af00      	add	r7, sp, #0
    56ae:	6078      	str	r0, [r7, #4]
/home/guilherme/Documents/GER-SDP/KDS/SDP-2016/Debug/../Generated_Code/PwmLdd5.c:188
  PwmLdd5_TDeviceData *DeviceDataPrv = (PwmLdd5_TDeviceData *)DeviceDataPtr;
    56b0:	687b      	ldr	r3, [r7, #4]
    56b2:	60fb      	str	r3, [r7, #12]
/home/guilherme/Documents/GER-SDP/KDS/SDP-2016/Debug/../Generated_Code/PwmLdd5.c:190

  if (!DeviceDataPrv->EnUser) {        /* Is the device disabled by user? */
    56b4:	68fb      	ldr	r3, [r7, #12]
    56b6:	791b      	ldrb	r3, [r3, #4]
    56b8:	2b00      	cmp	r3, #0
    56ba:	d107      	bne.n	56cc <PwmLdd5_Enable+0x24>
/home/guilherme/Documents/GER-SDP/KDS/SDP-2016/Debug/../Generated_Code/PwmLdd5.c:191
    DeviceDataPrv->EnUser = TRUE;      /* If yes then set the flag "device enabled" */
    56bc:	68fb      	ldr	r3, [r7, #12]
    56be:	2201      	movs	r2, #1
    56c0:	711a      	strb	r2, [r3, #4]
/home/guilherme/Documents/GER-SDP/KDS/SDP-2016/Debug/../Generated_Code/PwmLdd5.c:192
    (void)TU3_Enable(DeviceDataPrv->LinkedDeviceDataPtr); /* Enable TimerUnit */
    56c2:	68fb      	ldr	r3, [r7, #12]
    56c4:	681b      	ldr	r3, [r3, #0]
    56c6:	1c18      	adds	r0, r3, #0
    56c8:	f000 fc6c 	bl	5fa4 <TU3_Enable>
/home/guilherme/Documents/GER-SDP/KDS/SDP-2016/Debug/../Generated_Code/PwmLdd5.c:194
  }
  return ERR_OK;
    56cc:	2300      	movs	r3, #0
/home/guilherme/Documents/GER-SDP/KDS/SDP-2016/Debug/../Generated_Code/PwmLdd5.c:195
}
    56ce:	1c18      	adds	r0, r3, #0
    56d0:	46bd      	mov	sp, r7
    56d2:	b004      	add	sp, #16
    56d4:	bd80      	pop	{r7, pc}
    56d6:	46c0      	nop			; (mov r8, r8)

000056d8 <PwmLdd5_SetDutyUS>:
PwmLdd5_SetDutyUS():
/home/guilherme/Documents/GER-SDP/KDS/SDP-2016/Debug/../Generated_Code/PwmLdd5.c:288
**                           ERR_MATH - Overflow during evaluation
**                           ERR_PARAM_RANGE - Parameter out of range
*/
/* ===================================================================*/
LDD_TError PwmLdd5_SetDutyUS(LDD_TDeviceData *DeviceDataPtr, uint16_t Time)
{
    56d8:	b580      	push	{r7, lr}
    56da:	b084      	sub	sp, #16
    56dc:	af00      	add	r7, sp, #0
    56de:	6078      	str	r0, [r7, #4]
    56e0:	1c0a      	adds	r2, r1, #0
    56e2:	1cbb      	adds	r3, r7, #2
    56e4:	801a      	strh	r2, [r3, #0]
/home/guilherme/Documents/GER-SDP/KDS/SDP-2016/Debug/../Generated_Code/PwmLdd5.c:289
  PwmLdd5_TDeviceData *DeviceDataPrv = (PwmLdd5_TDeviceData *)DeviceDataPtr;
    56e6:	687b      	ldr	r3, [r7, #4]
    56e8:	60fb      	str	r3, [r7, #12]
/home/guilherme/Documents/GER-SDP/KDS/SDP-2016/Debug/../Generated_Code/PwmLdd5.c:294
  LDD_TimerUnit_Tfloat rtval;          /* Result of multiplication */

  /* Time test - this test can be disabled by setting the "Ignore range checking"
     property to the "yes" value in the "Configuration inspector" */
  if (Time > 0x4E20U) {                /* Is the given value out of range? */
    56ea:	1cbb      	adds	r3, r7, #2
    56ec:	881a      	ldrh	r2, [r3, #0]
    56ee:	4b16      	ldr	r3, [pc, #88]	; (5748 <PwmLdd5_SetDutyUS+0x70>)
    56f0:	429a      	cmp	r2, r3
    56f2:	d901      	bls.n	56f8 <PwmLdd5_SetDutyUS+0x20>
/home/guilherme/Documents/GER-SDP/KDS/SDP-2016/Debug/../Generated_Code/PwmLdd5.c:295
    return ERR_PARAM_RANGE;            /* If yes then error */
    56f4:	2386      	movs	r3, #134	; 0x86
    56f6:	e023      	b.n	5740 <PwmLdd5_SetDutyUS+0x68>
/home/guilherme/Documents/GER-SDP/KDS/SDP-2016/Debug/../Generated_Code/PwmLdd5.c:297
  }
  rtval = Time * 3.276787500048F;      /* Multiply given value and actual clock configuration coefficient */
    56f8:	1cbb      	adds	r3, r7, #2
    56fa:	881b      	ldrh	r3, [r3, #0]
    56fc:	1c18      	adds	r0, r3, #0
    56fe:	f7fb fe43 	bl	1388 <__aeabi_i2f>
    5702:	1c03      	adds	r3, r0, #0
    5704:	1c18      	adds	r0, r3, #0
    5706:	4911      	ldr	r1, [pc, #68]	; (574c <PwmLdd5_SetDutyUS+0x74>)
    5708:	f7fb fb7e 	bl	e08 <__aeabi_fmul>
    570c:	1c03      	adds	r3, r0, #0
    570e:	60bb      	str	r3, [r7, #8]
/home/guilherme/Documents/GER-SDP/KDS/SDP-2016/Debug/../Generated_Code/PwmLdd5.c:298
  if (rtval > 0xFFFFUL) {              /* Is the result greater than 65535 ? */
    5710:	68b8      	ldr	r0, [r7, #8]
    5712:	490f      	ldr	r1, [pc, #60]	; (5750 <PwmLdd5_SetDutyUS+0x78>)
    5714:	f7fa fffc 	bl	710 <__aeabi_fcmpgt>
    5718:	1c03      	adds	r3, r0, #0
    571a:	2b00      	cmp	r3, #0
    571c:	d004      	beq.n	5728 <PwmLdd5_SetDutyUS+0x50>
/home/guilherme/Documents/GER-SDP/KDS/SDP-2016/Debug/../Generated_Code/PwmLdd5.c:299
    DeviceDataPrv->RatioStore = 0xFFFFU; /* If yes then use maximal possible value */
    571e:	68fb      	ldr	r3, [r7, #12]
    5720:	2201      	movs	r2, #1
    5722:	4252      	negs	r2, r2
    5724:	80da      	strh	r2, [r3, #6]
    5726:	e006      	b.n	5736 <PwmLdd5_SetDutyUS+0x5e>
/home/guilherme/Documents/GER-SDP/KDS/SDP-2016/Debug/../Generated_Code/PwmLdd5.c:302
  }
  else {
    DeviceDataPrv->RatioStore = (uint16_t)rtval;
    5728:	68b8      	ldr	r0, [r7, #8]
    572a:	f7fb f805 	bl	738 <__aeabi_f2uiz>
    572e:	1c03      	adds	r3, r0, #0
    5730:	b29a      	uxth	r2, r3
    5732:	68fb      	ldr	r3, [r7, #12]
    5734:	80da      	strh	r2, [r3, #6]
/home/guilherme/Documents/GER-SDP/KDS/SDP-2016/Debug/../Generated_Code/PwmLdd5.c:304
  }
  SetRatio(DeviceDataPtr);             /* Calculate and set up new appropriate values of the duty register */
    5736:	687b      	ldr	r3, [r7, #4]
    5738:	1c18      	adds	r0, r3, #0
    573a:	f000 f80b 	bl	5754 <SetRatio>
/home/guilherme/Documents/GER-SDP/KDS/SDP-2016/Debug/../Generated_Code/PwmLdd5.c:305
  return ERR_OK;                       /* OK */
    573e:	2300      	movs	r3, #0
/home/guilherme/Documents/GER-SDP/KDS/SDP-2016/Debug/../Generated_Code/PwmLdd5.c:306
}
    5740:	1c18      	adds	r0, r3, #0
    5742:	46bd      	mov	sp, r7
    5744:	b004      	add	sp, #16
    5746:	bd80      	pop	{r7, pc}
    5748:	00004e20 	.word	0x00004e20
    574c:	4051b6e3 	.word	0x4051b6e3
    5750:	477fff00 	.word	0x477fff00

00005754 <SetRatio>:
SetRatio():
/home/guilherme/Documents/GER-SDP/KDS/SDP-2016/Debug/../Generated_Code/PwmLdd5.c:365
**         variable RatioStore.
**         This method is internal. It is used by Processor Expert only.
** ===================================================================
*/
static void SetRatio(LDD_TDeviceData *DeviceDataPtr)
{
    5754:	b580      	push	{r7, lr}
    5756:	b086      	sub	sp, #24
    5758:	af00      	add	r7, sp, #0
    575a:	6078      	str	r0, [r7, #4]
/home/guilherme/Documents/GER-SDP/KDS/SDP-2016/Debug/../Generated_Code/PwmLdd5.c:366
  PwmLdd5_TDeviceData *DeviceDataPrv = (PwmLdd5_TDeviceData*)DeviceDataPtr;
    575c:	687b      	ldr	r3, [r7, #4]
    575e:	613b      	str	r3, [r7, #16]
/home/guilherme/Documents/GER-SDP/KDS/SDP-2016/Debug/../Generated_Code/PwmLdd5.c:370
  uint16_t Period;
  uint16_t Duty;

  (void)TU3_GetPeriodTicks(DeviceDataPrv->LinkedDeviceDataPtr, &Period);
    5760:	693b      	ldr	r3, [r7, #16]
    5762:	681a      	ldr	r2, [r3, #0]
    5764:	1c3b      	adds	r3, r7, #0
    5766:	330e      	adds	r3, #14
    5768:	1c10      	adds	r0, r2, #0
    576a:	1c19      	adds	r1, r3, #0
    576c:	f000 fc32 	bl	5fd4 <TU3_GetPeriodTicks>
/home/guilherme/Documents/GER-SDP/KDS/SDP-2016/Debug/../Generated_Code/PwmLdd5.c:371
  if (Period == 0U) {
    5770:	1c3b      	adds	r3, r7, #0
    5772:	330e      	adds	r3, #14
    5774:	881b      	ldrh	r3, [r3, #0]
    5776:	2b00      	cmp	r3, #0
    5778:	d105      	bne.n	5786 <SetRatio+0x32>
/home/guilherme/Documents/GER-SDP/KDS/SDP-2016/Debug/../Generated_Code/PwmLdd5.c:372
    Duty = DeviceDataPrv->RatioStore;
    577a:	1c3b      	adds	r3, r7, #0
    577c:	3316      	adds	r3, #22
    577e:	693a      	ldr	r2, [r7, #16]
    5780:	88d2      	ldrh	r2, [r2, #6]
    5782:	801a      	strh	r2, [r3, #0]
    5784:	e00c      	b.n	57a0 <SetRatio+0x4c>
/home/guilherme/Documents/GER-SDP/KDS/SDP-2016/Debug/../Generated_Code/PwmLdd5.c:375
  }
  else {
    Duty = (uint16_t)((((uint32_t)(Period) * DeviceDataPrv->RatioStore) + 0x8000) >> 0x10);
    5786:	1c3b      	adds	r3, r7, #0
    5788:	330e      	adds	r3, #14
    578a:	881b      	ldrh	r3, [r3, #0]
    578c:	693a      	ldr	r2, [r7, #16]
    578e:	88d2      	ldrh	r2, [r2, #6]
    5790:	4353      	muls	r3, r2
    5792:	2280      	movs	r2, #128	; 0x80
    5794:	0212      	lsls	r2, r2, #8
    5796:	189b      	adds	r3, r3, r2
    5798:	0c1a      	lsrs	r2, r3, #16
    579a:	1c3b      	adds	r3, r7, #0
    579c:	3316      	adds	r3, #22
    579e:	801a      	strh	r2, [r3, #0]
/home/guilherme/Documents/GER-SDP/KDS/SDP-2016/Debug/../Generated_Code/PwmLdd5.c:377
  }
  (void)TU3_SetOffsetTicks(DeviceDataPrv->LinkedDeviceDataPtr, CHANNEL, Duty);
    57a0:	693b      	ldr	r3, [r7, #16]
    57a2:	681a      	ldr	r2, [r3, #0]
    57a4:	1c3b      	adds	r3, r7, #0
    57a6:	3316      	adds	r3, #22
    57a8:	881b      	ldrh	r3, [r3, #0]
    57aa:	1c10      	adds	r0, r2, #0
    57ac:	2100      	movs	r1, #0
    57ae:	1c1a      	adds	r2, r3, #0
    57b0:	f000 fc2e 	bl	6010 <TU3_SetOffsetTicks>
/home/guilherme/Documents/GER-SDP/KDS/SDP-2016/Debug/../Generated_Code/PwmLdd5.c:378
}
    57b4:	46bd      	mov	sp, r7
    57b6:	b006      	add	sp, #24
    57b8:	bd80      	pop	{r7, pc}
    57ba:	46c0      	nop			; (mov r8, r8)

000057bc <SerialCom_Init>:
SerialCom_Init():
/home/guilherme/Documents/GER-SDP/KDS/SDP-2016/Debug/../Generated_Code/SerialCom.c:160
**     @return
**                         - Device data structure pointer.
*/
/* ===================================================================*/
LDD_TDeviceData* SerialCom_Init(LDD_TUserData *UserDataPtr)
{
    57bc:	b580      	push	{r7, lr}
    57be:	b084      	sub	sp, #16
    57c0:	af00      	add	r7, sp, #0
    57c2:	6078      	str	r0, [r7, #4]
/home/guilherme/Documents/GER-SDP/KDS/SDP-2016/Debug/../Generated_Code/SerialCom.c:164
  /* Allocate device structure */
  SerialCom_TDeviceDataPtr DeviceDataPrv;
  /* {Default RTOS Adapter} Driver memory allocation: Dynamic allocation is simulated by a pointer to the static object */
  DeviceDataPrv = &DeviceDataPrv__DEFAULT_RTOS_ALLOC;
    57c4:	4b5e      	ldr	r3, [pc, #376]	; (5940 <SerialCom_Init+0x184>)
    57c6:	60fb      	str	r3, [r7, #12]
/home/guilherme/Documents/GER-SDP/KDS/SDP-2016/Debug/../Generated_Code/SerialCom.c:167

  /* Clear the receive counters and pointer */
  DeviceDataPrv->InpRecvDataNum = 0x00U; /* Clear the counter of received characters */
    57c8:	68fb      	ldr	r3, [r7, #12]
    57ca:	2200      	movs	r2, #0
    57cc:	805a      	strh	r2, [r3, #2]
/home/guilherme/Documents/GER-SDP/KDS/SDP-2016/Debug/../Generated_Code/SerialCom.c:168
  DeviceDataPrv->InpDataNumReq = 0x00U; /* Clear the counter of characters to receive by ReceiveBlock() */
    57ce:	68fb      	ldr	r3, [r7, #12]
    57d0:	2200      	movs	r2, #0
    57d2:	811a      	strh	r2, [r3, #8]
/home/guilherme/Documents/GER-SDP/KDS/SDP-2016/Debug/../Generated_Code/SerialCom.c:169
  DeviceDataPrv->InpDataPtr = NULL;    /* Clear the buffer pointer for received characters */
    57d4:	68fb      	ldr	r3, [r7, #12]
    57d6:	2200      	movs	r2, #0
    57d8:	605a      	str	r2, [r3, #4]
/home/guilherme/Documents/GER-SDP/KDS/SDP-2016/Debug/../Generated_Code/SerialCom.c:171
  /* Clear the transmit counters and pointer */
  DeviceDataPrv->OutSentDataNum = 0x00U; /* Clear the counter of sent characters */
    57da:	68fb      	ldr	r3, [r7, #12]
    57dc:	2200      	movs	r2, #0
    57de:	815a      	strh	r2, [r3, #10]
/home/guilherme/Documents/GER-SDP/KDS/SDP-2016/Debug/../Generated_Code/SerialCom.c:172
  DeviceDataPrv->OutDataNumReq = 0x00U; /* Clear the counter of characters to be send by SendBlock() */
    57e0:	68fb      	ldr	r3, [r7, #12]
    57e2:	2200      	movs	r2, #0
    57e4:	821a      	strh	r2, [r3, #16]
/home/guilherme/Documents/GER-SDP/KDS/SDP-2016/Debug/../Generated_Code/SerialCom.c:173
  DeviceDataPrv->OutDataPtr = NULL;    /* Clear the buffer pointer for data to be transmitted */
    57e6:	68fb      	ldr	r3, [r7, #12]
    57e8:	2200      	movs	r2, #0
    57ea:	60da      	str	r2, [r3, #12]
/home/guilherme/Documents/GER-SDP/KDS/SDP-2016/Debug/../Generated_Code/SerialCom.c:174
  DeviceDataPrv->UserDataPtr = UserDataPtr; /* Store the RTOS device structure */
    57ec:	68fb      	ldr	r3, [r7, #12]
    57ee:	687a      	ldr	r2, [r7, #4]
    57f0:	615a      	str	r2, [r3, #20]
/home/guilherme/Documents/GER-SDP/KDS/SDP-2016/Debug/../Generated_Code/SerialCom.c:177
  /* Allocate interrupt vectors */
  /* {Default RTOS Adapter} Set interrupt vector: IVT is static, ISR parameter is passed by the global variable */
  INT_UART0__DEFAULT_RTOS_ISRPARAM = DeviceDataPrv;
    57f2:	4b54      	ldr	r3, [pc, #336]	; (5944 <SerialCom_Init+0x188>)
    57f4:	68fa      	ldr	r2, [r7, #12]
    57f6:	601a      	str	r2, [r3, #0]
/home/guilherme/Documents/GER-SDP/KDS/SDP-2016/Debug/../Generated_Code/SerialCom.c:179
  /* SIM_SCGC4: UART0=1 */
  SIM_SCGC4 |= SIM_SCGC4_UART0_MASK;
    57f8:	4a53      	ldr	r2, [pc, #332]	; (5948 <SerialCom_Init+0x18c>)
    57fa:	4953      	ldr	r1, [pc, #332]	; (5948 <SerialCom_Init+0x18c>)
    57fc:	4b53      	ldr	r3, [pc, #332]	; (594c <SerialCom_Init+0x190>)
    57fe:	58cb      	ldr	r3, [r1, r3]
    5800:	2180      	movs	r1, #128	; 0x80
    5802:	00c9      	lsls	r1, r1, #3
    5804:	4319      	orrs	r1, r3
    5806:	4b51      	ldr	r3, [pc, #324]	; (594c <SerialCom_Init+0x190>)
    5808:	50d1      	str	r1, [r2, r3]
/home/guilherme/Documents/GER-SDP/KDS/SDP-2016/Debug/../Generated_Code/SerialCom.c:181
  /* PORTA_PCR1: ISF=0,MUX=2 */
  PORTA_PCR1 = (uint32_t)((PORTA_PCR1 & (uint32_t)~(uint32_t)(
    580a:	4b51      	ldr	r3, [pc, #324]	; (5950 <SerialCom_Init+0x194>)
    580c:	4a50      	ldr	r2, [pc, #320]	; (5950 <SerialCom_Init+0x194>)
    580e:	6851      	ldr	r1, [r2, #4]
    5810:	4a50      	ldr	r2, [pc, #320]	; (5954 <SerialCom_Init+0x198>)
    5812:	400a      	ands	r2, r1
    5814:	2180      	movs	r1, #128	; 0x80
    5816:	0089      	lsls	r1, r1, #2
    5818:	430a      	orrs	r2, r1
    581a:	605a      	str	r2, [r3, #4]
/home/guilherme/Documents/GER-SDP/KDS/SDP-2016/Debug/../Generated_Code/SerialCom.c:188
                PORT_PCR_MUX(0x05)
               )) | (uint32_t)(
                PORT_PCR_MUX(0x02)
               ));
  /* PORTA_PCR2: ISF=0,MUX=2 */
  PORTA_PCR2 = (uint32_t)((PORTA_PCR2 & (uint32_t)~(uint32_t)(
    581c:	4b4c      	ldr	r3, [pc, #304]	; (5950 <SerialCom_Init+0x194>)
    581e:	4a4c      	ldr	r2, [pc, #304]	; (5950 <SerialCom_Init+0x194>)
    5820:	6891      	ldr	r1, [r2, #8]
    5822:	4a4c      	ldr	r2, [pc, #304]	; (5954 <SerialCom_Init+0x198>)
    5824:	400a      	ands	r2, r1
    5826:	2180      	movs	r1, #128	; 0x80
    5828:	0089      	lsls	r1, r1, #2
    582a:	430a      	orrs	r2, r1
    582c:	609a      	str	r2, [r3, #8]
/home/guilherme/Documents/GER-SDP/KDS/SDP-2016/Debug/../Generated_Code/SerialCom.c:195
                PORT_PCR_MUX(0x05)
               )) | (uint32_t)(
                PORT_PCR_MUX(0x02)
               ));
  /* NVIC_IPR3: PRI_12=0x80 */
  NVIC_IPR3 = (uint32_t)((NVIC_IPR3 & (uint32_t)~(uint32_t)(
    582e:	4a4a      	ldr	r2, [pc, #296]	; (5958 <SerialCom_Init+0x19c>)
    5830:	4949      	ldr	r1, [pc, #292]	; (5958 <SerialCom_Init+0x19c>)
    5832:	23c3      	movs	r3, #195	; 0xc3
    5834:	009b      	lsls	r3, r3, #2
    5836:	58cb      	ldr	r3, [r1, r3]
    5838:	21c0      	movs	r1, #192	; 0xc0
    583a:	1c18      	adds	r0, r3, #0
    583c:	4388      	bics	r0, r1
    583e:	1c01      	adds	r1, r0, #0
    5840:	23c3      	movs	r3, #195	; 0xc3
    5842:	009b      	lsls	r3, r3, #2
    5844:	50d1      	str	r1, [r2, r3]
/home/guilherme/Documents/GER-SDP/KDS/SDP-2016/Debug/../Generated_Code/SerialCom.c:201
               NVIC_IP_PRI_12(0x7F)
              )) | (uint32_t)(
               NVIC_IP_PRI_12(0x80)
              ));
  /* NVIC_ISER: SETENA|=0x1000 */
  NVIC_ISER |= NVIC_ISER_SETENA(0x1000);
    5846:	4b44      	ldr	r3, [pc, #272]	; (5958 <SerialCom_Init+0x19c>)
    5848:	4a43      	ldr	r2, [pc, #268]	; (5958 <SerialCom_Init+0x19c>)
    584a:	6812      	ldr	r2, [r2, #0]
    584c:	2180      	movs	r1, #128	; 0x80
    584e:	0149      	lsls	r1, r1, #5
    5850:	430a      	orrs	r2, r1
    5852:	601a      	str	r2, [r3, #0]
/home/guilherme/Documents/GER-SDP/KDS/SDP-2016/Debug/../Generated_Code/SerialCom.c:202
  UART0_PDD_EnableTransmitter(UART0_BASE_PTR, PDD_DISABLE); /* Disable transmitter. */
    5854:	4b41      	ldr	r3, [pc, #260]	; (595c <SerialCom_Init+0x1a0>)
    5856:	4a41      	ldr	r2, [pc, #260]	; (595c <SerialCom_Init+0x1a0>)
    5858:	78d2      	ldrb	r2, [r2, #3]
    585a:	b2d2      	uxtb	r2, r2
    585c:	2108      	movs	r1, #8
    585e:	438a      	bics	r2, r1
    5860:	b2d2      	uxtb	r2, r2
    5862:	70da      	strb	r2, [r3, #3]
/home/guilherme/Documents/GER-SDP/KDS/SDP-2016/Debug/../Generated_Code/SerialCom.c:203
  UART0_PDD_EnableReceiver(UART0_BASE_PTR, PDD_DISABLE); /* Disable receiver. */
    5864:	4b3d      	ldr	r3, [pc, #244]	; (595c <SerialCom_Init+0x1a0>)
    5866:	4a3d      	ldr	r2, [pc, #244]	; (595c <SerialCom_Init+0x1a0>)
    5868:	78d2      	ldrb	r2, [r2, #3]
    586a:	b2d2      	uxtb	r2, r2
    586c:	2104      	movs	r1, #4
    586e:	438a      	bics	r2, r1
    5870:	b2d2      	uxtb	r2, r2
    5872:	70da      	strb	r2, [r3, #3]
/home/guilherme/Documents/GER-SDP/KDS/SDP-2016/Debug/../Generated_Code/SerialCom.c:204
  DeviceDataPrv->SerFlag = 0x00U;      /* Reset flags */
    5874:	68fb      	ldr	r3, [r7, #12]
    5876:	2200      	movs	r2, #0
    5878:	801a      	strh	r2, [r3, #0]
/home/guilherme/Documents/GER-SDP/KDS/SDP-2016/Debug/../Generated_Code/SerialCom.c:206
  /* UART0_C1: LOOPS=0,DOZEEN=0,RSRC=0,M=0,WAKE=0,ILT=0,PE=0,PT=0 */
  UART0_C1 = 0x00U;                    /*  Set the C1 register */
    587a:	4b38      	ldr	r3, [pc, #224]	; (595c <SerialCom_Init+0x1a0>)
    587c:	2200      	movs	r2, #0
    587e:	709a      	strb	r2, [r3, #2]
/home/guilherme/Documents/GER-SDP/KDS/SDP-2016/Debug/../Generated_Code/SerialCom.c:208
  /* UART0_C3: R8T9=0,R9T8=0,TXDIR=0,TXINV=0,ORIE=0,NEIE=0,FEIE=0,PEIE=0 */
  UART0_C3 = 0x00U;                    /*  Set the C3 register */
    5880:	4b36      	ldr	r3, [pc, #216]	; (595c <SerialCom_Init+0x1a0>)
    5882:	2200      	movs	r2, #0
    5884:	719a      	strb	r2, [r3, #6]
/home/guilherme/Documents/GER-SDP/KDS/SDP-2016/Debug/../Generated_Code/SerialCom.c:210
  /* UART0_C4: MAEN1=0,MAEN2=0,M10=0,OSR=0 */
  UART0_C4 = UART0_C4_OSR(0x00);       /*  Set the C4 register */
    5886:	4b35      	ldr	r3, [pc, #212]	; (595c <SerialCom_Init+0x1a0>)
    5888:	2200      	movs	r2, #0
    588a:	729a      	strb	r2, [r3, #10]
/home/guilherme/Documents/GER-SDP/KDS/SDP-2016/Debug/../Generated_Code/SerialCom.c:212
  /* UART0_S2: LBKDIF=0,RXEDGIF=0,MSBF=0,RXINV=0,RWUID=0,BRK13=0,LBKDE=0,RAF=0 */
  UART0_S2 = 0x00U;                    /*  Set the S2 register */
    588c:	4b33      	ldr	r3, [pc, #204]	; (595c <SerialCom_Init+0x1a0>)
    588e:	2200      	movs	r2, #0
    5890:	715a      	strb	r2, [r3, #5]
/home/guilherme/Documents/GER-SDP/KDS/SDP-2016/Debug/../Generated_Code/SerialCom.c:213
  SIM_PDD_SetClockSourceUART0(SIM_BASE_PTR, SIM_PDD_UART0_PLL_FLL_CLOCK);
    5892:	4a2d      	ldr	r2, [pc, #180]	; (5948 <SerialCom_Init+0x18c>)
    5894:	492c      	ldr	r1, [pc, #176]	; (5948 <SerialCom_Init+0x18c>)
    5896:	4b32      	ldr	r3, [pc, #200]	; (5960 <SerialCom_Init+0x1a4>)
    5898:	58c9      	ldr	r1, [r1, r3]
    589a:	4b32      	ldr	r3, [pc, #200]	; (5964 <SerialCom_Init+0x1a8>)
    589c:	400b      	ands	r3, r1
    589e:	2180      	movs	r1, #128	; 0x80
    58a0:	04c9      	lsls	r1, r1, #19
    58a2:	4319      	orrs	r1, r3
    58a4:	4b2e      	ldr	r3, [pc, #184]	; (5960 <SerialCom_Init+0x1a4>)
    58a6:	50d1      	str	r1, [r2, r3]
/home/guilherme/Documents/GER-SDP/KDS/SDP-2016/Debug/../Generated_Code/SerialCom.c:214
  UART0_PDD_SetBaudRate(UART0_BASE_PTR, 46U); /* Set the baud rate register. */
    58a8:	4b2c      	ldr	r3, [pc, #176]	; (595c <SerialCom_Init+0x1a0>)
    58aa:	4a2c      	ldr	r2, [pc, #176]	; (595c <SerialCom_Init+0x1a0>)
    58ac:	7812      	ldrb	r2, [r2, #0]
    58ae:	b2d2      	uxtb	r2, r2
    58b0:	211f      	movs	r1, #31
    58b2:	438a      	bics	r2, r1
    58b4:	b2d2      	uxtb	r2, r2
    58b6:	701a      	strb	r2, [r3, #0]
    58b8:	4b28      	ldr	r3, [pc, #160]	; (595c <SerialCom_Init+0x1a0>)
    58ba:	222e      	movs	r2, #46	; 0x2e
    58bc:	705a      	strb	r2, [r3, #1]
/home/guilherme/Documents/GER-SDP/KDS/SDP-2016/Debug/../Generated_Code/SerialCom.c:215
  UART0_PDD_SetOversamplingRatio(UART0_BASE_PTR, 3U);
    58be:	4b27      	ldr	r3, [pc, #156]	; (595c <SerialCom_Init+0x1a0>)
    58c0:	4a26      	ldr	r2, [pc, #152]	; (595c <SerialCom_Init+0x1a0>)
    58c2:	7a92      	ldrb	r2, [r2, #10]
    58c4:	b2d2      	uxtb	r2, r2
    58c6:	b2d2      	uxtb	r2, r2
    58c8:	211f      	movs	r1, #31
    58ca:	438a      	bics	r2, r1
    58cc:	b2d2      	uxtb	r2, r2
    58ce:	2103      	movs	r1, #3
    58d0:	430a      	orrs	r2, r1
    58d2:	b2d2      	uxtb	r2, r2
    58d4:	b2d2      	uxtb	r2, r2
    58d6:	729a      	strb	r2, [r3, #10]
/home/guilherme/Documents/GER-SDP/KDS/SDP-2016/Debug/../Generated_Code/SerialCom.c:216
  UART0_PDD_EnableSamplingOnBothEdges(UART0_BASE_PTR, PDD_ENABLE);
    58d8:	4b20      	ldr	r3, [pc, #128]	; (595c <SerialCom_Init+0x1a0>)
    58da:	4a20      	ldr	r2, [pc, #128]	; (595c <SerialCom_Init+0x1a0>)
    58dc:	7ad2      	ldrb	r2, [r2, #11]
    58de:	b2d2      	uxtb	r2, r2
    58e0:	b2d2      	uxtb	r2, r2
    58e2:	2102      	movs	r1, #2
    58e4:	430a      	orrs	r2, r1
    58e6:	b2d2      	uxtb	r2, r2
    58e8:	b2d2      	uxtb	r2, r2
    58ea:	72da      	strb	r2, [r3, #11]
/home/guilherme/Documents/GER-SDP/KDS/SDP-2016/Debug/../Generated_Code/SerialCom.c:217
  UART0_PDD_EnableTransmitter(UART0_BASE_PTR, PDD_ENABLE); /* Enable transmitter */
    58ec:	4b1b      	ldr	r3, [pc, #108]	; (595c <SerialCom_Init+0x1a0>)
    58ee:	4a1b      	ldr	r2, [pc, #108]	; (595c <SerialCom_Init+0x1a0>)
    58f0:	78d2      	ldrb	r2, [r2, #3]
    58f2:	b2d2      	uxtb	r2, r2
    58f4:	b2d2      	uxtb	r2, r2
    58f6:	2108      	movs	r1, #8
    58f8:	430a      	orrs	r2, r1
    58fa:	b2d2      	uxtb	r2, r2
    58fc:	b2d2      	uxtb	r2, r2
    58fe:	70da      	strb	r2, [r3, #3]
/home/guilherme/Documents/GER-SDP/KDS/SDP-2016/Debug/../Generated_Code/SerialCom.c:218
  UART0_PDD_EnableReceiver(UART0_BASE_PTR, PDD_ENABLE); /* Enable receiver */
    5900:	4b16      	ldr	r3, [pc, #88]	; (595c <SerialCom_Init+0x1a0>)
    5902:	4a16      	ldr	r2, [pc, #88]	; (595c <SerialCom_Init+0x1a0>)
    5904:	78d2      	ldrb	r2, [r2, #3]
    5906:	b2d2      	uxtb	r2, r2
    5908:	b2d2      	uxtb	r2, r2
    590a:	2104      	movs	r1, #4
    590c:	430a      	orrs	r2, r1
    590e:	b2d2      	uxtb	r2, r2
    5910:	b2d2      	uxtb	r2, r2
    5912:	70da      	strb	r2, [r3, #3]
/home/guilherme/Documents/GER-SDP/KDS/SDP-2016/Debug/../Generated_Code/SerialCom.c:219
  UART0_PDD_EnableInterrupt(UART0_BASE_PTR, ( UART0_PDD_INTERRUPT_RECEIVER )); /* Enable interrupts */
    5914:	4b11      	ldr	r3, [pc, #68]	; (595c <SerialCom_Init+0x1a0>)
    5916:	4a11      	ldr	r2, [pc, #68]	; (595c <SerialCom_Init+0x1a0>)
    5918:	78d2      	ldrb	r2, [r2, #3]
    591a:	b2d2      	uxtb	r2, r2
    591c:	2120      	movs	r1, #32
    591e:	430a      	orrs	r2, r1
    5920:	b2d2      	uxtb	r2, r2
    5922:	70da      	strb	r2, [r3, #3]
    5924:	4b0d      	ldr	r3, [pc, #52]	; (595c <SerialCom_Init+0x1a0>)
    5926:	4a0d      	ldr	r2, [pc, #52]	; (595c <SerialCom_Init+0x1a0>)
    5928:	7992      	ldrb	r2, [r2, #6]
    592a:	b2d2      	uxtb	r2, r2
    592c:	719a      	strb	r2, [r3, #6]
/home/guilherme/Documents/GER-SDP/KDS/SDP-2016/Debug/../Generated_Code/SerialCom.c:221
  /* Registration of the device structure */
  PE_LDD_RegisterDeviceStructure(PE_LDD_COMPONENT_SerialCom_ID,DeviceDataPrv);
    592e:	4b0e      	ldr	r3, [pc, #56]	; (5968 <SerialCom_Init+0x1ac>)
    5930:	68fa      	ldr	r2, [r7, #12]
    5932:	615a      	str	r2, [r3, #20]
/home/guilherme/Documents/GER-SDP/KDS/SDP-2016/Debug/../Generated_Code/SerialCom.c:222
  return ((LDD_TDeviceData *)DeviceDataPrv);
    5934:	68fb      	ldr	r3, [r7, #12]
/home/guilherme/Documents/GER-SDP/KDS/SDP-2016/Debug/../Generated_Code/SerialCom.c:223
}
    5936:	1c18      	adds	r0, r3, #0
    5938:	46bd      	mov	sp, r7
    593a:	b004      	add	sp, #16
    593c:	bd80      	pop	{r7, pc}
    593e:	46c0      	nop			; (mov r8, r8)
    5940:	1ffff178 	.word	0x1ffff178
    5944:	1ffff190 	.word	0x1ffff190
    5948:	40047000 	.word	0x40047000
    594c:	00001034 	.word	0x00001034
    5950:	40049000 	.word	0x40049000
    5954:	fefff8ff 	.word	0xfefff8ff
    5958:	e000e100 	.word	0xe000e100
    595c:	4006a000 	.word	0x4006a000
    5960:	00001004 	.word	0x00001004
    5964:	f3ffffff 	.word	0xf3ffffff
    5968:	1ffff0d8 	.word	0x1ffff0d8

0000596c <SerialCom_SendBlock>:
SerialCom_SendBlock():
/home/guilherme/Documents/GER-SDP/KDS/SDP-2016/Debug/../Generated_Code/SerialCom.c:330
**                           ERR_BUSY - The previous transmit request is
**                           pending.
*/
/* ===================================================================*/
LDD_TError SerialCom_SendBlock(LDD_TDeviceData *DeviceDataPtr, LDD_TData *BufferPtr, uint16_t Size)
{
    596c:	b580      	push	{r7, lr}
    596e:	b086      	sub	sp, #24
    5970:	af00      	add	r7, sp, #0
    5972:	60f8      	str	r0, [r7, #12]
    5974:	60b9      	str	r1, [r7, #8]
    5976:	1dbb      	adds	r3, r7, #6
    5978:	801a      	strh	r2, [r3, #0]
/home/guilherme/Documents/GER-SDP/KDS/SDP-2016/Debug/../Generated_Code/SerialCom.c:331
  SerialCom_TDeviceDataPtr DeviceDataPrv = (SerialCom_TDeviceDataPtr)DeviceDataPtr;
    597a:	68fb      	ldr	r3, [r7, #12]
    597c:	617b      	str	r3, [r7, #20]
/home/guilherme/Documents/GER-SDP/KDS/SDP-2016/Debug/../Generated_Code/SerialCom.c:333

  if (Size == 0U) {                    /* Is the parameter Size within an expected range? */
    597e:	1dbb      	adds	r3, r7, #6
    5980:	881b      	ldrh	r3, [r3, #0]
    5982:	2b00      	cmp	r3, #0
    5984:	d101      	bne.n	598a <SerialCom_SendBlock+0x1e>
/home/guilherme/Documents/GER-SDP/KDS/SDP-2016/Debug/../Generated_Code/SerialCom.c:334
    return ERR_PARAM_SIZE;             /* If no then error */
    5986:	2384      	movs	r3, #132	; 0x84
    5988:	e048      	b.n	5a1c <SerialCom_SendBlock+0xb0>
/home/guilherme/Documents/GER-SDP/KDS/SDP-2016/Debug/../Generated_Code/SerialCom.c:336
  }
  if (DeviceDataPrv->OutDataNumReq != 0x00U) { /* Is the previous transmit operation pending? */
    598a:	697b      	ldr	r3, [r7, #20]
    598c:	8a1b      	ldrh	r3, [r3, #16]
    598e:	2b00      	cmp	r3, #0
    5990:	d001      	beq.n	5996 <SerialCom_SendBlock+0x2a>
/home/guilherme/Documents/GER-SDP/KDS/SDP-2016/Debug/../Generated_Code/SerialCom.c:337
    return ERR_BUSY;                   /* If yes then error */
    5992:	2308      	movs	r3, #8
    5994:	e042      	b.n	5a1c <SerialCom_SendBlock+0xb0>
/home/guilherme/Documents/GER-SDP/KDS/SDP-2016/Debug/../Generated_Code/SerialCom.c:340
  }
  /* {Default RTOS Adapter} Critical section begin, general PE function is used */
  EnterCritical();
    5996:	1c3b      	adds	r3, r7, #0
    5998:	3313      	adds	r3, #19
    599a:	f3ef 8010 	mrs	r0, PRIMASK
    599e:	b672      	cpsid	i
    59a0:	7018      	strb	r0, [r3, #0]
    59a2:	4b20      	ldr	r3, [pc, #128]	; (5a24 <SerialCom_SendBlock+0xb8>)
    59a4:	781b      	ldrb	r3, [r3, #0]
    59a6:	b2db      	uxtb	r3, r3
    59a8:	3301      	adds	r3, #1
    59aa:	b2db      	uxtb	r3, r3
    59ac:	4a1d      	ldr	r2, [pc, #116]	; (5a24 <SerialCom_SendBlock+0xb8>)
    59ae:	1c19      	adds	r1, r3, #0
    59b0:	7011      	strb	r1, [r2, #0]
    59b2:	2b01      	cmp	r3, #1
    59b4:	d104      	bne.n	59c0 <SerialCom_SendBlock+0x54>
/home/guilherme/Documents/GER-SDP/KDS/SDP-2016/Debug/../Generated_Code/SerialCom.c:340 (discriminator 1)
    59b6:	1c3b      	adds	r3, r7, #0
    59b8:	3313      	adds	r3, #19
    59ba:	781a      	ldrb	r2, [r3, #0]
    59bc:	4b1a      	ldr	r3, [pc, #104]	; (5a28 <SerialCom_SendBlock+0xbc>)
    59be:	701a      	strb	r2, [r3, #0]
/home/guilherme/Documents/GER-SDP/KDS/SDP-2016/Debug/../Generated_Code/SerialCom.c:341
  DeviceDataPrv->OutDataPtr = (uint8_t*)BufferPtr; /* Set a pointer to the output data. */
    59c0:	697b      	ldr	r3, [r7, #20]
    59c2:	68ba      	ldr	r2, [r7, #8]
    59c4:	60da      	str	r2, [r3, #12]
/home/guilherme/Documents/GER-SDP/KDS/SDP-2016/Debug/../Generated_Code/SerialCom.c:342
  DeviceDataPrv->OutDataNumReq = Size; /* Set the counter of characters to be sent. */
    59c6:	697b      	ldr	r3, [r7, #20]
    59c8:	1dba      	adds	r2, r7, #6
    59ca:	8812      	ldrh	r2, [r2, #0]
    59cc:	821a      	strh	r2, [r3, #16]
/home/guilherme/Documents/GER-SDP/KDS/SDP-2016/Debug/../Generated_Code/SerialCom.c:343
  DeviceDataPrv->OutSentDataNum = 0x00U; /* Clear the counter of sent characters. */
    59ce:	697b      	ldr	r3, [r7, #20]
    59d0:	2200      	movs	r2, #0
    59d2:	815a      	strh	r2, [r3, #10]
/home/guilherme/Documents/GER-SDP/KDS/SDP-2016/Debug/../Generated_Code/SerialCom.c:344
  DeviceDataPrv->SerFlag |= ENABLED_TX_INT; /* Set the flag ENABLED_TX_INT */
    59d4:	697b      	ldr	r3, [r7, #20]
    59d6:	881b      	ldrh	r3, [r3, #0]
    59d8:	2201      	movs	r2, #1
    59da:	4313      	orrs	r3, r2
    59dc:	b29a      	uxth	r2, r3
    59de:	697b      	ldr	r3, [r7, #20]
    59e0:	801a      	strh	r2, [r3, #0]
/home/guilherme/Documents/GER-SDP/KDS/SDP-2016/Debug/../Generated_Code/SerialCom.c:345
  UART0_PDD_EnableInterrupt(UART0_BASE_PTR, UART0_PDD_INTERRUPT_TRANSMITTER); /* Enable TX interrupt */
    59e2:	4b12      	ldr	r3, [pc, #72]	; (5a2c <SerialCom_SendBlock+0xc0>)
    59e4:	4a11      	ldr	r2, [pc, #68]	; (5a2c <SerialCom_SendBlock+0xc0>)
    59e6:	78d2      	ldrb	r2, [r2, #3]
    59e8:	b2d2      	uxtb	r2, r2
    59ea:	2180      	movs	r1, #128	; 0x80
    59ec:	4249      	negs	r1, r1
    59ee:	430a      	orrs	r2, r1
    59f0:	b2d2      	uxtb	r2, r2
    59f2:	70da      	strb	r2, [r3, #3]
    59f4:	4b0d      	ldr	r3, [pc, #52]	; (5a2c <SerialCom_SendBlock+0xc0>)
    59f6:	4a0d      	ldr	r2, [pc, #52]	; (5a2c <SerialCom_SendBlock+0xc0>)
    59f8:	7992      	ldrb	r2, [r2, #6]
    59fa:	b2d2      	uxtb	r2, r2
    59fc:	719a      	strb	r2, [r3, #6]
/home/guilherme/Documents/GER-SDP/KDS/SDP-2016/Debug/../Generated_Code/SerialCom.c:347
  /* {Default RTOS Adapter} Critical section end, general PE function is used */
  ExitCritical();
    59fe:	4b09      	ldr	r3, [pc, #36]	; (5a24 <SerialCom_SendBlock+0xb8>)
    5a00:	781b      	ldrb	r3, [r3, #0]
    5a02:	b2db      	uxtb	r3, r3
    5a04:	3b01      	subs	r3, #1
    5a06:	b2db      	uxtb	r3, r3
    5a08:	4a06      	ldr	r2, [pc, #24]	; (5a24 <SerialCom_SendBlock+0xb8>)
    5a0a:	1c19      	adds	r1, r3, #0
    5a0c:	7011      	strb	r1, [r2, #0]
    5a0e:	2b00      	cmp	r3, #0
    5a10:	d103      	bne.n	5a1a <SerialCom_SendBlock+0xae>
/home/guilherme/Documents/GER-SDP/KDS/SDP-2016/Debug/../Generated_Code/SerialCom.c:347 (discriminator 1)
    5a12:	4b05      	ldr	r3, [pc, #20]	; (5a28 <SerialCom_SendBlock+0xbc>)
    5a14:	7818      	ldrb	r0, [r3, #0]
    5a16:	f380 8810 	msr	PRIMASK, r0
/home/guilherme/Documents/GER-SDP/KDS/SDP-2016/Debug/../Generated_Code/SerialCom.c:348
  return ERR_OK;                       /* OK */
    5a1a:	2300      	movs	r3, #0
/home/guilherme/Documents/GER-SDP/KDS/SDP-2016/Debug/../Generated_Code/SerialCom.c:349
}
    5a1c:	1c18      	adds	r0, r3, #0
    5a1e:	46bd      	mov	sp, r7
    5a20:	b006      	add	sp, #24
    5a22:	bd80      	pop	{r7, pc}
    5a24:	1ffff0d4 	.word	0x1ffff0d4
    5a28:	1ffff366 	.word	0x1ffff366
    5a2c:	4006a000 	.word	0x4006a000

00005a30 <InterruptRx>:
InterruptRx():
/home/guilherme/Documents/GER-SDP/KDS/SDP-2016/Debug/../Generated_Code/SerialCom.c:362
**         peripheral(s) and eventually invokes the bean's event(s).
**         This method is internal. It is used by Processor Expert only.
** ===================================================================
*/
static void InterruptRx(SerialCom_TDeviceDataPtr DeviceDataPrv)
{
    5a30:	b590      	push	{r4, r7, lr}
    5a32:	b083      	sub	sp, #12
    5a34:	af00      	add	r7, sp, #0
    5a36:	6078      	str	r0, [r7, #4]
/home/guilherme/Documents/GER-SDP/KDS/SDP-2016/Debug/../Generated_Code/SerialCom.c:365
  register uint16_t Data;              /* Temporary variable for data */

  Data = (uint16_t)UART0_PDD_GetChar8(UART0_BASE_PTR); /* Read an 8-bit character from the receiver */
    5a38:	4b10      	ldr	r3, [pc, #64]	; (5a7c <InterruptRx+0x4c>)
    5a3a:	79db      	ldrb	r3, [r3, #7]
    5a3c:	b2db      	uxtb	r3, r3
    5a3e:	1c1c      	adds	r4, r3, #0
/home/guilherme/Documents/GER-SDP/KDS/SDP-2016/Debug/../Generated_Code/SerialCom.c:366
  if (DeviceDataPrv->InpDataNumReq != 0x00U) { /* Is the receive block operation pending? */
    5a40:	687b      	ldr	r3, [r7, #4]
    5a42:	891b      	ldrh	r3, [r3, #8]
    5a44:	2b00      	cmp	r3, #0
    5a46:	d015      	beq.n	5a74 <InterruptRx+0x44>
/home/guilherme/Documents/GER-SDP/KDS/SDP-2016/Debug/../Generated_Code/SerialCom.c:367
    *(DeviceDataPrv->InpDataPtr++) = (uint8_t)Data; /* Put an 8-bit character to the receive buffer */
    5a48:	687b      	ldr	r3, [r7, #4]
    5a4a:	685b      	ldr	r3, [r3, #4]
    5a4c:	1c59      	adds	r1, r3, #1
    5a4e:	687a      	ldr	r2, [r7, #4]
    5a50:	6051      	str	r1, [r2, #4]
    5a52:	b2e2      	uxtb	r2, r4
    5a54:	701a      	strb	r2, [r3, #0]
/home/guilherme/Documents/GER-SDP/KDS/SDP-2016/Debug/../Generated_Code/SerialCom.c:368
    DeviceDataPrv->InpRecvDataNum++;   /* Increment received char. counter */
    5a56:	687b      	ldr	r3, [r7, #4]
    5a58:	885b      	ldrh	r3, [r3, #2]
    5a5a:	3301      	adds	r3, #1
    5a5c:	b29a      	uxth	r2, r3
    5a5e:	687b      	ldr	r3, [r7, #4]
    5a60:	805a      	strh	r2, [r3, #2]
/home/guilherme/Documents/GER-SDP/KDS/SDP-2016/Debug/../Generated_Code/SerialCom.c:369
    if (DeviceDataPrv->InpRecvDataNum == DeviceDataPrv->InpDataNumReq) { /* Is the requested number of characters received? */
    5a62:	687b      	ldr	r3, [r7, #4]
    5a64:	885a      	ldrh	r2, [r3, #2]
    5a66:	687b      	ldr	r3, [r7, #4]
    5a68:	891b      	ldrh	r3, [r3, #8]
    5a6a:	429a      	cmp	r2, r3
    5a6c:	d102      	bne.n	5a74 <InterruptRx+0x44>
/home/guilherme/Documents/GER-SDP/KDS/SDP-2016/Debug/../Generated_Code/SerialCom.c:370
      DeviceDataPrv->InpDataNumReq = 0x00U; /* If yes then clear number of requested characters to be received. */
    5a6e:	687b      	ldr	r3, [r7, #4]
    5a70:	2200      	movs	r2, #0
    5a72:	811a      	strh	r2, [r3, #8]
/home/guilherme/Documents/GER-SDP/KDS/SDP-2016/Debug/../Generated_Code/SerialCom.c:373
    }
  }
}
    5a74:	46bd      	mov	sp, r7
    5a76:	b003      	add	sp, #12
    5a78:	bd90      	pop	{r4, r7, pc}
    5a7a:	46c0      	nop			; (mov r8, r8)
    5a7c:	4006a000 	.word	0x4006a000

00005a80 <InterruptTx>:
InterruptTx():
/home/guilherme/Documents/GER-SDP/KDS/SDP-2016/Debug/../Generated_Code/SerialCom.c:386
**         peripheral(s) and eventually invokes the bean's event(s).
**         This method is internal. It is used by Processor Expert only.
** ===================================================================
*/
static void InterruptTx(SerialCom_TDeviceDataPtr DeviceDataPrv)
{
    5a80:	b580      	push	{r7, lr}
    5a82:	b082      	sub	sp, #8
    5a84:	af00      	add	r7, sp, #0
    5a86:	6078      	str	r0, [r7, #4]
/home/guilherme/Documents/GER-SDP/KDS/SDP-2016/Debug/../Generated_Code/SerialCom.c:388

  if (DeviceDataPrv->OutSentDataNum < DeviceDataPrv->OutDataNumReq) { /* Is number of sent characters less than the number of requested incoming characters? */
    5a88:	687b      	ldr	r3, [r7, #4]
    5a8a:	895a      	ldrh	r2, [r3, #10]
    5a8c:	687b      	ldr	r3, [r7, #4]
    5a8e:	8a1b      	ldrh	r3, [r3, #16]
    5a90:	429a      	cmp	r2, r3
    5a92:	d21c      	bcs.n	5ace <InterruptTx+0x4e>
/home/guilherme/Documents/GER-SDP/KDS/SDP-2016/Debug/../Generated_Code/SerialCom.c:389
    UART0_PDD_PutChar8(UART0_BASE_PTR, *(DeviceDataPrv->OutDataPtr++)); /* Put a 8-bit character to the transmit register */
    5a94:	4919      	ldr	r1, [pc, #100]	; (5afc <InterruptTx+0x7c>)
    5a96:	687b      	ldr	r3, [r7, #4]
    5a98:	68db      	ldr	r3, [r3, #12]
    5a9a:	1c58      	adds	r0, r3, #1
    5a9c:	687a      	ldr	r2, [r7, #4]
    5a9e:	60d0      	str	r0, [r2, #12]
    5aa0:	781b      	ldrb	r3, [r3, #0]
    5aa2:	71cb      	strb	r3, [r1, #7]
/home/guilherme/Documents/GER-SDP/KDS/SDP-2016/Debug/../Generated_Code/SerialCom.c:390
    DeviceDataPrv->OutSentDataNum++;   /* Increment the counter of sent characters. */
    5aa4:	687b      	ldr	r3, [r7, #4]
    5aa6:	895b      	ldrh	r3, [r3, #10]
    5aa8:	3301      	adds	r3, #1
    5aaa:	b29a      	uxth	r2, r3
    5aac:	687b      	ldr	r3, [r7, #4]
    5aae:	815a      	strh	r2, [r3, #10]
/home/guilherme/Documents/GER-SDP/KDS/SDP-2016/Debug/../Generated_Code/SerialCom.c:391
    if (DeviceDataPrv->OutSentDataNum == DeviceDataPrv->OutDataNumReq) {
    5ab0:	687b      	ldr	r3, [r7, #4]
    5ab2:	895a      	ldrh	r2, [r3, #10]
    5ab4:	687b      	ldr	r3, [r7, #4]
    5ab6:	8a1b      	ldrh	r3, [r3, #16]
    5ab8:	429a      	cmp	r2, r3
    5aba:	d11c      	bne.n	5af6 <InterruptTx+0x76>
/home/guilherme/Documents/GER-SDP/KDS/SDP-2016/Debug/../Generated_Code/SerialCom.c:392
      DeviceDataPrv->OutDataNumReq = 0x00U; /* Clear the counter of characters to be send by SendBlock() */
    5abc:	687b      	ldr	r3, [r7, #4]
    5abe:	2200      	movs	r2, #0
    5ac0:	821a      	strh	r2, [r3, #16]
/home/guilherme/Documents/GER-SDP/KDS/SDP-2016/Debug/../Generated_Code/SerialCom.c:393
      SerialCom_OnBlockSent(DeviceDataPrv->UserDataPtr);
    5ac2:	687b      	ldr	r3, [r7, #4]
    5ac4:	695b      	ldr	r3, [r3, #20]
    5ac6:	1c18      	adds	r0, r3, #0
    5ac8:	f7fd fe68 	bl	379c <SerialCom_OnBlockSent>
    5acc:	e013      	b.n	5af6 <InterruptTx+0x76>
/home/guilherme/Documents/GER-SDP/KDS/SDP-2016/Debug/../Generated_Code/SerialCom.c:396
    }
  } else {
    UART0_PDD_DisableInterrupt(UART0_BASE_PTR, UART0_PDD_INTERRUPT_TRANSMITTER); /* Disable TX interrupt */
    5ace:	4b0b      	ldr	r3, [pc, #44]	; (5afc <InterruptTx+0x7c>)
    5ad0:	4a0a      	ldr	r2, [pc, #40]	; (5afc <InterruptTx+0x7c>)
    5ad2:	78d2      	ldrb	r2, [r2, #3]
    5ad4:	b2d1      	uxtb	r1, r2
    5ad6:	227f      	movs	r2, #127	; 0x7f
    5ad8:	400a      	ands	r2, r1
    5ada:	b2d2      	uxtb	r2, r2
    5adc:	70da      	strb	r2, [r3, #3]
    5ade:	4b07      	ldr	r3, [pc, #28]	; (5afc <InterruptTx+0x7c>)
    5ae0:	4a06      	ldr	r2, [pc, #24]	; (5afc <InterruptTx+0x7c>)
    5ae2:	7992      	ldrb	r2, [r2, #6]
    5ae4:	b2d2      	uxtb	r2, r2
    5ae6:	719a      	strb	r2, [r3, #6]
/home/guilherme/Documents/GER-SDP/KDS/SDP-2016/Debug/../Generated_Code/SerialCom.c:397
    DeviceDataPrv->SerFlag &= (uint16_t)(~(uint16_t)ENABLED_TX_INT); /* Clear the flag ENABLED_TX_INT */
    5ae8:	687b      	ldr	r3, [r7, #4]
    5aea:	881b      	ldrh	r3, [r3, #0]
    5aec:	2201      	movs	r2, #1
    5aee:	4393      	bics	r3, r2
    5af0:	b29a      	uxth	r2, r3
    5af2:	687b      	ldr	r3, [r7, #4]
    5af4:	801a      	strh	r2, [r3, #0]
/home/guilherme/Documents/GER-SDP/KDS/SDP-2016/Debug/../Generated_Code/SerialCom.c:399
  }
}
    5af6:	46bd      	mov	sp, r7
    5af8:	b002      	add	sp, #8
    5afa:	bd80      	pop	{r7, pc}
    5afc:	4006a000 	.word	0x4006a000

00005b00 <SerialCom_Interrupt>:
SerialCom_Interrupt():
/home/guilherme/Documents/GER-SDP/KDS/SDP-2016/Debug/../Generated_Code/SerialCom.c:412
**         interrupt. Calls InterruptTX/InterruptRX methods.
**         This method is internal. It is used by Processor Expert only.
** ===================================================================
*/
PE_ISR(SerialCom_Interrupt)
{
    5b00:	b590      	push	{r4, r7, lr}
    5b02:	b083      	sub	sp, #12
    5b04:	af00      	add	r7, sp, #0
/home/guilherme/Documents/GER-SDP/KDS/SDP-2016/Debug/../Generated_Code/SerialCom.c:414
  /* {Default RTOS Adapter} ISR parameter is passed through the global variable */
  SerialCom_TDeviceDataPtr DeviceDataPrv = INT_UART0__DEFAULT_RTOS_ISRPARAM;
    5b06:	4b15      	ldr	r3, [pc, #84]	; (5b5c <SerialCom_Interrupt+0x5c>)
    5b08:	681b      	ldr	r3, [r3, #0]
    5b0a:	607b      	str	r3, [r7, #4]
/home/guilherme/Documents/GER-SDP/KDS/SDP-2016/Debug/../Generated_Code/SerialCom.c:415
  register uint32_t StatReg = UART0_PDD_ReadInterruptStatusReg(UART0_BASE_PTR); /* Read status register */
    5b0c:	4b14      	ldr	r3, [pc, #80]	; (5b60 <SerialCom_Interrupt+0x60>)
    5b0e:	791b      	ldrb	r3, [r3, #4]
    5b10:	b2db      	uxtb	r3, r3
    5b12:	1c1c      	adds	r4, r3, #0
/home/guilherme/Documents/GER-SDP/KDS/SDP-2016/Debug/../Generated_Code/SerialCom.c:417

  if (StatReg & (UART0_S1_NF_MASK | UART0_S1_OR_MASK | UART0_S1_FE_MASK | UART0_S1_PF_MASK)) { /* Is any error flag set? */
    5b14:	230f      	movs	r3, #15
    5b16:	4023      	ands	r3, r4
    5b18:	d009      	beq.n	5b2e <SerialCom_Interrupt+0x2e>
/home/guilherme/Documents/GER-SDP/KDS/SDP-2016/Debug/../Generated_Code/SerialCom.c:418
    UART0_PDD_ClearInterruptFlags(UART0_BASE_PTR, (UART0_S1_NF_MASK | UART0_S1_OR_MASK | UART0_S1_FE_MASK | UART0_S1_PF_MASK));
    5b1a:	4b11      	ldr	r3, [pc, #68]	; (5b60 <SerialCom_Interrupt+0x60>)
    5b1c:	220f      	movs	r2, #15
    5b1e:	711a      	strb	r2, [r3, #4]
/home/guilherme/Documents/GER-SDP/KDS/SDP-2016/Debug/../Generated_Code/SerialCom.c:419
    (void)UART0_PDD_GetChar8(UART0_BASE_PTR); /* Dummy read 8-bit character from receiver */
    5b20:	4b0f      	ldr	r3, [pc, #60]	; (5b60 <SerialCom_Interrupt+0x60>)
    5b22:	79db      	ldrb	r3, [r3, #7]
/home/guilherme/Documents/GER-SDP/KDS/SDP-2016/Debug/../Generated_Code/SerialCom.c:420
    StatReg &= (uint32_t)(~(uint32_t)UART0_S1_RDRF_MASK); /* Clear the receive data flag to discard the errorneous data */
    5b24:	2320      	movs	r3, #32
    5b26:	1c22      	adds	r2, r4, #0
    5b28:	439a      	bics	r2, r3
    5b2a:	1c13      	adds	r3, r2, #0
    5b2c:	1c1c      	adds	r4, r3, #0
/home/guilherme/Documents/GER-SDP/KDS/SDP-2016/Debug/../Generated_Code/SerialCom.c:422
  }
  if (StatReg & UART0_S1_RDRF_MASK) {  /* Is the receiver's interrupt flag set? */
    5b2e:	2320      	movs	r3, #32
    5b30:	4023      	ands	r3, r4
    5b32:	d003      	beq.n	5b3c <SerialCom_Interrupt+0x3c>
/home/guilherme/Documents/GER-SDP/KDS/SDP-2016/Debug/../Generated_Code/SerialCom.c:423
    InterruptRx(DeviceDataPrv);        /* If yes, then invoke the internal service routine. This routine is inlined. */
    5b34:	687b      	ldr	r3, [r7, #4]
    5b36:	1c18      	adds	r0, r3, #0
    5b38:	f7ff ff7a 	bl	5a30 <InterruptRx>
/home/guilherme/Documents/GER-SDP/KDS/SDP-2016/Debug/../Generated_Code/SerialCom.c:425
  }
  if (DeviceDataPrv->SerFlag & ENABLED_TX_INT) { /* Is the transmitter interrupt enabled? */
    5b3c:	687b      	ldr	r3, [r7, #4]
    5b3e:	881b      	ldrh	r3, [r3, #0]
    5b40:	1c1a      	adds	r2, r3, #0
    5b42:	2301      	movs	r3, #1
    5b44:	4013      	ands	r3, r2
    5b46:	d006      	beq.n	5b56 <SerialCom_Interrupt+0x56>
/home/guilherme/Documents/GER-SDP/KDS/SDP-2016/Debug/../Generated_Code/SerialCom.c:426
    if (StatReg & UART0_S1_TDRE_MASK) { /* Is the transmitter empty? */
    5b48:	2380      	movs	r3, #128	; 0x80
    5b4a:	4023      	ands	r3, r4
    5b4c:	d003      	beq.n	5b56 <SerialCom_Interrupt+0x56>
/home/guilherme/Documents/GER-SDP/KDS/SDP-2016/Debug/../Generated_Code/SerialCom.c:427
      InterruptTx(DeviceDataPrv);      /* If yes, then invoke the internal service routine. This routine is inlined. */
    5b4e:	687b      	ldr	r3, [r7, #4]
    5b50:	1c18      	adds	r0, r3, #0
    5b52:	f7ff ff95 	bl	5a80 <InterruptTx>
/home/guilherme/Documents/GER-SDP/KDS/SDP-2016/Debug/../Generated_Code/SerialCom.c:430
    }
  }
}
    5b56:	46bd      	mov	sp, r7
    5b58:	b003      	add	sp, #12
    5b5a:	bd90      	pop	{r4, r7, pc}
    5b5c:	1ffff190 	.word	0x1ffff190
    5b60:	4006a000 	.word	0x4006a000

00005b64 <TU1_Init>:
TU1_Init():
/home/guilherme/Documents/GER-SDP/KDS/SDP-2016/Debug/../Generated_Code/TU1.c:153
**                         - Pointer to the dynamically allocated private
**                           structure or NULL if there was an error.
*/
/* ===================================================================*/
LDD_TDeviceData* TU1_Init(LDD_TUserData *UserDataPtr)
{
    5b64:	b580      	push	{r7, lr}
    5b66:	b084      	sub	sp, #16
    5b68:	af00      	add	r7, sp, #0
    5b6a:	6078      	str	r0, [r7, #4]
/home/guilherme/Documents/GER-SDP/KDS/SDP-2016/Debug/../Generated_Code/TU1.c:156
  TU1_TDeviceData *DeviceDataPrv;

  if (PE_LDD_DeviceDataList[PE_LDD_COMPONENT_TU1_ID] == NULL) {
    5b6c:	4b2a      	ldr	r3, [pc, #168]	; (5c18 <TU1_Init+0xb4>)
    5b6e:	689b      	ldr	r3, [r3, #8]
    5b70:	2b00      	cmp	r3, #0
    5b72:	d140      	bne.n	5bf6 <TU1_Init+0x92>
/home/guilherme/Documents/GER-SDP/KDS/SDP-2016/Debug/../Generated_Code/TU1.c:159
    /* Allocate device structure */
    /* {Default RTOS Adapter} Driver memory allocation: Dynamic allocation is simulated by a pointer to the static object */
    DeviceDataPrv = &DeviceDataPrv__DEFAULT_RTOS_ALLOC;
    5b74:	4b29      	ldr	r3, [pc, #164]	; (5c1c <TU1_Init+0xb8>)
    5b76:	60fb      	str	r3, [r7, #12]
/home/guilherme/Documents/GER-SDP/KDS/SDP-2016/Debug/../Generated_Code/TU1.c:160
    DeviceDataPrv->UserDataPtr = UserDataPtr; /* Store the RTOS device structure */
    5b78:	68fb      	ldr	r3, [r7, #12]
    5b7a:	687a      	ldr	r2, [r7, #4]
    5b7c:	605a      	str	r2, [r3, #4]
/home/guilherme/Documents/GER-SDP/KDS/SDP-2016/Debug/../Generated_Code/TU1.c:161
    DeviceDataPrv->InitCntr = 1U;      /* First initialization */
    5b7e:	68fb      	ldr	r3, [r7, #12]
    5b80:	2201      	movs	r2, #1
    5b82:	701a      	strb	r2, [r3, #0]
/home/guilherme/Documents/GER-SDP/KDS/SDP-2016/Debug/../Generated_Code/TU1.c:172
    DeviceDataPrv->InitCntr++;         /* Increment counter of initialization */
    return ((LDD_TDeviceData *)DeviceDataPrv); /* Return pointer to the device data structure */
  }
  /* Interrupt vector(s) allocation */
  /* {Default RTOS Adapter} Set interrupt vector: IVT is static, ISR parameter is passed by the global variable */
  INT_PIT__DEFAULT_RTOS_ISRPARAM = DeviceDataPrv;
    5b84:	4b26      	ldr	r3, [pc, #152]	; (5c20 <TU1_Init+0xbc>)
    5b86:	68fa      	ldr	r2, [r7, #12]
    5b88:	601a      	str	r2, [r3, #0]
/home/guilherme/Documents/GER-SDP/KDS/SDP-2016/Debug/../Generated_Code/TU1.c:174
  /* SIM_SCGC6: PIT=1 */
  SIM_SCGC6 |= SIM_SCGC6_PIT_MASK;
    5b8a:	4a26      	ldr	r2, [pc, #152]	; (5c24 <TU1_Init+0xc0>)
    5b8c:	4925      	ldr	r1, [pc, #148]	; (5c24 <TU1_Init+0xc0>)
    5b8e:	4b26      	ldr	r3, [pc, #152]	; (5c28 <TU1_Init+0xc4>)
    5b90:	58cb      	ldr	r3, [r1, r3]
    5b92:	2180      	movs	r1, #128	; 0x80
    5b94:	0409      	lsls	r1, r1, #16
    5b96:	4319      	orrs	r1, r3
    5b98:	4b23      	ldr	r3, [pc, #140]	; (5c28 <TU1_Init+0xc4>)
    5b9a:	50d1      	str	r1, [r2, r3]
/home/guilherme/Documents/GER-SDP/KDS/SDP-2016/Debug/../Generated_Code/TU1.c:176
  /* PIT_MCR: ??=0,??=0,??=0,??=0,??=0,??=0,??=0,??=0,??=0,??=0,??=0,??=0,??=0,??=0,??=0,??=0,??=0,??=0,??=0,??=0,??=0,??=0,??=0,??=0,??=0,??=0,??=0,??=0,??=0,??=0,MDIS=0,FRZ=0 */
  PIT_MCR = 0x00U;                     /* Enable device clock */
    5b9c:	4b23      	ldr	r3, [pc, #140]	; (5c2c <TU1_Init+0xc8>)
    5b9e:	2200      	movs	r2, #0
    5ba0:	601a      	str	r2, [r3, #0]
/home/guilherme/Documents/GER-SDP/KDS/SDP-2016/Debug/../Generated_Code/TU1.c:178
  /* PIT_TCTRL0: ??=0,??=0,??=0,??=0,??=0,??=0,??=0,??=0,??=0,??=0,??=0,??=0,??=0,??=0,??=0,??=0,??=0,??=0,??=0,??=0,??=0,??=0,??=0,??=0,??=0,??=0,??=0,??=0,??=0,CHN=0,TIE=0,TEN=0 */
  PIT_TCTRL0 = 0x00U;                  /* Clear control register */
    5ba2:	4a22      	ldr	r2, [pc, #136]	; (5c2c <TU1_Init+0xc8>)
    5ba4:	2384      	movs	r3, #132	; 0x84
    5ba6:	005b      	lsls	r3, r3, #1
    5ba8:	2100      	movs	r1, #0
    5baa:	50d1      	str	r1, [r2, r3]
/home/guilherme/Documents/GER-SDP/KDS/SDP-2016/Debug/../Generated_Code/TU1.c:180
  /* PIT_TFLG0: ??=0,??=0,??=0,??=0,??=0,??=0,??=0,??=0,??=0,??=0,??=0,??=0,??=0,??=0,??=0,??=0,??=0,??=0,??=0,??=0,??=0,??=0,??=0,??=0,??=0,??=0,??=0,??=0,??=0,??=0,??=0,TIF=1 */
  PIT_TFLG0 = PIT_TFLG_TIF_MASK;       /* Clear timer flag register */
    5bac:	4a1f      	ldr	r2, [pc, #124]	; (5c2c <TU1_Init+0xc8>)
    5bae:	2386      	movs	r3, #134	; 0x86
    5bb0:	005b      	lsls	r3, r3, #1
    5bb2:	2101      	movs	r1, #1
    5bb4:	50d1      	str	r1, [r2, r3]
/home/guilherme/Documents/GER-SDP/KDS/SDP-2016/Debug/../Generated_Code/TU1.c:182
  /* PIT_LDVAL0: TSV=0xD1 */
  PIT_LDVAL0 = PIT_LDVAL_TSV(0xD1);    /* Set up load register */
    5bb6:	4a1d      	ldr	r2, [pc, #116]	; (5c2c <TU1_Init+0xc8>)
    5bb8:	2380      	movs	r3, #128	; 0x80
    5bba:	005b      	lsls	r3, r3, #1
    5bbc:	21d1      	movs	r1, #209	; 0xd1
    5bbe:	50d1      	str	r1, [r2, r3]
/home/guilherme/Documents/GER-SDP/KDS/SDP-2016/Debug/../Generated_Code/TU1.c:184
  /* NVIC_IPR5: PRI_22=0x80 */
  NVIC_IPR5 = (uint32_t)((NVIC_IPR5 & (uint32_t)~(uint32_t)(
    5bc0:	4a1b      	ldr	r2, [pc, #108]	; (5c30 <TU1_Init+0xcc>)
    5bc2:	491b      	ldr	r1, [pc, #108]	; (5c30 <TU1_Init+0xcc>)
    5bc4:	23c5      	movs	r3, #197	; 0xc5
    5bc6:	009b      	lsls	r3, r3, #2
    5bc8:	58c9      	ldr	r1, [r1, r3]
    5bca:	4b1a      	ldr	r3, [pc, #104]	; (5c34 <TU1_Init+0xd0>)
    5bcc:	4019      	ands	r1, r3
    5bce:	23c5      	movs	r3, #197	; 0xc5
    5bd0:	009b      	lsls	r3, r3, #2
    5bd2:	50d1      	str	r1, [r2, r3]
/home/guilherme/Documents/GER-SDP/KDS/SDP-2016/Debug/../Generated_Code/TU1.c:190
               NVIC_IP_PRI_22(0x7F)
              )) | (uint32_t)(
               NVIC_IP_PRI_22(0x80)
              ));
  /* NVIC_ISER: SETENA|=0x00400000 */
  NVIC_ISER |= NVIC_ISER_SETENA(0x00400000);
    5bd4:	4b16      	ldr	r3, [pc, #88]	; (5c30 <TU1_Init+0xcc>)
    5bd6:	4a16      	ldr	r2, [pc, #88]	; (5c30 <TU1_Init+0xcc>)
    5bd8:	6812      	ldr	r2, [r2, #0]
    5bda:	2180      	movs	r1, #128	; 0x80
    5bdc:	03c9      	lsls	r1, r1, #15
    5bde:	430a      	orrs	r2, r1
    5be0:	601a      	str	r2, [r3, #0]
/home/guilherme/Documents/GER-SDP/KDS/SDP-2016/Debug/../Generated_Code/TU1.c:192
  /* PIT_TCTRL0: ??=0,??=0,??=0,??=0,??=0,??=0,??=0,??=0,??=0,??=0,??=0,??=0,??=0,??=0,??=0,??=0,??=0,??=0,??=0,??=0,??=0,??=0,??=0,??=0,??=0,??=0,??=0,??=0,??=0,CHN=0,TIE=0,TEN=0 */
  PIT_TCTRL0 = 0x00U;                  /* Set up control register */
    5be2:	4a12      	ldr	r2, [pc, #72]	; (5c2c <TU1_Init+0xc8>)
    5be4:	2384      	movs	r3, #132	; 0x84
    5be6:	005b      	lsls	r3, r3, #1
    5be8:	2100      	movs	r1, #0
    5bea:	50d1      	str	r1, [r2, r3]
/home/guilherme/Documents/GER-SDP/KDS/SDP-2016/Debug/../Generated_Code/TU1.c:194
  /* Registration of the device structure */
  PE_LDD_RegisterDeviceStructure(PE_LDD_COMPONENT_TU1_ID,DeviceDataPrv);
    5bec:	4b0a      	ldr	r3, [pc, #40]	; (5c18 <TU1_Init+0xb4>)
    5bee:	68fa      	ldr	r2, [r7, #12]
    5bf0:	609a      	str	r2, [r3, #8]
/home/guilherme/Documents/GER-SDP/KDS/SDP-2016/Debug/../Generated_Code/TU1.c:195
  return ((LDD_TDeviceData *)DeviceDataPrv); /* Return pointer to the device data structure */
    5bf2:	68fb      	ldr	r3, [r7, #12]
    5bf4:	e00c      	b.n	5c10 <TU1_Init+0xac>
/home/guilherme/Documents/GER-SDP/KDS/SDP-2016/Debug/../Generated_Code/TU1.c:165
    DeviceDataPrv->UserDataPtr = UserDataPtr; /* Store the RTOS device structure */
    DeviceDataPrv->InitCntr = 1U;      /* First initialization */
  }
  else {
    /* Memory is already allocated */
    DeviceDataPrv = (TU1_TDeviceDataPtr) PE_LDD_DeviceDataList[PE_LDD_COMPONENT_TU1_ID];
    5bf6:	4b08      	ldr	r3, [pc, #32]	; (5c18 <TU1_Init+0xb4>)
    5bf8:	689b      	ldr	r3, [r3, #8]
    5bfa:	60fb      	str	r3, [r7, #12]
/home/guilherme/Documents/GER-SDP/KDS/SDP-2016/Debug/../Generated_Code/TU1.c:166
    DeviceDataPrv->UserDataPtr = UserDataPtr; /* Store the RTOS device structure */
    5bfc:	68fb      	ldr	r3, [r7, #12]
    5bfe:	687a      	ldr	r2, [r7, #4]
    5c00:	605a      	str	r2, [r3, #4]
/home/guilherme/Documents/GER-SDP/KDS/SDP-2016/Debug/../Generated_Code/TU1.c:167
    DeviceDataPrv->InitCntr++;         /* Increment counter of initialization */
    5c02:	68fb      	ldr	r3, [r7, #12]
    5c04:	781b      	ldrb	r3, [r3, #0]
    5c06:	3301      	adds	r3, #1
    5c08:	b2da      	uxtb	r2, r3
    5c0a:	68fb      	ldr	r3, [r7, #12]
    5c0c:	701a      	strb	r2, [r3, #0]
/home/guilherme/Documents/GER-SDP/KDS/SDP-2016/Debug/../Generated_Code/TU1.c:168
    return ((LDD_TDeviceData *)DeviceDataPrv); /* Return pointer to the device data structure */
    5c0e:	68fb      	ldr	r3, [r7, #12]
/home/guilherme/Documents/GER-SDP/KDS/SDP-2016/Debug/../Generated_Code/TU1.c:196
  /* PIT_TCTRL0: ??=0,??=0,??=0,??=0,??=0,??=0,??=0,??=0,??=0,??=0,??=0,??=0,??=0,??=0,??=0,??=0,??=0,??=0,??=0,??=0,??=0,??=0,??=0,??=0,??=0,??=0,??=0,??=0,??=0,CHN=0,TIE=0,TEN=0 */
  PIT_TCTRL0 = 0x00U;                  /* Set up control register */
  /* Registration of the device structure */
  PE_LDD_RegisterDeviceStructure(PE_LDD_COMPONENT_TU1_ID,DeviceDataPrv);
  return ((LDD_TDeviceData *)DeviceDataPrv); /* Return pointer to the device data structure */
}
    5c10:	1c18      	adds	r0, r3, #0
    5c12:	46bd      	mov	sp, r7
    5c14:	b004      	add	sp, #16
    5c16:	bd80      	pop	{r7, pc}
    5c18:	1ffff0d8 	.word	0x1ffff0d8
    5c1c:	1ffff194 	.word	0x1ffff194
    5c20:	1ffff19c 	.word	0x1ffff19c
    5c24:	40047000 	.word	0x40047000
    5c28:	0000103c 	.word	0x0000103c
    5c2c:	40037000 	.word	0x40037000
    5c30:	e000e100 	.word	0xe000e100
    5c34:	ff3fffff 	.word	0xff3fffff

00005c38 <TU1_Enable>:
TU1_Enable():
/home/guilherme/Documents/GER-SDP/KDS/SDP-2016/Debug/../Generated_Code/TU1.c:218
**                           ERR_SPEED - The component does not work in
**                           the active clock configuration
*/
/* ===================================================================*/
LDD_TError TU1_Enable(LDD_TDeviceData *DeviceDataPtr)
{
    5c38:	b580      	push	{r7, lr}
    5c3a:	b082      	sub	sp, #8
    5c3c:	af00      	add	r7, sp, #0
    5c3e:	6078      	str	r0, [r7, #4]
/home/guilherme/Documents/GER-SDP/KDS/SDP-2016/Debug/../Generated_Code/TU1.c:220
  (void)DeviceDataPtr;                 /* Parameter is not used, suppress unused argument warning */
  PIT_PDD_EnableDevice(PIT_BASE_PTR, PIT_PDD_CHANNEL_0, PDD_ENABLE); /* Enable the device */
    5c40:	4a07      	ldr	r2, [pc, #28]	; (5c60 <TU1_Enable+0x28>)
    5c42:	4907      	ldr	r1, [pc, #28]	; (5c60 <TU1_Enable+0x28>)
    5c44:	2384      	movs	r3, #132	; 0x84
    5c46:	005b      	lsls	r3, r3, #1
    5c48:	58cb      	ldr	r3, [r1, r3]
    5c4a:	2101      	movs	r1, #1
    5c4c:	4319      	orrs	r1, r3
    5c4e:	2384      	movs	r3, #132	; 0x84
    5c50:	005b      	lsls	r3, r3, #1
    5c52:	50d1      	str	r1, [r2, r3]
/home/guilherme/Documents/GER-SDP/KDS/SDP-2016/Debug/../Generated_Code/TU1.c:221
  return ERR_OK;
    5c54:	2300      	movs	r3, #0
/home/guilherme/Documents/GER-SDP/KDS/SDP-2016/Debug/../Generated_Code/TU1.c:222
}
    5c56:	1c18      	adds	r0, r3, #0
    5c58:	46bd      	mov	sp, r7
    5c5a:	b002      	add	sp, #8
    5c5c:	bd80      	pop	{r7, pc}
    5c5e:	46c0      	nop			; (mov r8, r8)
    5c60:	40037000 	.word	0x40037000

00005c64 <TU1_SetEventMask>:
TU1_SetEventMask():
/home/guilherme/Documents/GER-SDP/KDS/SDP-2016/Debug/../Generated_Code/TU1.c:277
**                           the active clock configuration
**                           ERR_PARAM_MASK - Event mask is not valid
*/
/* ===================================================================*/
LDD_TError TU1_SetEventMask(LDD_TDeviceData *DeviceDataPtr, LDD_TEventMask EventMask)
{
    5c64:	b580      	push	{r7, lr}
    5c66:	b082      	sub	sp, #8
    5c68:	af00      	add	r7, sp, #0
    5c6a:	6078      	str	r0, [r7, #4]
    5c6c:	6039      	str	r1, [r7, #0]
/home/guilherme/Documents/GER-SDP/KDS/SDP-2016/Debug/../Generated_Code/TU1.c:281
  (void)DeviceDataPtr;                 /* Parameter is not used, suppress unused argument warning */
  /* Event mask test - this test can be disabled by setting the "Ignore range checking"
     property to the "yes" value in the "Configuration inspector" */
  if ((EventMask & ((LDD_TEventMask)~AVAILABLE_EVENTS_MASK)) != 0U) {
    5c6e:	683a      	ldr	r2, [r7, #0]
    5c70:	4b17      	ldr	r3, [pc, #92]	; (5cd0 <TU1_SetEventMask+0x6c>)
    5c72:	4013      	ands	r3, r2
    5c74:	d001      	beq.n	5c7a <TU1_SetEventMask+0x16>
/home/guilherme/Documents/GER-SDP/KDS/SDP-2016/Debug/../Generated_Code/TU1.c:282
    return ERR_PARAM_MASK;
    5c76:	2380      	movs	r3, #128	; 0x80
    5c78:	e025      	b.n	5cc6 <TU1_SetEventMask+0x62>
/home/guilherme/Documents/GER-SDP/KDS/SDP-2016/Debug/../Generated_Code/TU1.c:284
  }
  if ((EventMask & LDD_TIMERUNIT_ON_COUNTER_RESTART) != 0U) { /* Is the event enabled? */
    5c7a:	683a      	ldr	r2, [r7, #0]
    5c7c:	2380      	movs	r3, #128	; 0x80
    5c7e:	005b      	lsls	r3, r3, #1
    5c80:	4013      	ands	r3, r2
    5c82:	d013      	beq.n	5cac <TU1_SetEventMask+0x48>
/home/guilherme/Documents/GER-SDP/KDS/SDP-2016/Debug/../Generated_Code/TU1.c:285
    PIT_PDD_ClearInterruptFlag(PIT_BASE_PTR, PIT_PDD_CHANNEL_0); /* If yes then clear flag */
    5c84:	4a13      	ldr	r2, [pc, #76]	; (5cd4 <TU1_SetEventMask+0x70>)
    5c86:	2386      	movs	r3, #134	; 0x86
    5c88:	005b      	lsls	r3, r3, #1
    5c8a:	2101      	movs	r1, #1
    5c8c:	50d1      	str	r1, [r2, r3]
    5c8e:	4a11      	ldr	r2, [pc, #68]	; (5cd4 <TU1_SetEventMask+0x70>)
    5c90:	2380      	movs	r3, #128	; 0x80
    5c92:	005b      	lsls	r3, r3, #1
    5c94:	58d3      	ldr	r3, [r2, r3]
/home/guilherme/Documents/GER-SDP/KDS/SDP-2016/Debug/../Generated_Code/TU1.c:286
    PIT_PDD_EnableInterrupt(PIT_BASE_PTR, PIT_PDD_CHANNEL_0); /* and enable interrupt */
    5c96:	4a0f      	ldr	r2, [pc, #60]	; (5cd4 <TU1_SetEventMask+0x70>)
    5c98:	490e      	ldr	r1, [pc, #56]	; (5cd4 <TU1_SetEventMask+0x70>)
    5c9a:	2384      	movs	r3, #132	; 0x84
    5c9c:	005b      	lsls	r3, r3, #1
    5c9e:	58cb      	ldr	r3, [r1, r3]
    5ca0:	2102      	movs	r1, #2
    5ca2:	4319      	orrs	r1, r3
    5ca4:	2384      	movs	r3, #132	; 0x84
    5ca6:	005b      	lsls	r3, r3, #1
    5ca8:	50d1      	str	r1, [r2, r3]
    5caa:	e00b      	b.n	5cc4 <TU1_SetEventMask+0x60>
/home/guilherme/Documents/GER-SDP/KDS/SDP-2016/Debug/../Generated_Code/TU1.c:289
  }
  else {
    PIT_PDD_DisableInterrupt(PIT_BASE_PTR, PIT_PDD_CHANNEL_0); /* Disable PIT interrupt */
    5cac:	4a09      	ldr	r2, [pc, #36]	; (5cd4 <TU1_SetEventMask+0x70>)
    5cae:	4909      	ldr	r1, [pc, #36]	; (5cd4 <TU1_SetEventMask+0x70>)
    5cb0:	2384      	movs	r3, #132	; 0x84
    5cb2:	005b      	lsls	r3, r3, #1
    5cb4:	58cb      	ldr	r3, [r1, r3]
    5cb6:	2102      	movs	r1, #2
    5cb8:	1c18      	adds	r0, r3, #0
    5cba:	4388      	bics	r0, r1
    5cbc:	1c01      	adds	r1, r0, #0
    5cbe:	2384      	movs	r3, #132	; 0x84
    5cc0:	005b      	lsls	r3, r3, #1
    5cc2:	50d1      	str	r1, [r2, r3]
/home/guilherme/Documents/GER-SDP/KDS/SDP-2016/Debug/../Generated_Code/TU1.c:291
  }
  return ERR_OK;
    5cc4:	2300      	movs	r3, #0
/home/guilherme/Documents/GER-SDP/KDS/SDP-2016/Debug/../Generated_Code/TU1.c:292
}
    5cc6:	1c18      	adds	r0, r3, #0
    5cc8:	46bd      	mov	sp, r7
    5cca:	b002      	add	sp, #8
    5ccc:	bd80      	pop	{r7, pc}
    5cce:	46c0      	nop			; (mov r8, r8)
    5cd0:	fffffeff 	.word	0xfffffeff
    5cd4:	40037000 	.word	0x40037000

00005cd8 <TU1_Interrupt>:
TU1_Interrupt():
/home/guilherme/Documents/GER-SDP/KDS/SDP-2016/Debug/../Generated_Code/TU1.c:305
**         and eventually invokes event(s) of the component.
**         This method is internal. It is used by Processor Expert only.
** ===================================================================
*/
PE_ISR(TU1_Interrupt)
{
    5cd8:	b580      	push	{r7, lr}
    5cda:	b082      	sub	sp, #8
    5cdc:	af00      	add	r7, sp, #0
/home/guilherme/Documents/GER-SDP/KDS/SDP-2016/Debug/../Generated_Code/TU1.c:307
  /* {Default RTOS Adapter} ISR parameter is passed through the global variable */
  TU1_TDeviceDataPtr DeviceDataPrv = INT_PIT__DEFAULT_RTOS_ISRPARAM;
    5cde:	4b0a      	ldr	r3, [pc, #40]	; (5d08 <TU1_Interrupt+0x30>)
    5ce0:	681b      	ldr	r3, [r3, #0]
    5ce2:	607b      	str	r3, [r7, #4]
/home/guilherme/Documents/GER-SDP/KDS/SDP-2016/Debug/../Generated_Code/TU1.c:309

  PIT_PDD_ClearInterruptFlag(PIT_BASE_PTR, PIT_PDD_CHANNEL_0); /* Clear interrupt flag */
    5ce4:	4a09      	ldr	r2, [pc, #36]	; (5d0c <TU1_Interrupt+0x34>)
    5ce6:	2386      	movs	r3, #134	; 0x86
    5ce8:	005b      	lsls	r3, r3, #1
    5cea:	2101      	movs	r1, #1
    5cec:	50d1      	str	r1, [r2, r3]
    5cee:	4a07      	ldr	r2, [pc, #28]	; (5d0c <TU1_Interrupt+0x34>)
    5cf0:	2380      	movs	r3, #128	; 0x80
    5cf2:	005b      	lsls	r3, r3, #1
    5cf4:	58d3      	ldr	r3, [r2, r3]
/home/guilherme/Documents/GER-SDP/KDS/SDP-2016/Debug/../Generated_Code/TU1.c:310
  TU1_OnCounterRestart(DeviceDataPrv->UserDataPtr); /* Invoke OnCounterRestart event */
    5cf6:	687b      	ldr	r3, [r7, #4]
    5cf8:	685b      	ldr	r3, [r3, #4]
    5cfa:	1c18      	adds	r0, r3, #0
    5cfc:	f000 fa0a 	bl	6114 <TU1_OnCounterRestart>
/home/guilherme/Documents/GER-SDP/KDS/SDP-2016/Debug/../Generated_Code/TU1.c:311
}
    5d00:	46bd      	mov	sp, r7
    5d02:	b002      	add	sp, #8
    5d04:	bd80      	pop	{r7, pc}
    5d06:	46c0      	nop			; (mov r8, r8)
    5d08:	1ffff19c 	.word	0x1ffff19c
    5d0c:	40037000 	.word	0x40037000

00005d10 <TU2_Init>:
TU2_Init():
/home/guilherme/Documents/GER-SDP/KDS/SDP-2016/Debug/../Generated_Code/TU2.c:197
**                         - Pointer to the dynamically allocated private
**                           structure or NULL if there was an error.
*/
/* ===================================================================*/
LDD_TDeviceData* TU2_Init(LDD_TUserData *UserDataPtr)
{
    5d10:	b580      	push	{r7, lr}
    5d12:	b084      	sub	sp, #16
    5d14:	af00      	add	r7, sp, #0
    5d16:	6078      	str	r0, [r7, #4]
/home/guilherme/Documents/GER-SDP/KDS/SDP-2016/Debug/../Generated_Code/TU2.c:200
  TU2_TDeviceData *DeviceDataPrv;

  if (PE_LDD_DeviceDataList[PE_LDD_COMPONENT_TU2_ID] == NULL) {
    5d18:	4b42      	ldr	r3, [pc, #264]	; (5e24 <TU2_Init+0x114>)
    5d1a:	69db      	ldr	r3, [r3, #28]
    5d1c:	2b00      	cmp	r3, #0
    5d1e:	d16f      	bne.n	5e00 <TU2_Init+0xf0>
/home/guilherme/Documents/GER-SDP/KDS/SDP-2016/Debug/../Generated_Code/TU2.c:203
    /* Allocate device structure */
    /* {Default RTOS Adapter} Driver memory allocation: Dynamic allocation is simulated by a pointer to the static object */
    DeviceDataPrv = &DeviceDataPrv__DEFAULT_RTOS_ALLOC;
    5d20:	4b41      	ldr	r3, [pc, #260]	; (5e28 <TU2_Init+0x118>)
    5d22:	60fb      	str	r3, [r7, #12]
/home/guilherme/Documents/GER-SDP/KDS/SDP-2016/Debug/../Generated_Code/TU2.c:204
    DeviceDataPrv->UserDataPtr = UserDataPtr; /* Store the RTOS device structure */
    5d24:	68fb      	ldr	r3, [r7, #12]
    5d26:	687a      	ldr	r2, [r7, #4]
    5d28:	605a      	str	r2, [r3, #4]
/home/guilherme/Documents/GER-SDP/KDS/SDP-2016/Debug/../Generated_Code/TU2.c:205
    DeviceDataPrv->InitCntr = 1U;      /* First initialization */
    5d2a:	68fb      	ldr	r3, [r7, #12]
    5d2c:	2201      	movs	r2, #1
    5d2e:	701a      	strb	r2, [r3, #0]
/home/guilherme/Documents/GER-SDP/KDS/SDP-2016/Debug/../Generated_Code/TU2.c:215
    DeviceDataPrv->UserDataPtr = UserDataPtr; /* Store the RTOS device structure */
    DeviceDataPrv->InitCntr++;         /* Increment counter of initialization */
    return ((LDD_TDeviceData *)DeviceDataPrv); /* Return pointer to the device data structure */
  }
  /* SIM_SCGC6: TPM0=1 */
  SIM_SCGC6 |= SIM_SCGC6_TPM0_MASK;
    5d30:	4a3e      	ldr	r2, [pc, #248]	; (5e2c <TU2_Init+0x11c>)
    5d32:	493e      	ldr	r1, [pc, #248]	; (5e2c <TU2_Init+0x11c>)
    5d34:	4b3e      	ldr	r3, [pc, #248]	; (5e30 <TU2_Init+0x120>)
    5d36:	58cb      	ldr	r3, [r1, r3]
    5d38:	2180      	movs	r1, #128	; 0x80
    5d3a:	0449      	lsls	r1, r1, #17
    5d3c:	4319      	orrs	r1, r3
    5d3e:	4b3c      	ldr	r3, [pc, #240]	; (5e30 <TU2_Init+0x120>)
    5d40:	50d1      	str	r1, [r2, r3]
/home/guilherme/Documents/GER-SDP/KDS/SDP-2016/Debug/../Generated_Code/TU2.c:217
  /* TPM0_SC: ??=0,??=0,??=0,??=0,??=0,??=0,??=0,??=0,??=0,??=0,??=0,??=0,??=0,??=0,??=0,??=0,??=0,??=0,??=0,??=0,??=0,??=0,??=0,DMA=0,TOF=0,TOIE=0,CPWMS=0,CMOD=0,PS=0 */
  TPM0_SC = (TPM_SC_CMOD(0x00) | TPM_SC_PS(0x00)); /* Clear status and control register */
    5d42:	4b3c      	ldr	r3, [pc, #240]	; (5e34 <TU2_Init+0x124>)
    5d44:	2200      	movs	r2, #0
    5d46:	601a      	str	r2, [r3, #0]
/home/guilherme/Documents/GER-SDP/KDS/SDP-2016/Debug/../Generated_Code/TU2.c:219
  /* TPM0_CNT: ??=0,??=0,??=0,??=0,??=0,??=0,??=0,??=0,??=0,??=0,??=0,??=0,??=0,??=0,??=0,??=0,COUNT=0 */
  TPM0_CNT = TPM_CNT_COUNT(0x00);      /* Reset counter register */
    5d48:	4b3a      	ldr	r3, [pc, #232]	; (5e34 <TU2_Init+0x124>)
    5d4a:	2200      	movs	r2, #0
    5d4c:	605a      	str	r2, [r3, #4]
/home/guilherme/Documents/GER-SDP/KDS/SDP-2016/Debug/../Generated_Code/TU2.c:221
  /* TPM0_C0SC: ??=0,??=0,??=0,??=0,??=0,??=0,??=0,??=0,??=0,??=0,??=0,??=0,??=0,??=0,??=0,??=0,??=0,??=0,??=0,??=0,??=0,??=0,??=0,??=0,CHF=0,CHIE=0,MSB=0,MSA=0,ELSB=0,ELSA=0,??=0,DMA=0 */
  TPM0_C0SC = 0x00U;                   /* Clear channel status and control register */
    5d4e:	4b39      	ldr	r3, [pc, #228]	; (5e34 <TU2_Init+0x124>)
    5d50:	2200      	movs	r2, #0
    5d52:	60da      	str	r2, [r3, #12]
/home/guilherme/Documents/GER-SDP/KDS/SDP-2016/Debug/../Generated_Code/TU2.c:223
  /* TPM0_C1SC: ??=0,??=0,??=0,??=0,??=0,??=0,??=0,??=0,??=0,??=0,??=0,??=0,??=0,??=0,??=0,??=0,??=0,??=0,??=0,??=0,??=0,??=0,??=0,??=0,CHF=0,CHIE=0,MSB=0,MSA=0,ELSB=0,ELSA=0,??=0,DMA=0 */
  TPM0_C1SC = 0x00U;                   /* Clear channel status and control register */
    5d54:	4b37      	ldr	r3, [pc, #220]	; (5e34 <TU2_Init+0x124>)
    5d56:	2200      	movs	r2, #0
    5d58:	615a      	str	r2, [r3, #20]
/home/guilherme/Documents/GER-SDP/KDS/SDP-2016/Debug/../Generated_Code/TU2.c:225
  /* TPM0_C2SC: ??=0,??=0,??=0,??=0,??=0,??=0,??=0,??=0,??=0,??=0,??=0,??=0,??=0,??=0,??=0,??=0,??=0,??=0,??=0,??=0,??=0,??=0,??=0,??=0,CHF=0,CHIE=0,MSB=0,MSA=0,ELSB=0,ELSA=0,??=0,DMA=0 */
  TPM0_C2SC = 0x00U;                   /* Clear channel status and control register */
    5d5a:	4b36      	ldr	r3, [pc, #216]	; (5e34 <TU2_Init+0x124>)
    5d5c:	2200      	movs	r2, #0
    5d5e:	61da      	str	r2, [r3, #28]
/home/guilherme/Documents/GER-SDP/KDS/SDP-2016/Debug/../Generated_Code/TU2.c:227
  /* TPM0_C3SC: ??=0,??=0,??=0,??=0,??=0,??=0,??=0,??=0,??=0,??=0,??=0,??=0,??=0,??=0,??=0,??=0,??=0,??=0,??=0,??=0,??=0,??=0,??=0,??=0,CHF=0,CHIE=0,MSB=0,MSA=0,ELSB=0,ELSA=0,??=0,DMA=0 */
  TPM0_C3SC = 0x00U;                   /* Clear channel status and control register */
    5d60:	4b34      	ldr	r3, [pc, #208]	; (5e34 <TU2_Init+0x124>)
    5d62:	2200      	movs	r2, #0
    5d64:	625a      	str	r2, [r3, #36]	; 0x24
/home/guilherme/Documents/GER-SDP/KDS/SDP-2016/Debug/../Generated_Code/TU2.c:229
  /* TPM0_C4SC: ??=0,??=0,??=0,??=0,??=0,??=0,??=0,??=0,??=0,??=0,??=0,??=0,??=0,??=0,??=0,??=0,??=0,??=0,??=0,??=0,??=0,??=0,??=0,??=0,CHF=0,CHIE=0,MSB=0,MSA=0,ELSB=0,ELSA=0,??=0,DMA=0 */
  TPM0_C4SC = 0x00U;                   /* Clear channel status and control register */
    5d66:	4b33      	ldr	r3, [pc, #204]	; (5e34 <TU2_Init+0x124>)
    5d68:	2200      	movs	r2, #0
    5d6a:	62da      	str	r2, [r3, #44]	; 0x2c
/home/guilherme/Documents/GER-SDP/KDS/SDP-2016/Debug/../Generated_Code/TU2.c:231
  /* TPM0_C5SC: ??=0,??=0,??=0,??=0,??=0,??=0,??=0,??=0,??=0,??=0,??=0,??=0,??=0,??=0,??=0,??=0,??=0,??=0,??=0,??=0,??=0,??=0,??=0,??=0,CHF=0,CHIE=0,MSB=0,MSA=0,ELSB=0,ELSA=0,??=0,DMA=0 */
  TPM0_C5SC = 0x00U;                   /* Clear channel status and control register */
    5d6c:	4b31      	ldr	r3, [pc, #196]	; (5e34 <TU2_Init+0x124>)
    5d6e:	2200      	movs	r2, #0
    5d70:	635a      	str	r2, [r3, #52]	; 0x34
/home/guilherme/Documents/GER-SDP/KDS/SDP-2016/Debug/../Generated_Code/TU2.c:233
  /* TPM0_MOD: ??=0,??=0,??=0,??=0,??=0,??=0,??=0,??=0,??=0,??=0,??=0,??=0,??=0,??=0,??=0,??=0,MOD=0xFFFF */
  TPM0_MOD = TPM_MOD_MOD(0xFFFF);      /* Set up modulo register */
    5d72:	4b30      	ldr	r3, [pc, #192]	; (5e34 <TU2_Init+0x124>)
    5d74:	4a30      	ldr	r2, [pc, #192]	; (5e38 <TU2_Init+0x128>)
    5d76:	609a      	str	r2, [r3, #8]
/home/guilherme/Documents/GER-SDP/KDS/SDP-2016/Debug/../Generated_Code/TU2.c:235
  /* TPM0_C2SC: ??=0,??=0,??=0,??=0,??=0,??=0,??=0,??=0,??=0,??=0,??=0,??=0,??=0,??=0,??=0,??=0,??=0,??=0,??=0,??=0,??=0,??=0,??=0,??=0,CHF=0,CHIE=0,MSB=1,MSA=0,ELSB=1,ELSA=1,??=0,DMA=0 */
  TPM0_C2SC = (TPM_CnSC_MSB_MASK | TPM_CnSC_ELSB_MASK | TPM_CnSC_ELSA_MASK); /* Set up channel status and control register */
    5d78:	4b2e      	ldr	r3, [pc, #184]	; (5e34 <TU2_Init+0x124>)
    5d7a:	222c      	movs	r2, #44	; 0x2c
    5d7c:	61da      	str	r2, [r3, #28]
/home/guilherme/Documents/GER-SDP/KDS/SDP-2016/Debug/../Generated_Code/TU2.c:237
  /* TPM0_C2V: ??=0,??=0,??=0,??=0,??=0,??=0,??=0,??=0,??=0,??=0,??=0,??=0,??=0,??=0,??=0,??=0,VAL=0xFFFF */
  TPM0_C2V = TPM_CnV_VAL(0xFFFF);      /* Set up channel value register */
    5d7e:	4b2d      	ldr	r3, [pc, #180]	; (5e34 <TU2_Init+0x124>)
    5d80:	4a2d      	ldr	r2, [pc, #180]	; (5e38 <TU2_Init+0x128>)
    5d82:	621a      	str	r2, [r3, #32]
/home/guilherme/Documents/GER-SDP/KDS/SDP-2016/Debug/../Generated_Code/TU2.c:239
  /* TPM0_C3SC: ??=0,??=0,??=0,??=0,??=0,??=0,??=0,??=0,??=0,??=0,??=0,??=0,??=0,??=0,??=0,??=0,??=0,??=0,??=0,??=0,??=0,??=0,??=0,??=0,CHF=0,CHIE=0,MSB=1,MSA=0,ELSB=1,ELSA=1,??=0,DMA=0 */
  TPM0_C3SC = (TPM_CnSC_MSB_MASK | TPM_CnSC_ELSB_MASK | TPM_CnSC_ELSA_MASK); /* Set up channel status and control register */
    5d84:	4b2b      	ldr	r3, [pc, #172]	; (5e34 <TU2_Init+0x124>)
    5d86:	222c      	movs	r2, #44	; 0x2c
    5d88:	625a      	str	r2, [r3, #36]	; 0x24
/home/guilherme/Documents/GER-SDP/KDS/SDP-2016/Debug/../Generated_Code/TU2.c:241
  /* TPM0_C3V: ??=0,??=0,??=0,??=0,??=0,??=0,??=0,??=0,??=0,??=0,??=0,??=0,??=0,??=0,??=0,??=0,VAL=0xFFFF */
  TPM0_C3V = TPM_CnV_VAL(0xFFFF);      /* Set up channel value register */
    5d8a:	4b2a      	ldr	r3, [pc, #168]	; (5e34 <TU2_Init+0x124>)
    5d8c:	4a2a      	ldr	r2, [pc, #168]	; (5e38 <TU2_Init+0x128>)
    5d8e:	629a      	str	r2, [r3, #40]	; 0x28
/home/guilherme/Documents/GER-SDP/KDS/SDP-2016/Debug/../Generated_Code/TU2.c:243
  /* TPM0_C0SC: ??=0,??=0,??=0,??=0,??=0,??=0,??=0,??=0,??=0,??=0,??=0,??=0,??=0,??=0,??=0,??=0,??=0,??=0,??=0,??=0,??=0,??=0,??=0,??=0,CHF=0,CHIE=0,MSB=1,MSA=0,ELSB=1,ELSA=1,??=0,DMA=0 */
  TPM0_C0SC = (TPM_CnSC_MSB_MASK | TPM_CnSC_ELSB_MASK | TPM_CnSC_ELSA_MASK); /* Set up channel status and control register */
    5d90:	4b28      	ldr	r3, [pc, #160]	; (5e34 <TU2_Init+0x124>)
    5d92:	222c      	movs	r2, #44	; 0x2c
    5d94:	60da      	str	r2, [r3, #12]
/home/guilherme/Documents/GER-SDP/KDS/SDP-2016/Debug/../Generated_Code/TU2.c:245
  /* TPM0_C0V: ??=0,??=0,??=0,??=0,??=0,??=0,??=0,??=0,??=0,??=0,??=0,??=0,??=0,??=0,??=0,??=0,VAL=0xFFFF */
  TPM0_C0V = TPM_CnV_VAL(0xFFFF);      /* Set up channel value register */
    5d96:	4b27      	ldr	r3, [pc, #156]	; (5e34 <TU2_Init+0x124>)
    5d98:	4a27      	ldr	r2, [pc, #156]	; (5e38 <TU2_Init+0x128>)
    5d9a:	611a      	str	r2, [r3, #16]
/home/guilherme/Documents/GER-SDP/KDS/SDP-2016/Debug/../Generated_Code/TU2.c:247
  /* TPM0_C1SC: ??=0,??=0,??=0,??=0,??=0,??=0,??=0,??=0,??=0,??=0,??=0,??=0,??=0,??=0,??=0,??=0,??=0,??=0,??=0,??=0,??=0,??=0,??=0,??=0,CHF=0,CHIE=0,MSB=1,MSA=0,ELSB=1,ELSA=1,??=0,DMA=0 */
  TPM0_C1SC = (TPM_CnSC_MSB_MASK | TPM_CnSC_ELSB_MASK | TPM_CnSC_ELSA_MASK); /* Set up channel status and control register */
    5d9c:	4b25      	ldr	r3, [pc, #148]	; (5e34 <TU2_Init+0x124>)
    5d9e:	222c      	movs	r2, #44	; 0x2c
    5da0:	615a      	str	r2, [r3, #20]
/home/guilherme/Documents/GER-SDP/KDS/SDP-2016/Debug/../Generated_Code/TU2.c:249
  /* TPM0_C1V: ??=0,??=0,??=0,??=0,??=0,??=0,??=0,??=0,??=0,??=0,??=0,??=0,??=0,??=0,??=0,??=0,VAL=0xFFFF */
  TPM0_C1V = TPM_CnV_VAL(0xFFFF);      /* Set up channel value register */
    5da2:	4b24      	ldr	r3, [pc, #144]	; (5e34 <TU2_Init+0x124>)
    5da4:	4a24      	ldr	r2, [pc, #144]	; (5e38 <TU2_Init+0x128>)
    5da6:	619a      	str	r2, [r3, #24]
/home/guilherme/Documents/GER-SDP/KDS/SDP-2016/Debug/../Generated_Code/TU2.c:251
  /* PORTC_PCR3: ISF=0,MUX=4 */
  PORTC_PCR3 = (uint32_t)((PORTC_PCR3 & (uint32_t)~(uint32_t)(
    5da8:	4b24      	ldr	r3, [pc, #144]	; (5e3c <TU2_Init+0x12c>)
    5daa:	4a24      	ldr	r2, [pc, #144]	; (5e3c <TU2_Init+0x12c>)
    5dac:	68d1      	ldr	r1, [r2, #12]
    5dae:	4a24      	ldr	r2, [pc, #144]	; (5e40 <TU2_Init+0x130>)
    5db0:	400a      	ands	r2, r1
    5db2:	2180      	movs	r1, #128	; 0x80
    5db4:	00c9      	lsls	r1, r1, #3
    5db6:	430a      	orrs	r2, r1
    5db8:	60da      	str	r2, [r3, #12]
/home/guilherme/Documents/GER-SDP/KDS/SDP-2016/Debug/../Generated_Code/TU2.c:258
                PORT_PCR_MUX(0x03)
               )) | (uint32_t)(
                PORT_PCR_MUX(0x04)
               ));
  /* PORTC_PCR4: ISF=0,MUX=4 */
  PORTC_PCR4 = (uint32_t)((PORTC_PCR4 & (uint32_t)~(uint32_t)(
    5dba:	4b20      	ldr	r3, [pc, #128]	; (5e3c <TU2_Init+0x12c>)
    5dbc:	4a1f      	ldr	r2, [pc, #124]	; (5e3c <TU2_Init+0x12c>)
    5dbe:	6911      	ldr	r1, [r2, #16]
    5dc0:	4a1f      	ldr	r2, [pc, #124]	; (5e40 <TU2_Init+0x130>)
    5dc2:	400a      	ands	r2, r1
    5dc4:	2180      	movs	r1, #128	; 0x80
    5dc6:	00c9      	lsls	r1, r1, #3
    5dc8:	430a      	orrs	r2, r1
    5dca:	611a      	str	r2, [r3, #16]
/home/guilherme/Documents/GER-SDP/KDS/SDP-2016/Debug/../Generated_Code/TU2.c:265
                PORT_PCR_MUX(0x03)
               )) | (uint32_t)(
                PORT_PCR_MUX(0x04)
               ));
  /* PORTC_PCR1: ISF=0,MUX=4 */
  PORTC_PCR1 = (uint32_t)((PORTC_PCR1 & (uint32_t)~(uint32_t)(
    5dcc:	4b1b      	ldr	r3, [pc, #108]	; (5e3c <TU2_Init+0x12c>)
    5dce:	4a1b      	ldr	r2, [pc, #108]	; (5e3c <TU2_Init+0x12c>)
    5dd0:	6851      	ldr	r1, [r2, #4]
    5dd2:	4a1b      	ldr	r2, [pc, #108]	; (5e40 <TU2_Init+0x130>)
    5dd4:	400a      	ands	r2, r1
    5dd6:	2180      	movs	r1, #128	; 0x80
    5dd8:	00c9      	lsls	r1, r1, #3
    5dda:	430a      	orrs	r2, r1
    5ddc:	605a      	str	r2, [r3, #4]
/home/guilherme/Documents/GER-SDP/KDS/SDP-2016/Debug/../Generated_Code/TU2.c:272
                PORT_PCR_MUX(0x03)
               )) | (uint32_t)(
                PORT_PCR_MUX(0x04)
               ));
  /* PORTC_PCR2: ISF=0,MUX=4 */
  PORTC_PCR2 = (uint32_t)((PORTC_PCR2 & (uint32_t)~(uint32_t)(
    5dde:	4b17      	ldr	r3, [pc, #92]	; (5e3c <TU2_Init+0x12c>)
    5de0:	4a16      	ldr	r2, [pc, #88]	; (5e3c <TU2_Init+0x12c>)
    5de2:	6891      	ldr	r1, [r2, #8]
    5de4:	4a16      	ldr	r2, [pc, #88]	; (5e40 <TU2_Init+0x130>)
    5de6:	400a      	ands	r2, r1
    5de8:	2180      	movs	r1, #128	; 0x80
    5dea:	00c9      	lsls	r1, r1, #3
    5dec:	430a      	orrs	r2, r1
    5dee:	609a      	str	r2, [r3, #8]
/home/guilherme/Documents/GER-SDP/KDS/SDP-2016/Debug/../Generated_Code/TU2.c:279
                PORT_PCR_MUX(0x03)
               )) | (uint32_t)(
                PORT_PCR_MUX(0x04)
               ));
  /* TPM0_SC: ??=0,??=0,??=0,??=0,??=0,??=0,??=0,??=0,??=0,??=0,??=0,??=0,??=0,??=0,??=0,??=0,??=0,??=0,??=0,??=0,??=0,??=0,??=0,DMA=0,TOF=0,TOIE=0,CPWMS=0,CMOD=1,PS=3 */
  TPM0_SC = (TPM_SC_CMOD(0x01) | TPM_SC_PS(0x03)); /* Set up status and control register */
    5df0:	4b10      	ldr	r3, [pc, #64]	; (5e34 <TU2_Init+0x124>)
    5df2:	220b      	movs	r2, #11
    5df4:	601a      	str	r2, [r3, #0]
/home/guilherme/Documents/GER-SDP/KDS/SDP-2016/Debug/../Generated_Code/TU2.c:281
  /* Registration of the device structure */
  PE_LDD_RegisterDeviceStructure(PE_LDD_COMPONENT_TU2_ID,DeviceDataPrv);
    5df6:	4b0b      	ldr	r3, [pc, #44]	; (5e24 <TU2_Init+0x114>)
    5df8:	68fa      	ldr	r2, [r7, #12]
    5dfa:	61da      	str	r2, [r3, #28]
/home/guilherme/Documents/GER-SDP/KDS/SDP-2016/Debug/../Generated_Code/TU2.c:282
  return ((LDD_TDeviceData *)DeviceDataPrv); /* Return pointer to the device data structure */
    5dfc:	68fb      	ldr	r3, [r7, #12]
    5dfe:	e00c      	b.n	5e1a <TU2_Init+0x10a>
/home/guilherme/Documents/GER-SDP/KDS/SDP-2016/Debug/../Generated_Code/TU2.c:209
    DeviceDataPrv->UserDataPtr = UserDataPtr; /* Store the RTOS device structure */
    DeviceDataPrv->InitCntr = 1U;      /* First initialization */
  }
  else {
    /* Memory is already allocated */
    DeviceDataPrv = (TU2_TDeviceDataPtr) PE_LDD_DeviceDataList[PE_LDD_COMPONENT_TU2_ID];
    5e00:	4b08      	ldr	r3, [pc, #32]	; (5e24 <TU2_Init+0x114>)
    5e02:	69db      	ldr	r3, [r3, #28]
    5e04:	60fb      	str	r3, [r7, #12]
/home/guilherme/Documents/GER-SDP/KDS/SDP-2016/Debug/../Generated_Code/TU2.c:210
    DeviceDataPrv->UserDataPtr = UserDataPtr; /* Store the RTOS device structure */
    5e06:	68fb      	ldr	r3, [r7, #12]
    5e08:	687a      	ldr	r2, [r7, #4]
    5e0a:	605a      	str	r2, [r3, #4]
/home/guilherme/Documents/GER-SDP/KDS/SDP-2016/Debug/../Generated_Code/TU2.c:211
    DeviceDataPrv->InitCntr++;         /* Increment counter of initialization */
    5e0c:	68fb      	ldr	r3, [r7, #12]
    5e0e:	781b      	ldrb	r3, [r3, #0]
    5e10:	3301      	adds	r3, #1
    5e12:	b2da      	uxtb	r2, r3
    5e14:	68fb      	ldr	r3, [r7, #12]
    5e16:	701a      	strb	r2, [r3, #0]
/home/guilherme/Documents/GER-SDP/KDS/SDP-2016/Debug/../Generated_Code/TU2.c:212
    return ((LDD_TDeviceData *)DeviceDataPrv); /* Return pointer to the device data structure */
    5e18:	68fb      	ldr	r3, [r7, #12]
/home/guilherme/Documents/GER-SDP/KDS/SDP-2016/Debug/../Generated_Code/TU2.c:283
  /* TPM0_SC: ??=0,??=0,??=0,??=0,??=0,??=0,??=0,??=0,??=0,??=0,??=0,??=0,??=0,??=0,??=0,??=0,??=0,??=0,??=0,??=0,??=0,??=0,??=0,DMA=0,TOF=0,TOIE=0,CPWMS=0,CMOD=1,PS=3 */
  TPM0_SC = (TPM_SC_CMOD(0x01) | TPM_SC_PS(0x03)); /* Set up status and control register */
  /* Registration of the device structure */
  PE_LDD_RegisterDeviceStructure(PE_LDD_COMPONENT_TU2_ID,DeviceDataPrv);
  return ((LDD_TDeviceData *)DeviceDataPrv); /* Return pointer to the device data structure */
}
    5e1a:	1c18      	adds	r0, r3, #0
    5e1c:	46bd      	mov	sp, r7
    5e1e:	b004      	add	sp, #16
    5e20:	bd80      	pop	{r7, pc}
    5e22:	46c0      	nop			; (mov r8, r8)
    5e24:	1ffff0d8 	.word	0x1ffff0d8
    5e28:	1ffff1a0 	.word	0x1ffff1a0
    5e2c:	40047000 	.word	0x40047000
    5e30:	0000103c 	.word	0x0000103c
    5e34:	40038000 	.word	0x40038000
    5e38:	0000ffff 	.word	0x0000ffff
    5e3c:	4004b000 	.word	0x4004b000
    5e40:	fefff8ff 	.word	0xfefff8ff

00005e44 <TU2_GetPeriodTicks>:
TU2_GetPeriodTicks():
/home/guilherme/Documents/GER-SDP/KDS/SDP-2016/Debug/../Generated_Code/TU2.c:310
**                           ERR_SPEED - The component does not work in
**                           the active clock configuration
*/
/* ===================================================================*/
LDD_TError TU2_GetPeriodTicks(LDD_TDeviceData *DeviceDataPtr, TU2_TValueType *TicksPtr)
{
    5e44:	b580      	push	{r7, lr}
    5e46:	b084      	sub	sp, #16
    5e48:	af00      	add	r7, sp, #0
    5e4a:	6078      	str	r0, [r7, #4]
    5e4c:	6039      	str	r1, [r7, #0]
/home/guilherme/Documents/GER-SDP/KDS/SDP-2016/Debug/../Generated_Code/TU2.c:314
  uint16_t tmp;

  (void)DeviceDataPtr;                 /* Parameter is not used, suppress unused argument warning */
  tmp = (uint16_t)(TPM_PDD_ReadModuloReg(TPM0_BASE_PTR));
    5e4e:	4b0b      	ldr	r3, [pc, #44]	; (5e7c <TU2_GetPeriodTicks+0x38>)
    5e50:	689a      	ldr	r2, [r3, #8]
    5e52:	1c3b      	adds	r3, r7, #0
    5e54:	330e      	adds	r3, #14
    5e56:	801a      	strh	r2, [r3, #0]
/home/guilherme/Documents/GER-SDP/KDS/SDP-2016/Debug/../Generated_Code/TU2.c:315
  *TicksPtr = (TU2_TValueType)++tmp;
    5e58:	1c3b      	adds	r3, r7, #0
    5e5a:	330e      	adds	r3, #14
    5e5c:	1c3a      	adds	r2, r7, #0
    5e5e:	320e      	adds	r2, #14
    5e60:	8812      	ldrh	r2, [r2, #0]
    5e62:	3201      	adds	r2, #1
    5e64:	801a      	strh	r2, [r3, #0]
    5e66:	683b      	ldr	r3, [r7, #0]
    5e68:	1c3a      	adds	r2, r7, #0
    5e6a:	320e      	adds	r2, #14
    5e6c:	8812      	ldrh	r2, [r2, #0]
    5e6e:	801a      	strh	r2, [r3, #0]
/home/guilherme/Documents/GER-SDP/KDS/SDP-2016/Debug/../Generated_Code/TU2.c:316
  return ERR_OK;                       /* OK */
    5e70:	2300      	movs	r3, #0
/home/guilherme/Documents/GER-SDP/KDS/SDP-2016/Debug/../Generated_Code/TU2.c:317
}
    5e72:	1c18      	adds	r0, r3, #0
    5e74:	46bd      	mov	sp, r7
    5e76:	b004      	add	sp, #16
    5e78:	bd80      	pop	{r7, pc}
    5e7a:	46c0      	nop			; (mov r8, r8)
    5e7c:	40038000 	.word	0x40038000

00005e80 <TU2_SetOffsetTicks>:
TU2_SetOffsetTicks():
/home/guilherme/Documents/GER-SDP/KDS/SDP-2016/Debug/../Generated_Code/TU2.c:375
**                           ERR_SPEED - The component does not work in
**                           the active clock configuration
*/
/* ===================================================================*/
LDD_TError TU2_SetOffsetTicks(LDD_TDeviceData *DeviceDataPtr, uint8_t ChannelIdx, TU2_TValueType Ticks)
{
    5e80:	b580      	push	{r7, lr}
    5e82:	b082      	sub	sp, #8
    5e84:	af00      	add	r7, sp, #0
    5e86:	6078      	str	r0, [r7, #4]
    5e88:	1cfb      	adds	r3, r7, #3
    5e8a:	7019      	strb	r1, [r3, #0]
    5e8c:	1c3b      	adds	r3, r7, #0
    5e8e:	801a      	strh	r2, [r3, #0]
/home/guilherme/Documents/GER-SDP/KDS/SDP-2016/Debug/../Generated_Code/TU2.c:379
  (void)DeviceDataPtr;                 /* Parameter is not used, suppress unused argument warning */
  /* Parameter test - this test can be disabled by setting the "Ignore range checking"
     property to the "yes" value in the "Configuration inspector" */
  if (ChannelIdx > LAST_CHANNEL) {     /* Is the channel index out of range? */
    5e90:	1cfb      	adds	r3, r7, #3
    5e92:	781b      	ldrb	r3, [r3, #0]
    5e94:	2b03      	cmp	r3, #3
    5e96:	d901      	bls.n	5e9c <TU2_SetOffsetTicks+0x1c>
/home/guilherme/Documents/GER-SDP/KDS/SDP-2016/Debug/../Generated_Code/TU2.c:380
    return ERR_PARAM_INDEX;            /* If yes then error */
    5e98:	2382      	movs	r3, #130	; 0x82
    5e9a:	e013      	b.n	5ec4 <TU2_SetOffsetTicks+0x44>
/home/guilherme/Documents/GER-SDP/KDS/SDP-2016/Debug/../Generated_Code/TU2.c:382
  }
  if ((ChannelMode[ChannelIdx]) != 0U) { /* Is the channel in compare mode? */
    5e9c:	1cfb      	adds	r3, r7, #3
    5e9e:	781b      	ldrb	r3, [r3, #0]
    5ea0:	4a0a      	ldr	r2, [pc, #40]	; (5ecc <TU2_SetOffsetTicks+0x4c>)
    5ea2:	5cd3      	ldrb	r3, [r2, r3]
    5ea4:	2b00      	cmp	r3, #0
    5ea6:	d001      	beq.n	5eac <TU2_SetOffsetTicks+0x2c>
/home/guilherme/Documents/GER-SDP/KDS/SDP-2016/Debug/../Generated_Code/TU2.c:383
    return ERR_NOTAVAIL;               /* If not then error */
    5ea8:	2309      	movs	r3, #9
    5eaa:	e00b      	b.n	5ec4 <TU2_SetOffsetTicks+0x44>
/home/guilherme/Documents/GER-SDP/KDS/SDP-2016/Debug/../Generated_Code/TU2.c:385
  }
  TPM_PDD_WriteChannelValueReg(TPM0_BASE_PTR, ChannelDevice[ChannelIdx], (uint16_t)Ticks);
    5eac:	4908      	ldr	r1, [pc, #32]	; (5ed0 <TU2_SetOffsetTicks+0x50>)
    5eae:	1cfb      	adds	r3, r7, #3
    5eb0:	781b      	ldrb	r3, [r3, #0]
    5eb2:	4a08      	ldr	r2, [pc, #32]	; (5ed4 <TU2_SetOffsetTicks+0x54>)
    5eb4:	5cd3      	ldrb	r3, [r2, r3]
    5eb6:	1c3a      	adds	r2, r7, #0
    5eb8:	8812      	ldrh	r2, [r2, #0]
    5eba:	3301      	adds	r3, #1
    5ebc:	00db      	lsls	r3, r3, #3
    5ebe:	18cb      	adds	r3, r1, r3
    5ec0:	609a      	str	r2, [r3, #8]
/home/guilherme/Documents/GER-SDP/KDS/SDP-2016/Debug/../Generated_Code/TU2.c:386
  return ERR_OK;                       /* OK */
    5ec2:	2300      	movs	r3, #0
/home/guilherme/Documents/GER-SDP/KDS/SDP-2016/Debug/../Generated_Code/TU2.c:387
}
    5ec4:	1c18      	adds	r0, r3, #0
    5ec6:	46bd      	mov	sp, r7
    5ec8:	b002      	add	sp, #8
    5eca:	bd80      	pop	{r7, pc}
    5ecc:	000062f8 	.word	0x000062f8
    5ed0:	40038000 	.word	0x40038000
    5ed4:	000062f4 	.word	0x000062f4

00005ed8 <TU3_Init>:
TU3_Init():
/home/guilherme/Documents/GER-SDP/KDS/SDP-2016/Debug/../Generated_Code/TU3.c:171
**                         - Pointer to the dynamically allocated private
**                           structure or NULL if there was an error.
*/
/* ===================================================================*/
LDD_TDeviceData* TU3_Init(LDD_TUserData *UserDataPtr)
{
    5ed8:	b580      	push	{r7, lr}
    5eda:	b084      	sub	sp, #16
    5edc:	af00      	add	r7, sp, #0
    5ede:	6078      	str	r0, [r7, #4]
/home/guilherme/Documents/GER-SDP/KDS/SDP-2016/Debug/../Generated_Code/TU3.c:174
  TU3_TDeviceData *DeviceDataPrv;

  if (PE_LDD_DeviceDataList[PE_LDD_COMPONENT_TU3_ID] == NULL) {
    5ee0:	4b27      	ldr	r3, [pc, #156]	; (5f80 <TU3_Init+0xa8>)
    5ee2:	6b1b      	ldr	r3, [r3, #48]	; 0x30
    5ee4:	2b00      	cmp	r3, #0
    5ee6:	d139      	bne.n	5f5c <TU3_Init+0x84>
/home/guilherme/Documents/GER-SDP/KDS/SDP-2016/Debug/../Generated_Code/TU3.c:177
    /* Allocate device structure */
    /* {Default RTOS Adapter} Driver memory allocation: Dynamic allocation is simulated by a pointer to the static object */
    DeviceDataPrv = &DeviceDataPrv__DEFAULT_RTOS_ALLOC;
    5ee8:	4b26      	ldr	r3, [pc, #152]	; (5f84 <TU3_Init+0xac>)
    5eea:	60fb      	str	r3, [r7, #12]
/home/guilherme/Documents/GER-SDP/KDS/SDP-2016/Debug/../Generated_Code/TU3.c:178
    DeviceDataPrv->UserDataPtr = UserDataPtr; /* Store the RTOS device structure */
    5eec:	68fb      	ldr	r3, [r7, #12]
    5eee:	687a      	ldr	r2, [r7, #4]
    5ef0:	609a      	str	r2, [r3, #8]
/home/guilherme/Documents/GER-SDP/KDS/SDP-2016/Debug/../Generated_Code/TU3.c:179
    DeviceDataPrv->InitCntr = 1U;      /* First initialization */
    5ef2:	68fb      	ldr	r3, [r7, #12]
    5ef4:	2201      	movs	r2, #1
    5ef6:	711a      	strb	r2, [r3, #4]
/home/guilherme/Documents/GER-SDP/KDS/SDP-2016/Debug/../Generated_Code/TU3.c:189
    DeviceDataPrv->UserDataPtr = UserDataPtr; /* Store the RTOS device structure */
    DeviceDataPrv->InitCntr++;         /* Increment counter of initialization */
    return ((LDD_TDeviceData *)DeviceDataPrv); /* Return pointer to the device data structure */
  }
  /* SIM_SCGC6: TPM1=1 */
  SIM_SCGC6 |= SIM_SCGC6_TPM1_MASK;
    5ef8:	4a23      	ldr	r2, [pc, #140]	; (5f88 <TU3_Init+0xb0>)
    5efa:	4923      	ldr	r1, [pc, #140]	; (5f88 <TU3_Init+0xb0>)
    5efc:	4b23      	ldr	r3, [pc, #140]	; (5f8c <TU3_Init+0xb4>)
    5efe:	58cb      	ldr	r3, [r1, r3]
    5f00:	2180      	movs	r1, #128	; 0x80
    5f02:	0489      	lsls	r1, r1, #18
    5f04:	4319      	orrs	r1, r3
    5f06:	4b21      	ldr	r3, [pc, #132]	; (5f8c <TU3_Init+0xb4>)
    5f08:	50d1      	str	r1, [r2, r3]
/home/guilherme/Documents/GER-SDP/KDS/SDP-2016/Debug/../Generated_Code/TU3.c:191
  /* TPM1_SC: ??=0,??=0,??=0,??=0,??=0,??=0,??=0,??=0,??=0,??=0,??=0,??=0,??=0,??=0,??=0,??=0,??=0,??=0,??=0,??=0,??=0,??=0,??=0,DMA=0,TOF=0,TOIE=0,CPWMS=0,CMOD=0,PS=0 */
  TPM1_SC = (TPM_SC_CMOD(0x00) | TPM_SC_PS(0x00)); /* Clear status and control register */
    5f0a:	4b21      	ldr	r3, [pc, #132]	; (5f90 <TU3_Init+0xb8>)
    5f0c:	2200      	movs	r2, #0
    5f0e:	601a      	str	r2, [r3, #0]
/home/guilherme/Documents/GER-SDP/KDS/SDP-2016/Debug/../Generated_Code/TU3.c:193
  /* TPM1_CNT: ??=0,??=0,??=0,??=0,??=0,??=0,??=0,??=0,??=0,??=0,??=0,??=0,??=0,??=0,??=0,??=0,COUNT=0 */
  TPM1_CNT = TPM_CNT_COUNT(0x00);      /* Reset counter register */
    5f10:	4b1f      	ldr	r3, [pc, #124]	; (5f90 <TU3_Init+0xb8>)
    5f12:	2200      	movs	r2, #0
    5f14:	605a      	str	r2, [r3, #4]
/home/guilherme/Documents/GER-SDP/KDS/SDP-2016/Debug/../Generated_Code/TU3.c:195
  /* TPM1_C0SC: ??=0,??=0,??=0,??=0,??=0,??=0,??=0,??=0,??=0,??=0,??=0,??=0,??=0,??=0,??=0,??=0,??=0,??=0,??=0,??=0,??=0,??=0,??=0,??=0,CHF=0,CHIE=0,MSB=0,MSA=0,ELSB=0,ELSA=0,??=0,DMA=0 */
  TPM1_C0SC = 0x00U;                   /* Clear channel status and control register */
    5f16:	4b1e      	ldr	r3, [pc, #120]	; (5f90 <TU3_Init+0xb8>)
    5f18:	2200      	movs	r2, #0
    5f1a:	60da      	str	r2, [r3, #12]
/home/guilherme/Documents/GER-SDP/KDS/SDP-2016/Debug/../Generated_Code/TU3.c:197
  /* TPM1_C1SC: ??=0,??=0,??=0,??=0,??=0,??=0,??=0,??=0,??=0,??=0,??=0,??=0,??=0,??=0,??=0,??=0,??=0,??=0,??=0,??=0,??=0,??=0,??=0,??=0,CHF=0,CHIE=0,MSB=0,MSA=0,ELSB=0,ELSA=0,??=0,DMA=0 */
  TPM1_C1SC = 0x00U;                   /* Clear channel status and control register */
    5f1c:	4b1c      	ldr	r3, [pc, #112]	; (5f90 <TU3_Init+0xb8>)
    5f1e:	2200      	movs	r2, #0
    5f20:	615a      	str	r2, [r3, #20]
/home/guilherme/Documents/GER-SDP/KDS/SDP-2016/Debug/../Generated_Code/TU3.c:199
  /* TPM1_MOD: ??=0,??=0,??=0,??=0,??=0,??=0,??=0,??=0,??=0,??=0,??=0,??=0,??=0,??=0,??=0,??=0,MOD=0xCCCC */
  TPM1_MOD = TPM_MOD_MOD(0xCCCC);      /* Set up modulo register */
    5f22:	4b1b      	ldr	r3, [pc, #108]	; (5f90 <TU3_Init+0xb8>)
    5f24:	4a1b      	ldr	r2, [pc, #108]	; (5f94 <TU3_Init+0xbc>)
    5f26:	609a      	str	r2, [r3, #8]
/home/guilherme/Documents/GER-SDP/KDS/SDP-2016/Debug/../Generated_Code/TU3.c:201
  /* TPM1_C0SC: ??=0,??=0,??=0,??=0,??=0,??=0,??=0,??=0,??=0,??=0,??=0,??=0,??=0,??=0,??=0,??=0,??=0,??=0,??=0,??=0,??=0,??=0,??=0,??=0,CHF=0,CHIE=0,MSB=1,MSA=0,ELSB=1,ELSA=1,??=0,DMA=0 */
  TPM1_C0SC = (TPM_CnSC_MSB_MASK | TPM_CnSC_ELSB_MASK | TPM_CnSC_ELSA_MASK); /* Set up channel status and control register */
    5f28:	4b19      	ldr	r3, [pc, #100]	; (5f90 <TU3_Init+0xb8>)
    5f2a:	222c      	movs	r2, #44	; 0x2c
    5f2c:	60da      	str	r2, [r3, #12]
/home/guilherme/Documents/GER-SDP/KDS/SDP-2016/Debug/../Generated_Code/TU3.c:203
  /* TPM1_C0V: ??=0,??=0,??=0,??=0,??=0,??=0,??=0,??=0,??=0,??=0,??=0,??=0,??=0,??=0,??=0,??=0,VAL=0xBDF4 */
  TPM1_C0V = TPM_CnV_VAL(0xBDF4);      /* Set up channel value register */
    5f2e:	4b18      	ldr	r3, [pc, #96]	; (5f90 <TU3_Init+0xb8>)
    5f30:	4a19      	ldr	r2, [pc, #100]	; (5f98 <TU3_Init+0xc0>)
    5f32:	611a      	str	r2, [r3, #16]
/home/guilherme/Documents/GER-SDP/KDS/SDP-2016/Debug/../Generated_Code/TU3.c:205
  /* PORTB_PCR0: ISF=0,MUX=3 */
  PORTB_PCR0 = (uint32_t)((PORTB_PCR0 & (uint32_t)~(uint32_t)(
    5f34:	4b19      	ldr	r3, [pc, #100]	; (5f9c <TU3_Init+0xc4>)
    5f36:	4a19      	ldr	r2, [pc, #100]	; (5f9c <TU3_Init+0xc4>)
    5f38:	6811      	ldr	r1, [r2, #0]
    5f3a:	4a19      	ldr	r2, [pc, #100]	; (5fa0 <TU3_Init+0xc8>)
    5f3c:	400a      	ands	r2, r1
    5f3e:	21c0      	movs	r1, #192	; 0xc0
    5f40:	0089      	lsls	r1, r1, #2
    5f42:	430a      	orrs	r2, r1
    5f44:	601a      	str	r2, [r3, #0]
/home/guilherme/Documents/GER-SDP/KDS/SDP-2016/Debug/../Generated_Code/TU3.c:211
                PORT_PCR_ISF_MASK |
                PORT_PCR_MUX(0x04)
               )) | (uint32_t)(
                PORT_PCR_MUX(0x03)
               ));
  DeviceDataPrv->Source = TPM_PDD_SYSTEM; /* Store clock source */
    5f46:	68fb      	ldr	r3, [r7, #12]
    5f48:	2208      	movs	r2, #8
    5f4a:	601a      	str	r2, [r3, #0]
/home/guilherme/Documents/GER-SDP/KDS/SDP-2016/Debug/../Generated_Code/TU3.c:213
  /* TPM1_SC: ??=0,??=0,??=0,??=0,??=0,??=0,??=0,??=0,??=0,??=0,??=0,??=0,??=0,??=0,??=0,??=0,??=0,??=0,??=0,??=0,??=0,??=0,??=0,DMA=0,TOF=0,TOIE=0,CPWMS=0,CMOD=0,PS=3 */
  TPM1_SC = (TPM_SC_CMOD(0x00) | TPM_SC_PS(0x03)); /* Set up status and control register */
    5f4c:	4b10      	ldr	r3, [pc, #64]	; (5f90 <TU3_Init+0xb8>)
    5f4e:	2203      	movs	r2, #3
    5f50:	601a      	str	r2, [r3, #0]
/home/guilherme/Documents/GER-SDP/KDS/SDP-2016/Debug/../Generated_Code/TU3.c:215
  /* Registration of the device structure */
  PE_LDD_RegisterDeviceStructure(PE_LDD_COMPONENT_TU3_ID,DeviceDataPrv);
    5f52:	4b0b      	ldr	r3, [pc, #44]	; (5f80 <TU3_Init+0xa8>)
    5f54:	68fa      	ldr	r2, [r7, #12]
    5f56:	631a      	str	r2, [r3, #48]	; 0x30
/home/guilherme/Documents/GER-SDP/KDS/SDP-2016/Debug/../Generated_Code/TU3.c:216
  return ((LDD_TDeviceData *)DeviceDataPrv); /* Return pointer to the device data structure */
    5f58:	68fb      	ldr	r3, [r7, #12]
    5f5a:	e00c      	b.n	5f76 <TU3_Init+0x9e>
/home/guilherme/Documents/GER-SDP/KDS/SDP-2016/Debug/../Generated_Code/TU3.c:183
    DeviceDataPrv->UserDataPtr = UserDataPtr; /* Store the RTOS device structure */
    DeviceDataPrv->InitCntr = 1U;      /* First initialization */
  }
  else {
    /* Memory is already allocated */
    DeviceDataPrv = (TU3_TDeviceDataPtr) PE_LDD_DeviceDataList[PE_LDD_COMPONENT_TU3_ID];
    5f5c:	4b08      	ldr	r3, [pc, #32]	; (5f80 <TU3_Init+0xa8>)
    5f5e:	6b1b      	ldr	r3, [r3, #48]	; 0x30
    5f60:	60fb      	str	r3, [r7, #12]
/home/guilherme/Documents/GER-SDP/KDS/SDP-2016/Debug/../Generated_Code/TU3.c:184
    DeviceDataPrv->UserDataPtr = UserDataPtr; /* Store the RTOS device structure */
    5f62:	68fb      	ldr	r3, [r7, #12]
    5f64:	687a      	ldr	r2, [r7, #4]
    5f66:	609a      	str	r2, [r3, #8]
/home/guilherme/Documents/GER-SDP/KDS/SDP-2016/Debug/../Generated_Code/TU3.c:185
    DeviceDataPrv->InitCntr++;         /* Increment counter of initialization */
    5f68:	68fb      	ldr	r3, [r7, #12]
    5f6a:	791b      	ldrb	r3, [r3, #4]
    5f6c:	3301      	adds	r3, #1
    5f6e:	b2da      	uxtb	r2, r3
    5f70:	68fb      	ldr	r3, [r7, #12]
    5f72:	711a      	strb	r2, [r3, #4]
/home/guilherme/Documents/GER-SDP/KDS/SDP-2016/Debug/../Generated_Code/TU3.c:186
    return ((LDD_TDeviceData *)DeviceDataPrv); /* Return pointer to the device data structure */
    5f74:	68fb      	ldr	r3, [r7, #12]
/home/guilherme/Documents/GER-SDP/KDS/SDP-2016/Debug/../Generated_Code/TU3.c:217
  /* TPM1_SC: ??=0,??=0,??=0,??=0,??=0,??=0,??=0,??=0,??=0,??=0,??=0,??=0,??=0,??=0,??=0,??=0,??=0,??=0,??=0,??=0,??=0,??=0,??=0,DMA=0,TOF=0,TOIE=0,CPWMS=0,CMOD=0,PS=3 */
  TPM1_SC = (TPM_SC_CMOD(0x00) | TPM_SC_PS(0x03)); /* Set up status and control register */
  /* Registration of the device structure */
  PE_LDD_RegisterDeviceStructure(PE_LDD_COMPONENT_TU3_ID,DeviceDataPrv);
  return ((LDD_TDeviceData *)DeviceDataPrv); /* Return pointer to the device data structure */
}
    5f76:	1c18      	adds	r0, r3, #0
    5f78:	46bd      	mov	sp, r7
    5f7a:	b004      	add	sp, #16
    5f7c:	bd80      	pop	{r7, pc}
    5f7e:	46c0      	nop			; (mov r8, r8)
    5f80:	1ffff0d8 	.word	0x1ffff0d8
    5f84:	1ffff1a8 	.word	0x1ffff1a8
    5f88:	40047000 	.word	0x40047000
    5f8c:	0000103c 	.word	0x0000103c
    5f90:	40039000 	.word	0x40039000
    5f94:	0000cccc 	.word	0x0000cccc
    5f98:	0000bdf4 	.word	0x0000bdf4
    5f9c:	4004a000 	.word	0x4004a000
    5fa0:	fefff8ff 	.word	0xfefff8ff

00005fa4 <TU3_Enable>:
TU3_Enable():
/home/guilherme/Documents/GER-SDP/KDS/SDP-2016/Debug/../Generated_Code/TU3.c:239
**                           ERR_SPEED - The component does not work in
**                           the active clock configuration
*/
/* ===================================================================*/
LDD_TError TU3_Enable(LDD_TDeviceData *DeviceDataPtr)
{
    5fa4:	b580      	push	{r7, lr}
    5fa6:	b084      	sub	sp, #16
    5fa8:	af00      	add	r7, sp, #0
    5faa:	6078      	str	r0, [r7, #4]
/home/guilherme/Documents/GER-SDP/KDS/SDP-2016/Debug/../Generated_Code/TU3.c:240
  TU3_TDeviceData *DeviceDataPrv = (TU3_TDeviceData *)DeviceDataPtr;
    5fac:	687b      	ldr	r3, [r7, #4]
    5fae:	60fb      	str	r3, [r7, #12]
/home/guilherme/Documents/GER-SDP/KDS/SDP-2016/Debug/../Generated_Code/TU3.c:242

  TPM_PDD_SelectPrescalerSource(TPM1_BASE_PTR, DeviceDataPrv->Source); /* Enable the device */
    5fb0:	4b07      	ldr	r3, [pc, #28]	; (5fd0 <TU3_Enable+0x2c>)
    5fb2:	4a07      	ldr	r2, [pc, #28]	; (5fd0 <TU3_Enable+0x2c>)
    5fb4:	6812      	ldr	r2, [r2, #0]
    5fb6:	2198      	movs	r1, #152	; 0x98
    5fb8:	1c10      	adds	r0, r2, #0
    5fba:	4388      	bics	r0, r1
    5fbc:	1c01      	adds	r1, r0, #0
    5fbe:	68fa      	ldr	r2, [r7, #12]
    5fc0:	6812      	ldr	r2, [r2, #0]
    5fc2:	430a      	orrs	r2, r1
    5fc4:	601a      	str	r2, [r3, #0]
/home/guilherme/Documents/GER-SDP/KDS/SDP-2016/Debug/../Generated_Code/TU3.c:243
  return ERR_OK;
    5fc6:	2300      	movs	r3, #0
/home/guilherme/Documents/GER-SDP/KDS/SDP-2016/Debug/../Generated_Code/TU3.c:244
}
    5fc8:	1c18      	adds	r0, r3, #0
    5fca:	46bd      	mov	sp, r7
    5fcc:	b004      	add	sp, #16
    5fce:	bd80      	pop	{r7, pc}
    5fd0:	40039000 	.word	0x40039000

00005fd4 <TU3_GetPeriodTicks>:
TU3_GetPeriodTicks():
/home/guilherme/Documents/GER-SDP/KDS/SDP-2016/Debug/../Generated_Code/TU3.c:297
**                           ERR_SPEED - The component does not work in
**                           the active clock configuration
*/
/* ===================================================================*/
LDD_TError TU3_GetPeriodTicks(LDD_TDeviceData *DeviceDataPtr, TU3_TValueType *TicksPtr)
{
    5fd4:	b580      	push	{r7, lr}
    5fd6:	b084      	sub	sp, #16
    5fd8:	af00      	add	r7, sp, #0
    5fda:	6078      	str	r0, [r7, #4]
    5fdc:	6039      	str	r1, [r7, #0]
/home/guilherme/Documents/GER-SDP/KDS/SDP-2016/Debug/../Generated_Code/TU3.c:301
  uint16_t tmp;

  (void)DeviceDataPtr;                 /* Parameter is not used, suppress unused argument warning */
  tmp = (uint16_t)(TPM_PDD_ReadModuloReg(TPM1_BASE_PTR));
    5fde:	4b0b      	ldr	r3, [pc, #44]	; (600c <TU3_GetPeriodTicks+0x38>)
    5fe0:	689a      	ldr	r2, [r3, #8]
    5fe2:	1c3b      	adds	r3, r7, #0
    5fe4:	330e      	adds	r3, #14
    5fe6:	801a      	strh	r2, [r3, #0]
/home/guilherme/Documents/GER-SDP/KDS/SDP-2016/Debug/../Generated_Code/TU3.c:302
  *TicksPtr = (TU3_TValueType)++tmp;
    5fe8:	1c3b      	adds	r3, r7, #0
    5fea:	330e      	adds	r3, #14
    5fec:	1c3a      	adds	r2, r7, #0
    5fee:	320e      	adds	r2, #14
    5ff0:	8812      	ldrh	r2, [r2, #0]
    5ff2:	3201      	adds	r2, #1
    5ff4:	801a      	strh	r2, [r3, #0]
    5ff6:	683b      	ldr	r3, [r7, #0]
    5ff8:	1c3a      	adds	r2, r7, #0
    5ffa:	320e      	adds	r2, #14
    5ffc:	8812      	ldrh	r2, [r2, #0]
    5ffe:	801a      	strh	r2, [r3, #0]
/home/guilherme/Documents/GER-SDP/KDS/SDP-2016/Debug/../Generated_Code/TU3.c:303
  return ERR_OK;                       /* OK */
    6000:	2300      	movs	r3, #0
/home/guilherme/Documents/GER-SDP/KDS/SDP-2016/Debug/../Generated_Code/TU3.c:304
}
    6002:	1c18      	adds	r0, r3, #0
    6004:	46bd      	mov	sp, r7
    6006:	b004      	add	sp, #16
    6008:	bd80      	pop	{r7, pc}
    600a:	46c0      	nop			; (mov r8, r8)
    600c:	40039000 	.word	0x40039000

00006010 <TU3_SetOffsetTicks>:
TU3_SetOffsetTicks():
/home/guilherme/Documents/GER-SDP/KDS/SDP-2016/Debug/../Generated_Code/TU3.c:390
**                           ERR_SPEED - The component does not work in
**                           the active clock configuration
*/
/* ===================================================================*/
LDD_TError TU3_SetOffsetTicks(LDD_TDeviceData *DeviceDataPtr, uint8_t ChannelIdx, TU3_TValueType Ticks)
{
    6010:	b580      	push	{r7, lr}
    6012:	b082      	sub	sp, #8
    6014:	af00      	add	r7, sp, #0
    6016:	6078      	str	r0, [r7, #4]
    6018:	1cfb      	adds	r3, r7, #3
    601a:	7019      	strb	r1, [r3, #0]
    601c:	1c3b      	adds	r3, r7, #0
    601e:	801a      	strh	r2, [r3, #0]
/home/guilherme/Documents/GER-SDP/KDS/SDP-2016/Debug/../Generated_Code/TU3.c:394
  (void)DeviceDataPtr;                 /* Parameter is not used, suppress unused argument warning */
  /* Parameter test - this test can be disabled by setting the "Ignore range checking"
     property to the "yes" value in the "Configuration inspector" */
  if (ChannelIdx > LAST_CHANNEL) {     /* Is the channel index out of range? */
    6020:	1cfb      	adds	r3, r7, #3
    6022:	781b      	ldrb	r3, [r3, #0]
    6024:	2b00      	cmp	r3, #0
    6026:	d001      	beq.n	602c <TU3_SetOffsetTicks+0x1c>
/home/guilherme/Documents/GER-SDP/KDS/SDP-2016/Debug/../Generated_Code/TU3.c:395
    return ERR_PARAM_INDEX;            /* If yes then error */
    6028:	2382      	movs	r3, #130	; 0x82
    602a:	e00d      	b.n	6048 <TU3_SetOffsetTicks+0x38>
/home/guilherme/Documents/GER-SDP/KDS/SDP-2016/Debug/../Generated_Code/TU3.c:397
  }
  if ((ChannelMode[ChannelIdx]) != 0U) { /* Is the channel in compare mode? */
    602c:	2300      	movs	r3, #0
    602e:	2b00      	cmp	r3, #0
    6030:	d001      	beq.n	6036 <TU3_SetOffsetTicks+0x26>
/home/guilherme/Documents/GER-SDP/KDS/SDP-2016/Debug/../Generated_Code/TU3.c:398
    return ERR_NOTAVAIL;               /* If not then error */
    6032:	2309      	movs	r3, #9
    6034:	e008      	b.n	6048 <TU3_SetOffsetTicks+0x38>
/home/guilherme/Documents/GER-SDP/KDS/SDP-2016/Debug/../Generated_Code/TU3.c:400
  }
  TPM_PDD_WriteChannelValueReg(TPM1_BASE_PTR, ChannelDevice[ChannelIdx], (uint16_t)Ticks);
    6036:	4906      	ldr	r1, [pc, #24]	; (6050 <TU3_SetOffsetTicks+0x40>)
    6038:	2300      	movs	r3, #0
    603a:	1c3a      	adds	r2, r7, #0
    603c:	8812      	ldrh	r2, [r2, #0]
    603e:	3301      	adds	r3, #1
    6040:	00db      	lsls	r3, r3, #3
    6042:	18cb      	adds	r3, r1, r3
    6044:	609a      	str	r2, [r3, #8]
/home/guilherme/Documents/GER-SDP/KDS/SDP-2016/Debug/../Generated_Code/TU3.c:401
  return ERR_OK;                       /* OK */
    6046:	2300      	movs	r3, #0
/home/guilherme/Documents/GER-SDP/KDS/SDP-2016/Debug/../Generated_Code/TU3.c:402
}
    6048:	1c18      	adds	r0, r3, #0
    604a:	46bd      	mov	sp, r7
    604c:	b002      	add	sp, #8
    604e:	bd80      	pop	{r7, pc}
    6050:	40039000 	.word	0x40039000

00006054 <TimerIntLdd1_Init>:
TimerIntLdd1_Init():
/home/guilherme/Documents/GER-SDP/KDS/SDP-2016/Debug/../Generated_Code/TimerIntLdd1.c:145
**                         - Pointer to the dynamically allocated private
**                           structure or NULL if there was an error.
*/
/* ===================================================================*/
LDD_TDeviceData* TimerIntLdd1_Init(LDD_TUserData *UserDataPtr)
{
    6054:	b580      	push	{r7, lr}
    6056:	b084      	sub	sp, #16
    6058:	af00      	add	r7, sp, #0
    605a:	6078      	str	r0, [r7, #4]
/home/guilherme/Documents/GER-SDP/KDS/SDP-2016/Debug/../Generated_Code/TimerIntLdd1.c:149
  /* Allocate device structure */
  TimerIntLdd1_TDeviceData *DeviceDataPrv;
  /* {Default RTOS Adapter} Driver memory allocation: Dynamic allocation is simulated by a pointer to the static object */
  DeviceDataPrv = &DeviceDataPrv__DEFAULT_RTOS_ALLOC;
    605c:	4b0f      	ldr	r3, [pc, #60]	; (609c <TimerIntLdd1_Init+0x48>)
    605e:	60fb      	str	r3, [r7, #12]
/home/guilherme/Documents/GER-SDP/KDS/SDP-2016/Debug/../Generated_Code/TimerIntLdd1.c:150
  DeviceDataPrv->UserDataPtr = UserDataPtr; /* Store the RTOS device structure */
    6060:	68fb      	ldr	r3, [r7, #12]
    6062:	687a      	ldr	r2, [r7, #4]
    6064:	609a      	str	r2, [r3, #8]
/home/guilherme/Documents/GER-SDP/KDS/SDP-2016/Debug/../Generated_Code/TimerIntLdd1.c:151
  DeviceDataPrv->EnUser = FALSE;       /* Set the flag "device disabled" */
    6066:	68fb      	ldr	r3, [r7, #12]
    6068:	2200      	movs	r2, #0
    606a:	711a      	strb	r2, [r3, #4]
/home/guilherme/Documents/GER-SDP/KDS/SDP-2016/Debug/../Generated_Code/TimerIntLdd1.c:153
  /* Registration of the device structure */
  PE_LDD_RegisterDeviceStructure(PE_LDD_COMPONENT_TimerIntLdd1_ID,DeviceDataPrv);
    606c:	4b0c      	ldr	r3, [pc, #48]	; (60a0 <TimerIntLdd1_Init+0x4c>)
    606e:	68fa      	ldr	r2, [r7, #12]
    6070:	60da      	str	r2, [r3, #12]
/home/guilherme/Documents/GER-SDP/KDS/SDP-2016/Debug/../Generated_Code/TimerIntLdd1.c:154
  DeviceDataPrv->LinkedDeviceDataPtr = TU1_Init((LDD_TUserData *)NULL);
    6072:	2000      	movs	r0, #0
    6074:	f7ff fd76 	bl	5b64 <TU1_Init>
    6078:	1c02      	adds	r2, r0, #0
    607a:	68fb      	ldr	r3, [r7, #12]
    607c:	601a      	str	r2, [r3, #0]
/home/guilherme/Documents/GER-SDP/KDS/SDP-2016/Debug/../Generated_Code/TimerIntLdd1.c:155
  if (DeviceDataPrv->LinkedDeviceDataPtr == NULL) { /* Is initialization of TimerUnit unsuccessful? */
    607e:	68fb      	ldr	r3, [r7, #12]
    6080:	681b      	ldr	r3, [r3, #0]
    6082:	2b00      	cmp	r3, #0
    6084:	d104      	bne.n	6090 <TimerIntLdd1_Init+0x3c>
/home/guilherme/Documents/GER-SDP/KDS/SDP-2016/Debug/../Generated_Code/TimerIntLdd1.c:157
    /* Unregistration of the device structure */
    PE_LDD_UnregisterDeviceStructure(PE_LDD_COMPONENT_TimerIntLdd1_ID);
    6086:	4b06      	ldr	r3, [pc, #24]	; (60a0 <TimerIntLdd1_Init+0x4c>)
    6088:	2200      	movs	r2, #0
    608a:	60da      	str	r2, [r3, #12]
/home/guilherme/Documents/GER-SDP/KDS/SDP-2016/Debug/../Generated_Code/TimerIntLdd1.c:160
    /* Deallocation of the device structure */
    /* {Default RTOS Adapter} Driver memory deallocation: Dynamic allocation is simulated, no deallocation code is generated */
    return NULL;                       /* If so, then the TimerInt initialization is also unsuccessful */
    608c:	2300      	movs	r3, #0
    608e:	e000      	b.n	6092 <TimerIntLdd1_Init+0x3e>
/home/guilherme/Documents/GER-SDP/KDS/SDP-2016/Debug/../Generated_Code/TimerIntLdd1.c:162
  }
  return ((LDD_TDeviceData *)DeviceDataPrv); /* Return pointer to the device data structure */
    6090:	68fb      	ldr	r3, [r7, #12]
/home/guilherme/Documents/GER-SDP/KDS/SDP-2016/Debug/../Generated_Code/TimerIntLdd1.c:163
}
    6092:	1c18      	adds	r0, r3, #0
    6094:	46bd      	mov	sp, r7
    6096:	b004      	add	sp, #16
    6098:	bd80      	pop	{r7, pc}
    609a:	46c0      	nop			; (mov r8, r8)
    609c:	1ffff1b4 	.word	0x1ffff1b4
    60a0:	1ffff0d8 	.word	0x1ffff0d8

000060a4 <TimerIntLdd1_Enable>:
TimerIntLdd1_Enable():
/home/guilherme/Documents/GER-SDP/KDS/SDP-2016/Debug/../Generated_Code/TimerIntLdd1.c:184
**                           ERR_SPEED - The component does not work in
**                           the active clock configuration
*/
/* ===================================================================*/
LDD_TError TimerIntLdd1_Enable(LDD_TDeviceData *DeviceDataPtr)
{
    60a4:	b580      	push	{r7, lr}
    60a6:	b084      	sub	sp, #16
    60a8:	af00      	add	r7, sp, #0
    60aa:	6078      	str	r0, [r7, #4]
/home/guilherme/Documents/GER-SDP/KDS/SDP-2016/Debug/../Generated_Code/TimerIntLdd1.c:185
  TimerIntLdd1_TDeviceData *DeviceDataPrv = (TimerIntLdd1_TDeviceData *)DeviceDataPtr;
    60ac:	687b      	ldr	r3, [r7, #4]
    60ae:	60fb      	str	r3, [r7, #12]
/home/guilherme/Documents/GER-SDP/KDS/SDP-2016/Debug/../Generated_Code/TimerIntLdd1.c:187

  if (!DeviceDataPrv->EnUser) {        /* Is the device disabled by user? */
    60b0:	68fb      	ldr	r3, [r7, #12]
    60b2:	791b      	ldrb	r3, [r3, #4]
    60b4:	2b00      	cmp	r3, #0
    60b6:	d107      	bne.n	60c8 <TimerIntLdd1_Enable+0x24>
/home/guilherme/Documents/GER-SDP/KDS/SDP-2016/Debug/../Generated_Code/TimerIntLdd1.c:188
    DeviceDataPrv->EnUser = TRUE;      /* If yes then set the flag "device enabled" */
    60b8:	68fb      	ldr	r3, [r7, #12]
    60ba:	2201      	movs	r2, #1
    60bc:	711a      	strb	r2, [r3, #4]
/home/guilherme/Documents/GER-SDP/KDS/SDP-2016/Debug/../Generated_Code/TimerIntLdd1.c:189
    (void)TU1_Enable(DeviceDataPrv->LinkedDeviceDataPtr); /* Enable TimerUnit */
    60be:	68fb      	ldr	r3, [r7, #12]
    60c0:	681b      	ldr	r3, [r3, #0]
    60c2:	1c18      	adds	r0, r3, #0
    60c4:	f7ff fdb8 	bl	5c38 <TU1_Enable>
/home/guilherme/Documents/GER-SDP/KDS/SDP-2016/Debug/../Generated_Code/TimerIntLdd1.c:191
  }
  return ERR_OK;
    60c8:	2300      	movs	r3, #0
/home/guilherme/Documents/GER-SDP/KDS/SDP-2016/Debug/../Generated_Code/TimerIntLdd1.c:192
}
    60ca:	1c18      	adds	r0, r3, #0
    60cc:	46bd      	mov	sp, r7
    60ce:	b004      	add	sp, #16
    60d0:	bd80      	pop	{r7, pc}
    60d2:	46c0      	nop			; (mov r8, r8)

000060d4 <TimerIntLdd1_SetEventMask>:
TimerIntLdd1_SetEventMask():
/home/guilherme/Documents/GER-SDP/KDS/SDP-2016/Debug/../Generated_Code/TimerIntLdd1.c:250
**                           the active clock configuration
**                           ERR_PARAM_MASK - Event mask is not valid
*/
/* ===================================================================*/
LDD_TError TimerIntLdd1_SetEventMask(LDD_TDeviceData *DeviceDataPtr, LDD_TEventMask EventMask)
{
    60d4:	b580      	push	{r7, lr}
    60d6:	b084      	sub	sp, #16
    60d8:	af00      	add	r7, sp, #0
    60da:	6078      	str	r0, [r7, #4]
    60dc:	6039      	str	r1, [r7, #0]
/home/guilherme/Documents/GER-SDP/KDS/SDP-2016/Debug/../Generated_Code/TimerIntLdd1.c:251
  TimerIntLdd1_TDeviceData *DeviceDataPrv = (TimerIntLdd1_TDeviceData *)DeviceDataPtr;
    60de:	687b      	ldr	r3, [r7, #4]
    60e0:	60fb      	str	r3, [r7, #12]
/home/guilherme/Documents/GER-SDP/KDS/SDP-2016/Debug/../Generated_Code/TimerIntLdd1.c:255

  /* Event mask test - this test can be disabled by setting the "Ignore range checking"
     property to the "yes" value in the "Configuration inspector" */
  if ((EventMask & ((LDD_TEventMask)~AVAILABLE_EVENTS_MASK)) != 0U) {
    60e2:	683b      	ldr	r3, [r7, #0]
    60e4:	2201      	movs	r2, #1
    60e6:	4393      	bics	r3, r2
    60e8:	d001      	beq.n	60ee <TimerIntLdd1_SetEventMask+0x1a>
/home/guilherme/Documents/GER-SDP/KDS/SDP-2016/Debug/../Generated_Code/TimerIntLdd1.c:256
    return ERR_PARAM_MASK;
    60ea:	2380      	movs	r3, #128	; 0x80
    60ec:	e00e      	b.n	610c <TimerIntLdd1_SetEventMask+0x38>
/home/guilherme/Documents/GER-SDP/KDS/SDP-2016/Debug/../Generated_Code/TimerIntLdd1.c:258
  }
  return TU1_SetEventMask(DeviceDataPrv->LinkedDeviceDataPtr, ((EventMask & LDD_TIMERINT_ON_INTERRUPT) != 0U) ? LDD_TIMERUNIT_ON_COUNTER_RESTART : (LDD_TEventMask)0U);
    60ee:	68fb      	ldr	r3, [r7, #12]
    60f0:	681a      	ldr	r2, [r3, #0]
    60f2:	6839      	ldr	r1, [r7, #0]
    60f4:	2301      	movs	r3, #1
    60f6:	400b      	ands	r3, r1
    60f8:	d002      	beq.n	6100 <TimerIntLdd1_SetEventMask+0x2c>
/home/guilherme/Documents/GER-SDP/KDS/SDP-2016/Debug/../Generated_Code/TimerIntLdd1.c:258 (discriminator 1)
    60fa:	2380      	movs	r3, #128	; 0x80
    60fc:	005b      	lsls	r3, r3, #1
    60fe:	e000      	b.n	6102 <TimerIntLdd1_SetEventMask+0x2e>
/home/guilherme/Documents/GER-SDP/KDS/SDP-2016/Debug/../Generated_Code/TimerIntLdd1.c:258 (discriminator 2)
    6100:	2300      	movs	r3, #0
/home/guilherme/Documents/GER-SDP/KDS/SDP-2016/Debug/../Generated_Code/TimerIntLdd1.c:258 (discriminator 3)
    6102:	1c10      	adds	r0, r2, #0
    6104:	1c19      	adds	r1, r3, #0
    6106:	f7ff fdad 	bl	5c64 <TU1_SetEventMask>
    610a:	1c03      	adds	r3, r0, #0
/home/guilherme/Documents/GER-SDP/KDS/SDP-2016/Debug/../Generated_Code/TimerIntLdd1.c:259
}
    610c:	1c18      	adds	r0, r3, #0
    610e:	46bd      	mov	sp, r7
    6110:	b004      	add	sp, #16
    6112:	bd80      	pop	{r7, pc}

00006114 <TU1_OnCounterRestart>:
TU1_OnCounterRestart():
/home/guilherme/Documents/GER-SDP/KDS/SDP-2016/Debug/../Generated_Code/TimerIntLdd1.c:272
**         eventually invokes event TimerIntLdd1_OnInterrupt.
**         This method is internal. It is used by Processor Expert only.
** ===================================================================
*/
void TU1_OnCounterRestart(LDD_TUserData *UserDataPtr)
{
    6114:	b580      	push	{r7, lr}
    6116:	b084      	sub	sp, #16
    6118:	af00      	add	r7, sp, #0
    611a:	6078      	str	r0, [r7, #4]
/home/guilherme/Documents/GER-SDP/KDS/SDP-2016/Debug/../Generated_Code/TimerIntLdd1.c:273
  TimerIntLdd1_TDeviceData *DeviceDataPrv = PE_LDD_DeviceDataList[PE_LDD_COMPONENT_TimerIntLdd1_ID];
    611c:	4b05      	ldr	r3, [pc, #20]	; (6134 <TU1_OnCounterRestart+0x20>)
    611e:	68db      	ldr	r3, [r3, #12]
    6120:	60fb      	str	r3, [r7, #12]
/home/guilherme/Documents/GER-SDP/KDS/SDP-2016/Debug/../Generated_Code/TimerIntLdd1.c:276

  (void)UserDataPtr;                   /* Parameter is not used, suppress unused argument warning */
  TimerIntLdd1_OnInterrupt(DeviceDataPrv->UserDataPtr); /* Invoke OnInterrupt event */
    6122:	68fb      	ldr	r3, [r7, #12]
    6124:	689b      	ldr	r3, [r3, #8]
    6126:	1c18      	adds	r0, r3, #0
    6128:	f7fe ff6a 	bl	5000 <TimerIntLdd1_OnInterrupt>
/home/guilherme/Documents/GER-SDP/KDS/SDP-2016/Debug/../Generated_Code/TimerIntLdd1.c:277
}
    612c:	46bd      	mov	sp, r7
    612e:	b004      	add	sp, #16
    6130:	bd80      	pop	{r7, pc}
    6132:	46c0      	nop			; (mov r8, r8)
    6134:	1ffff0d8 	.word	0x1ffff0d8

00006138 <exit>:
exit():
    6138:	4b08      	ldr	r3, [pc, #32]	; (615c <exit+0x24>)
    613a:	b510      	push	{r4, lr}
    613c:	1c04      	adds	r4, r0, #0
    613e:	2b00      	cmp	r3, #0
    6140:	d002      	beq.n	6148 <exit+0x10>
    6142:	2100      	movs	r1, #0
    6144:	e000      	b.n	6148 <exit+0x10>
    6146:	bf00      	nop
    6148:	4b05      	ldr	r3, [pc, #20]	; (6160 <exit+0x28>)
    614a:	6818      	ldr	r0, [r3, #0]
    614c:	6a83      	ldr	r3, [r0, #40]	; 0x28
    614e:	2b00      	cmp	r3, #0
    6150:	d000      	beq.n	6154 <exit+0x1c>
    6152:	4798      	blx	r3
    6154:	1c20      	adds	r0, r4, #0
    6156:	f000 f833 	bl	61c0 <_exit>
    615a:	46c0      	nop			; (mov r8, r8)
    615c:	00000000 	.word	0x00000000
    6160:	00006300 	.word	0x00006300

00006164 <__libc_init_array>:
__libc_init_array():
    6164:	b570      	push	{r4, r5, r6, lr}
    6166:	4b0e      	ldr	r3, [pc, #56]	; (61a0 <__libc_init_array+0x3c>)
    6168:	4d0e      	ldr	r5, [pc, #56]	; (61a4 <__libc_init_array+0x40>)
    616a:	2400      	movs	r4, #0
    616c:	1aed      	subs	r5, r5, r3
    616e:	10ad      	asrs	r5, r5, #2
    6170:	1c1e      	adds	r6, r3, #0
    6172:	42ac      	cmp	r4, r5
    6174:	d004      	beq.n	6180 <__libc_init_array+0x1c>
    6176:	00a3      	lsls	r3, r4, #2
    6178:	58f3      	ldr	r3, [r6, r3]
    617a:	4798      	blx	r3
    617c:	3401      	adds	r4, #1
    617e:	e7f8      	b.n	6172 <__libc_init_array+0xe>
    6180:	f000 f8c0 	bl	6304 <_init>
    6184:	4b08      	ldr	r3, [pc, #32]	; (61a8 <__libc_init_array+0x44>)
    6186:	4d09      	ldr	r5, [pc, #36]	; (61ac <__libc_init_array+0x48>)
    6188:	2400      	movs	r4, #0
    618a:	1aed      	subs	r5, r5, r3
    618c:	10ad      	asrs	r5, r5, #2
    618e:	1c1e      	adds	r6, r3, #0
    6190:	42ac      	cmp	r4, r5
    6192:	d004      	beq.n	619e <__libc_init_array+0x3a>
    6194:	00a3      	lsls	r3, r4, #2
    6196:	58f3      	ldr	r3, [r6, r3]
    6198:	4798      	blx	r3
    619a:	3401      	adds	r4, #1
    619c:	e7f8      	b.n	6190 <__libc_init_array+0x2c>
    619e:	bd70      	pop	{r4, r5, r6, pc}
    61a0:	00006324 	.word	0x00006324
    61a4:	00006324 	.word	0x00006324
    61a8:	00006324 	.word	0x00006324
    61ac:	00006328 	.word	0x00006328

000061b0 <memset>:
memset():
    61b0:	1c03      	adds	r3, r0, #0
    61b2:	1882      	adds	r2, r0, r2
    61b4:	4293      	cmp	r3, r2
    61b6:	d002      	beq.n	61be <memset+0xe>
    61b8:	7019      	strb	r1, [r3, #0]
    61ba:	3301      	adds	r3, #1
    61bc:	e7fa      	b.n	61b4 <memset+0x4>
    61be:	4770      	bx	lr

000061c0 <_exit>:
_exit():
    61c0:	e7fe      	b.n	61c0 <_exit>
    61c2:	46c0      	nop			; (mov r8, r8)
$d():
    61c4:	654c0d0a 	.word	0x654c0d0a
    61c8:	203a7466 	.word	0x203a7466
    61cc:	00000000 	.word	0x00000000
    61d0:	69520d0a 	.word	0x69520d0a
    61d4:	00203a67 	.word	0x00203a67
    61d8:	00000b8c 	.word	0x00000b8c
    61dc:	00000b3e 	.word	0x00000b3e
    61e0:	00000b6c 	.word	0x00000b6c
    61e4:	00000ac6 	.word	0x00000ac6
    61e8:	00000b6c 	.word	0x00000b6c
    61ec:	00000b62 	.word	0x00000b62
    61f0:	00000b6c 	.word	0x00000b6c
    61f4:	00000ac6 	.word	0x00000ac6
    61f8:	00000b3e 	.word	0x00000b3e
    61fc:	00000b3e 	.word	0x00000b3e
    6200:	00000b62 	.word	0x00000b62
    6204:	00000ac6 	.word	0x00000ac6
    6208:	00000abe 	.word	0x00000abe
    620c:	00000abe 	.word	0x00000abe
    6210:	00000abe 	.word	0x00000abe
    6214:	00000b72 	.word	0x00000b72
    6218:	00000f30 	.word	0x00000f30
    621c:	00000f2a 	.word	0x00000f2a
    6220:	00000f2a 	.word	0x00000f2a
    6224:	00000f20 	.word	0x00000f20
    6228:	00000e80 	.word	0x00000e80
    622c:	00000e80 	.word	0x00000e80
    6230:	00000f16 	.word	0x00000f16
    6234:	00000f20 	.word	0x00000f20
    6238:	00000e80 	.word	0x00000e80
    623c:	00000f16 	.word	0x00000f16
    6240:	00000e80 	.word	0x00000e80
    6244:	00000f20 	.word	0x00000f20
    6248:	00000e7e 	.word	0x00000e7e
    624c:	00000e7e 	.word	0x00000e7e
    6250:	00000e7e 	.word	0x00000e7e
    6254:	00000fb8 	.word	0x00000fb8
    6258:	00001d0c 	.word	0x00001d0c
    625c:	00001ca8 	.word	0x00001ca8
    6260:	00001cf0 	.word	0x00001cf0
    6264:	00001bd6 	.word	0x00001bd6
    6268:	00001cf0 	.word	0x00001cf0
    626c:	00001ce4 	.word	0x00001ce4
    6270:	00001cf0 	.word	0x00001cf0
    6274:	00001bd6 	.word	0x00001bd6
    6278:	00001ca8 	.word	0x00001ca8
    627c:	00001ca8 	.word	0x00001ca8
    6280:	00001ce4 	.word	0x00001ce4
    6284:	00001bd6 	.word	0x00001bd6
    6288:	00001bcc 	.word	0x00001bcc
    628c:	00001bcc 	.word	0x00001bcc
    6290:	00001bcc 	.word	0x00001bcc
    6294:	00001f30 	.word	0x00001f30
    6298:	000025dc 	.word	0x000025dc
    629c:	000027ca 	.word	0x000027ca
    62a0:	000027ca 	.word	0x000027ca
    62a4:	000025bc 	.word	0x000025bc
    62a8:	000024a6 	.word	0x000024a6
    62ac:	000024a6 	.word	0x000024a6
    62b0:	000025ae 	.word	0x000025ae
    62b4:	000025bc 	.word	0x000025bc
    62b8:	000024a6 	.word	0x000024a6
    62bc:	000025ae 	.word	0x000025ae
    62c0:	000024a6 	.word	0x000024a6
    62c4:	000025bc 	.word	0x000025bc
    62c8:	000024a4 	.word	0x000024a4
    62cc:	000024a4 	.word	0x000024a4
    62d0:	000024a4 	.word	0x000024a4
    62d4:	000027d2 	.word	0x000027d2
    62d8:	000036a8 	.word	0x000036a8
    62dc:	000036d6 	.word	0x000036d6
    62e0:	0000370a 	.word	0x0000370a
    62e4:	00003660 	.word	0x00003660
    62e8:	0000372e 	.word	0x0000372e

000062ec <Table>:
    62ec:	00000201                                ....

000062f0 <ChannelToPin>:
    62f0:	00004446                                FD..

000062f4 <ChannelDevice>:
    62f4:	01000302                                ....

000062f8 <ChannelMode>:
    62f8:	00000000 00000043                       ....C...

00006300 <_global_impure_ptr>:
    6300:	1ffff000                                ....

00006304 <_init>:
$t():
    6304:	b5f8      	push	{r3, r4, r5, r6, r7, lr}
    6306:	46c0      	nop			; (mov r8, r8)
    6308:	bcf8      	pop	{r3, r4, r5, r6, r7}
    630a:	bc08      	pop	{r3}
    630c:	469e      	mov	lr, r3
    630e:	4770      	bx	lr

00006310 <_fini>:
    6310:	b5f8      	push	{r3, r4, r5, r6, r7, lr}
    6312:	46c0      	nop			; (mov r8, r8)
    6314:	bcf8      	pop	{r3, r4, r5, r6, r7}
    6316:	bc08      	pop	{r3}
    6318:	469e      	mov	lr, r3
    631a:	4770      	bx	lr
